 SSPH

 Timestamp is 69faa888 (Wed May 06 11:33:44 2026)

 Preferred load address is 00400000

 Start         Length     Name                   Class
 0001:00000000 002991e0H .text                   CODE
 0001:002991e0 000000e0H .text$AFX_AUX           CODE
 0001:002992c0 000000f0H .text$AFX_COL1          CODE
 0001:002993b0 00000390H .text$AFX_COL2          CODE
 0001:00299740 00006230H .text$AFX_CORE1         CODE
 0001:0029f970 00000b10H .text$AFX_CORE2         CODE
 0001:002a0480 000004e0H .text$AFX_CORE3         CODE
 0001:002a0960 00000030H .text$AFX_CORE4         CODE
 0001:002a0990 00001cf0H .text$AFX_INIT          CODE
 0001:002a2680 000001c0H .text$AFX_TERM          CODE
 0001:002a2840 0000568aH .text$x                 CODE
 0002:00000000 0000077cH .idata$5                DATA
 0002:00000780 000ce034H .rdata                  DATA
 0002:000ce7b8 000026bcH .rdata$r                DATA
 0002:000d0e78 00005ab0H .xdata$x                DATA
 0002:000d6928 0000012cH .idata$2                DATA
 0002:000d6a54 00000014H .idata$3                DATA
 0002:000d6a68 0000077cH .idata$4                DATA
 0002:000d71e4 00001ee2H .idata$6                DATA
 0002:000d90c6 00000000H .edata                  DATA
 0003:00000000 00000004H .CRT$XCA                DATA
 0003:00000004 00000028H .CRT$XCC                DATA
 0003:0000002c 00000004H .CRT$XCL                DATA
 0003:00000030 00000080H .CRT$XCU                DATA
 0003:000000b0 00000004H .CRT$XCZ                DATA
 0003:000000b4 00000004H .CRT$XIA                DATA
 0003:000000b8 0000000cH .CRT$XIC                DATA
 0003:000000c4 00000004H .CRT$XIY                DATA
 0003:000000c8 00000004H .CRT$XIZ                DATA
 0003:000000cc 00000004H .CRT$XLA                DATA
 0003:000000d0 00000004H .CRT$XLZ                DATA
 0003:000000d4 00000004H .CRT$XPA                DATA
 0003:000000d8 00000004H .CRT$XPX                DATA
 0003:000000dc 00000004H .CRT$XPZ                DATA
 0003:000000e0 00000004H .CRT$XTA                DATA
 0003:000000e4 00000004H .CRT$XTB                DATA
 0003:000000e8 00000004H .CRT$XTZ                DATA
 0003:000000f0 00009e5aH .data                   DATA
 0003:00009f50 00008db8H .bss                    DATA
 0004:00000000 00000004H .tls                    DATA
 0004:00000008 00003e6cH .tls$                   DATA
 0004:00003e74 00000004H .tls$ZZZ                DATA
 0005:00000000 0000034cH .rsrc$01                DATA
 0005:00000350 0000b810H .rsrc$02                DATA

  Address         Publics by Value              Rva+Base     Lib:Object

 0001:00000000       _adler32_z                 00401000 f   adler32.obj
 0001:00000280       _adler32                   00401280 f   adler32.obj
 0001:000002a0       _compress2_z               004012a0 f   compress.obj
 0001:000003a0       _compress2                 004013a0 f   compress.obj
 0001:000003d0       _compress                  004013d0 f   compress.obj
 0001:000003f0       _get_crc_table             004013f0 f   crc32.obj
 0001:00000400       _crc32_z                   00401400 f   crc32.obj
 0001:00000770       _crc32                     00401770 f   crc32.obj
 0001:00000790       _deflateInit_              00401790 f   deflate.obj
 0001:000007c0       _deflateInit2_             004017c0 f   deflate.obj
 0001:00000da0       _deflateResetKeep          00401da0 f   deflate.obj
 0001:00000e30       _deflateReset              00401e30 f   deflate.obj
 0001:00000f10       _deflate                   00401f10 f   deflate.obj
 0001:000019f0       _deflateEnd                004029f0 f   deflate.obj
 0001:00002cf0       _inflateBack9Init_         00403cf0 f   infback9.obj
 0001:00002dd0       _inflateBack9              00403dd0 f   infback9.obj
 0001:00003c00       _inflateBack9End           00404c00 f   infback9.obj
 0001:00003c40       _inflate_fast              00404c40 f   inffast.obj
 0001:000040c0       _inflateResetKeep          004050c0 f   inflate.obj
 0001:000041a0       _inflateReset              004051a0 f   inflate.obj
 0001:000041e0       _inflateReset2             004051e0 f   inflate.obj
 0001:00004290       _inflateInit2_             00405290 f   inflate.obj
 0001:00004370       _inflateInit_              00405370 f   inflate.obj
 0001:00004390       _inflate                   00405390 f   inflate.obj
 0001:00005cb0       _inflateEnd                00406cb0 f   inflate.obj
 0001:00005d00       _inflate_table9            00406d00 f   inftree9.obj
 0001:00006120       _inflate_table             00407120 f   inftrees.obj
 0001:00006520       _inflate_fixed             00407520 f   inftrees.obj
 0001:00006550       __tr_init                  00407550 f   trees.obj
 0001:00006630       __tr_stored_block          00407630 f   trees.obj
 0001:000067d0       __tr_flush_bits            004077d0 f   trees.obj
 0001:00006880       __tr_align                 00407880 f   trees.obj
 0001:000069c0       __tr_flush_block           004079c0 f   trees.obj
 0001:00007ff0       _uncompress2_z             00408ff0 f   uncompr.obj
 0001:00008120       _uncompress2               00409120 f   uncompr.obj
 0001:00008160       _uncompress                00409160 f   uncompr.obj
 0001:00008190       _zError                    00409190 f   zutil.obj
 0001:000081c0       _zcalloc                   004091c0 f   zutil.obj
 0001:000081e0       _zcfree                    004091e0 f   zutil.obj
 0001:00008220       ??0SPSettings@@QAE@XZ      00409220 f i Installer.obj
 0001:00008350       ??1SPSettings@@QAE@XZ      00409350 f i Installer.obj
 0001:000084a0       ??0JString@@QAE@XZ         004094a0 f i Installer.obj
 0001:00008580       ?SSPH_OverrideLangName@@YAXPBD@Z 00409580 f   Installer.obj
 0001:000085a0       ?SSPH_InitSettings@@YAXXZ  004095a0 f   Installer.obj
 0001:00008650       ?SSPH_GetLocalizedString@@YA?AVJWString@@PBD@Z 00409650 f   Installer.obj
 0001:00008830       ?SSPH_MessageBox@@YAHPAUHWND__@@PBD1I@Z 00409830 f   Installer.obj
 0001:000088f0       ??0CInstaller@@QAE@PAVCWnd@@@Z 004098f0 f   Installer.obj
 0001:00008ae0       ?SetModuleName@JDynLoadStub@@UAEXPBG@Z 00409ae0 f i Installer.obj
 0001:00008ae0       ?DoDataExchange@CWnd@@MAEXPAVCDataExchange@@@Z 00409ae0 f i Installer.obj
 0001:00008ae0       ?Load@JDynLoadStub@@UAEXPBG@Z 00409ae0 f i Installer.obj
 0001:00008ae0       ?Serialize@CObject@@UAEXAAVCArchive@@@Z 00409ae0 f i Installer.obj
 0001:00008af0       ?BeginModalState@CWnd@@UAEXXZ 00409af0 f i Installer.obj
 0001:00008b00       ?EndModalState@CWnd@@UAEXXZ 00409b00 f i Installer.obj
 0001:00008b10       ??0JWString@@QAE@XZ        00409b10 f i Installer.obj
 0001:00008bd0       ??_GCInstaller@@UAEPAXI@Z  00409bd0 f i Installer.obj
 0001:00008bd0       ??_ECInstaller@@UAEPAXI@Z  00409bd0 f i Installer.obj
 0001:00008c00       ??1CInstaller@@UAE@XZ      00409c00 f i Installer.obj
 0001:00008cd0       ?DoDataExchange@CInstaller@@MAEXPAVCDataExchange@@@Z 00409cd0 f   Installer.obj
 0001:00008cd0       ?DoDataExchange@CProgress@@MAEXPAVCDataExchange@@@Z 00409cd0 f   Installer.obj
 0001:00008ce0       ?GetMessageMap@CInstaller@@MBEPBUAFX_MSGMAP@@XZ 00409ce0 f   Installer.obj
 0001:00008cf0       ?SSPH_GetLangName@@YA?AVJString@@XZ 00409cf0 f   Installer.obj
 0001:00008ef0       ?SSPH_GetLangPackUrl@@YA_NAAVJWString@@@Z 00409ef0 f   Installer.obj
 0001:00008fe0       ?SSPH_DownloadAndExtractLangPack@@YA_NPBG0@Z 00409fe0 f   Installer.obj
 0001:00009c30       ?CInstaller_ReplaceLangText@@YAXAAVSPDlgTemplate@@@Z 0040ac30 f   Installer.obj
 0001:00009ec0       ?DoModal@CInstaller@@UAEHXZ 0040aec0 f   Installer.obj
 0001:0000a1c0       ??1SPGMemPurge@@QAE@XZ     0040b1c0 f i Installer.obj
 0001:0000a1d0       ??1SPDlgTemplate@@QAE@XZ   0040b1d0 f i Installer.obj
 0001:0000a2a0       ?OnInitDialog@CInstaller@@MAEHXZ 0040b2a0 f   Installer.obj
 0001:0000a8b0       ??1SPReg@@QAE@XZ           0040b8b0 f i Installer.obj
 0001:0000a8c0       ?OnOK@CInstaller@@MAEXXZ   0040b8c0 f   Installer.obj
 0001:0000b320       ?CountFiles@CInstaller@@AAEHPBG@Z 0040c320 f   Installer.obj
 0001:0000b4b0       ?CopyFilesRecursive@CInstaller@@AAEXPBG00AAHH@Z 0040c4b0 f   Installer.obj
 0001:0000b8c0       ?PumpMessages@CInstaller@@AAEXXZ 0040c8c0 f   Installer.obj
 0001:0000b920       ?OnEraseBkgnd@CInstaller@@IAEHPAVCDC@@@Z 0040c920 f   Installer.obj
 0001:0000bb60       ??1CObject@@UAE@XZ         0040cb60 f i Installer.obj
 0001:0000bb60       ??1CNoTrackObject@@UAE@XZ  0040cb60 f i Installer.obj
 0001:0000bb70       ??_GCGdiObject@@UAEPAXI@Z  0040cb70 f i Installer.obj
 0001:0000bb70       ??_ECGdiObject@@UAEPAXI@Z  0040cb70 f i Installer.obj
 0001:0000bba0       ??1CGdiObject@@UAE@XZ      0040cba0 f i Installer.obj
 0001:0000bbe0       ??1CPen@@UAE@XZ            0040cbe0 f i Installer.obj
 0001:0000bc20       ??1CBrush@@UAE@XZ          0040cc20 f i Installer.obj
 0001:0000bc60       ?OnNotify@CInstaller@@MAEHIJPAJ@Z 0040cc60 f   Installer.obj
 0001:0000bd00       ?OnBrowse@CInstaller@@IAEXXZ 0040cd00 f   Installer.obj
 0001:0000bdd0       ?OnCheckStartmenu@CInstaller@@IAEXXZ 0040cdd0 f   Installer.obj
 0001:0000be50       ?DownloadLangPack@CInstaller@@AAEXPBG@Z 0040ce50 f   Installer.obj
 0001:0000bed0       ??0?$JArray@D@@QAE@K@Z     0040ced0 f i Installer.obj
 0001:0000bf60       ?Size@?$JArray@D@@QBEKXZ   0040cf60 f i Installer.obj
 0001:0000bf80       ?SetNum@?$JArray@D@@QAEXK@Z 0040cf80 f i Installer.obj
 0001:0000bfd0       ??0?$JArray@G@@QAE@K@Z     0040cfd0 f i Installer.obj
 0001:0000c070       ?Last@?$JArray@G@@QAEAAGXZ 0040d070 f i Installer.obj
 0001:0000c090       ?Size@?$JArray@G@@QBEKXZ   0040d090 f i Installer.obj
 0001:0000c0b0       ?SetNum@?$JArray@G@@QAEXK@Z 0040d0b0 f i Installer.obj
 0001:0000c100       ??0?$JPtrArray@PAVSPDlgTemplateItem@@@@QAE@J@Z 0040d100 f i Installer.obj
 0001:0000c1f0       ?SetNumNoPurge@?$JArray@G@@QAEXK_N@Z 0040d1f0 f i Installer.obj
 0001:0000c250       ??_G?$JHashData@D@@QAEPAXI@Z 0040d250 f i Installer.obj
 0001:0000c2a0       ?Size@?$JArray@PAX@@QBEKXZ 0040d2a0 f i Installer.obj
 0001:0000c2c0       ?Realloc@?$JArray@D@@QAE_NK@Z 0040d2c0 f i Installer.obj
 0001:0000c390       ?Add@?$JArray@D@@QAEAADXZ  0040d390 f i Installer.obj
 0001:0000c480       ?Realloc@?$JArray@G@@QAE_NK@Z 0040d480 f i Installer.obj
 0001:0000c550       ?Add@?$JArray@G@@QAEAAGXZ  0040d550 f i Installer.obj
 0001:0000c640       ??0JCriticalSection@@QAE@XZ 0040d640 f   j_criticalsection.obj
 0001:0000c6c0       ??1JLockable@@UAE@XZ       0040d6c0 f i j_criticalsection.obj
 0001:0000c6d0       ?SharedLock@JLockable@@UAE_NJ@Z 0040d6d0 f i j_criticalsection.obj
 0001:0000c6e0       ?SharedUnlock@JLockable@@UAEXXZ 0040d6e0 f i j_criticalsection.obj
 0001:0000c6f0       ??_GJLockable@@UAEPAXI@Z   0040d6f0 f i j_criticalsection.obj
 0001:0000c6f0       ??_EJLockable@@UAEPAXI@Z   0040d6f0 f i j_criticalsection.obj
 0001:0000c780       ??0JDynLoadSystem@@QAE@PBG@Z 0040d780 f i j_criticalsection.obj
 0001:0000c870       ??1JDynLoadStub@@UAE@XZ    0040d870 f i j_criticalsection.obj
 0001:0000c880       ?MatchNext@?$CEmptyElxT@$0A@@@UBEHPAVCContext@@@Z 0040d880 f i j_criticalsection.obj
 0001:0000c880       ?MatchNext@?$CGlobalElxT@$0A@@@UBEHPAVCContext@@@Z 0040d880 f i j_criticalsection.obj
 0001:0000c880       ?ReadLineImpl@SPStreamFilterHttpChunk@@UAEPADAA_J@Z 0040d880 f i j_criticalsection.obj
 0001:0000c880       ?SetSourceFilter@SPStreamFilterSocket@@UAEHPAVSPStreamFilter@@@Z 0040d880 f i j_criticalsection.obj
 0001:0000c880       ?GetProc@JDynLoadStub@@UAEPAXPBD@Z 0040d880 f i j_criticalsection.obj
 0001:0000c880       ?MatchNext@?$CBoundaryElxT@G@@UBEHPAVCContext@@@Z 0040d880 f i j_criticalsection.obj
 0001:0000c880       ?ReadLineImpl@SPStreamFilterGZip@@UAEPADAA_J@Z 0040d880 f i j_criticalsection.obj
 0001:0000c880       ?MatchNext@?$CBoundaryElxT@D@@UBEHPAVCContext@@@Z 0040d880 f i j_criticalsection.obj
 0001:0000c890       ??_EJDynLoadStub@@UAEPAXI@Z 0040d890 f i j_criticalsection.obj
 0001:0000c890       ??_GJDynLoadStub@@UAEPAXI@Z 0040d890 f i j_criticalsection.obj
 0001:0000c8c0       ??1JDynLoad@@UAE@XZ        0040d8c0 f i j_criticalsection.obj
 0001:0000c920       ?Load@JDynLoad@@UAEXPBG@Z  0040d920 f i j_criticalsection.obj
 0001:0000c950       ??_GJDynLoad@@UAEPAXI@Z    0040d950 f i j_criticalsection.obj
 0001:0000c950       ??_EJDynLoad@@UAEPAXI@Z    0040d950 f i j_criticalsection.obj
 0001:0000c980       ??_GJDynLoadSystem@@UAEPAXI@Z 0040d980 f i j_criticalsection.obj
 0001:0000c980       ??_EJDynLoadSystem@@UAEPAXI@Z 0040d980 f i j_criticalsection.obj
 0001:0000c9b0       ??1JDynLoadSystem@@UAE@XZ  0040d9b0 f i j_criticalsection.obj
 0001:0000ca20       ??_GJCriticalSection@@UAEPAXI@Z 0040da20 f i j_criticalsection.obj
 0001:0000ca20       ??_EJCriticalSection@@UAEPAXI@Z 0040da20 f i j_criticalsection.obj
 0001:0000ca50       ??1JCriticalSection@@UAE@XZ 0040da50 f   j_criticalsection.obj
 0001:0000ca70       ?Lock@JCriticalSection@@MAE_NJ@Z 0040da70 f   j_criticalsection.obj
 0001:0000ca80       ?Unlock@JCriticalSection@@MAEXXZ 0040da80 f   j_criticalsection.obj
 0001:0000ca90       ??1JLock@@QAE@XZ           0040da90 f i j_criticalsection.obj
 0001:0000ca90       ??1JUnlock@@QAE@XZ         0040da90 f i j_criticalsection.obj
 0001:0000caa0       ??1JStream@@UAE@XZ         0040daa0 f i j_dib.obj
 0001:0000cac0       ?Open@JStream@@UAEHPAVJStreamObject@@PBGH@Z 0040dac0 f i j_dib.obj
 0001:0000cb00       ?Open@JStream@@UAEHPBGH@Z  0040db00 f i j_dib.obj
 0001:0000cb30       ?AttachStream@JStream@@UAEXPAVJStreamObject@@@Z 0040db30 f i j_dib.obj
 0001:0000cb60       ?DetachStream@JStream@@UAEPAVJStreamObject@@XZ 0040db60 f i j_dib.obj
 0001:0000cb70       ?Close@JStream@@UAEXXZ     0040db70 f i j_dib.obj
 0001:0000cb80       ?Reopen@JStream@@UAEHXZ    0040db80 f i j_dib.obj
 0001:0000cb90       ?IsOpen@JStream@@UAE_NXZ   0040db90 f i j_dib.obj
 0001:0000cba0       ?Size@JStream@@UAEKXZ      0040dba0 f i j_dib.obj
 0001:0000cbb0       ?Read@JStream@@UAEEXZ      0040dbb0 f i j_dib.obj
 0001:0000cbc0       ?Read@JStream@@UAEKPAXK@Z  0040dbc0 f i j_dib.obj
 0001:0000cbe0       ?Write@JStream@@UAEKE@Z    0040dbe0 f i j_dib.obj
 0001:0000cc00       ?Write@JStream@@UAEKPBXK@Z 0040dc00 f i j_dib.obj
 0001:0000cc20       ?Seek@JStream@@UAEHJH@Z    0040dc20 f i j_dib.obj
 0001:0000cc50       ?Length@JStream@@UAEKXZ    0040dc50 f i j_dib.obj
 0001:0000cc60       ?Pos@JStream@@UAEKXZ       0040dc60 f i j_dib.obj
 0001:0000cc70       ?Flush@JStream@@UAEXXZ     0040dc70 f i j_dib.obj
 0001:0000cc80       ??_GJStream@@UAEPAXI@Z     0040dc80 f i j_dib.obj
 0001:0000cc80       ??_EJStream@@UAEPAXI@Z     0040dc80 f i j_dib.obj
 0001:0000ccb0       ?InternalLoad@JDynLoad@@AAE_NXZ 0040dcb0 f   j_dynload.obj
 0001:0000cdb0       ?InternalUnload@JDynLoad@@AAEXXZ 0040ddb0 f   j_dynload.obj
 0001:0000cdd0       ?GetProc@JDynLoad@@UAEPAXPBD@Z 0040ddd0 f   j_dynload.obj
 0001:0000ce00       ?SetModuleName@JDynLoad@@UAEXPBG@Z 0040de00 f   j_dynload.obj
 0001:0000ce20       ?SetModuleName@JDynLoadSystem@@UAEXPBG@Z 0040de20 f   j_dynload.obj
 0001:0000ce40       ?Create@JMutex@@QAEHPBGH@Z 0040de40 f   j_mutex.obj
 0001:0000ce70       ?Release@JMutex@@QAEXXZ    0040de70 f   j_mutex.obj
 0001:0000ce90       ?Lock@JMutex@@UAE_NJ@Z     0040de90 f   j_mutex.obj
 0001:0000ced0       ?Unlock@JMutex@@UAEXXZ     0040ded0 f   j_mutex.obj
 0001:0000cee0       ??1JRefCount@@MAE@XZ       0040dee0 f i j_objman.obj
 0001:0000cef0       ?RefAdd@JRefCount@@UAEKXZ  0040def0 f i j_objman.obj
 0001:0000cf00       ?RefRelease@JRefCount@@UAEKXZ 0040df00 f i j_objman.obj
 0001:0000cf30       ??_EJRefCount@@MAEPAXI@Z   0040df30 f i j_objman.obj
 0001:0000cf30       ??_GJRefCount@@MAEPAXI@Z   0040df30 f i j_objman.obj
 0001:0000cfa0       _tinymt32_init_by_array    0040dfa0 f   j_prng.obj
 0001:0000d200       _genrand_ulong             0040e200 f   j_prng.obj
 0001:0000d2f0       _genrand_nativeint         0040e2f0 f   j_prng.obj
 0001:0000d3a0       _genrand                   0040e3a0 f   j_prng.obj
 0001:0000d480       ?PreInit@JSocketManager@@QAE_N_N@Z 0040e480 f   j_sock.obj
 0001:0000d4d0       ?Init@JSocketManager@@QAE_N_N@Z 0040e4d0 f   j_sock.obj
 0001:0000d4f0       ?PreInitSSL@JSocketManager@@AAEX_N@Z 0040e4f0 f   j_sock.obj
 0001:0000d5e0       ?InitSSL@JSocketManager@@AAEXXZ 0040e5e0 f   j_sock.obj
 0001:0000e4c0       ?InitSSLCTX@JSocketManager@@AAEXPAUssl_ctx_st@@@Z 0040f4c0 f   j_sock.obj
 0001:0000e540       ?CreateSSL@JSocketManager@@QAEPAUssl_st@@PAVJSocket@@_N1PAU2@PBD@Z 0040f540 f   j_sock.obj
 0001:0000e620       ?SessionNewCallback@JSocketManager@@AAEHPAUssl_st@@PAUssl_session_st@@@Z 0040f620 f   j_sock.obj
 0001:0000e870       ??1JSocketManagerSessionCache@@QAE@XZ 0040f870 f i j_sock.obj
 0001:0000e8d0       ?SessionRemoveCallback@JSocketManager@@AAEXPAUssl_ctx_st@@PAUssl_session_st@@@Z 0040f8d0 f   j_sock.obj
 0001:0000ea30       ?SessionGet@JSocketManager@@AAE_NPAUssl_st@@PBD@Z 0040fa30 f   j_sock.obj
 0001:0000ebf0       ?SessionFindIndex@JSocketManager@@AAEJPBD@Z 0040fbf0 f   j_sock.obj
 0001:0000ec40       ??1JSocketManager@@QAE@XZ  0040fc40 f   j_sock.obj
 0001:0000edf0       ?JSocket_SSL_Thread_Destroy@@YAXXZ 0040fdf0 f   j_sock.obj
 0001:0000ee00       ?PreInit@JSocket@@SAH_N@Z  0040fe00 f   j_sock.obj
 0001:0000ef30       ?Startup@JSocket@@SAH_N@Z  0040ff30 f   j_sock.obj
 0001:0000ef60       ?Cleanup@JSocket@@SAXXZ    0040ff60 f   j_sock.obj
 0001:0000ef90       ?SetOption@JSocket@@AAEXXZ 0040ff90 f   j_sock.obj
 0001:0000f090       ??0JSocket@@QAE@XZ         00410090 f   j_sock.obj
 0001:0000f290       ?Release@JSocket@@QAEXXZ   00410290 f   j_sock.obj
 0001:0000f410       ??1JSocket@@QAE@XZ         00410410 f   j_sock.obj
 0001:0000f510       ?timeout_connect@JSocket@@AAEHIPBUsockaddr@@HH@Z 00410510 f   j_sock.obj
 0001:0000f590       ?AddSSLErrorLog@JSocket@@AAEX_N@Z 00410590 f   j_sock.obj
 0001:0000f680       ?recv_wrapper@JSocket@@AAEHPADHHPAUssl_st@@@Z 00410680 f   j_sock.obj
 0001:0000f830       ?send_wrapper@JSocket@@AAEHPBDHHPAUssl_st@@@Z 00410830 f   j_sock.obj
 0001:0000fbc0       ?ConnectSOCKS@JSocket@@AAEHI@Z 00410bc0 f   j_sock.obj
 0001:0000fcb0       ?ConnectSOCKS4@JSocket@@AAEHIAAVJSocketConnectInfo@@@Z 00410cb0 f   j_sock.obj
 0001:0000fdd0       ?ConnectSOCKS5@JSocket@@AAEHIAAVJSocketConnectInfo@@@Z 00410dd0 f   j_sock.obj
 0001:00010120       ?Connect@JSocket@@QAEHPBDH_N@Z 00411120 f   j_sock.obj
 0001:000103c0       ?ConnectReal@JSocket@@AAEHABVJSockAddr@@H@Z 004113c0 f   j_sock.obj
 0001:00010590       ?SetSSLMode@JSocket@@QAE_NHPBD_N1@Z 00411590 f   j_sock.obj
 0001:00010600       ?SetSSLSessionResumption@JSocket@@QAEX_N@Z 00411600 f   j_sock.obj
 0001:00010610       ?SetSSLSecureMode@JSocket@@QAEX_N@Z 00411610 f   j_sock.obj
 0001:00010620       ?SetSSLEarlyData@JSocket@@QAEX_N@Z 00411620 f   j_sock.obj
 0001:00010660       ?Status@JSocket@@QAEHXZ    00411660 f   j_sock.obj
 0001:00010680       ?BreakCheckProc@JSocket@@SA_NPAX@Z 00411680 f   j_sock.obj
 0001:000106a0       ?Close@JSocket@@QAEXW4JSocketCloseOption@@@Z 004116a0 f   j_sock.obj
 0001:00010960       ??1JSocketSSLAcquire@@QAE@XZ 00411960 f i j_sock.obj
 0001:00010970       ?Send@JSocket@@QAEHPBDJ@Z  00411970 f   j_sock.obj
 0001:00010a80       ?JunkRecvData@JSocket@@AAEXPAUssl_st@@@Z 00411a80 f   j_sock.obj
 0001:00010b30       ?Recv@JSocket@@QAEHPADJ@Z  00411b30 f   j_sock.obj
 0001:00010cd0       ?RecvLineSub@JSocket@@AAEHAAD@Z 00411cd0 f   j_sock.obj
 0001:00010e80       ?RecvLine@JSocket@@QAEPADAAJ@Z 00411e80 f   j_sock.obj
 0001:00011110       ?AddLog@JSocket@@QAEXPBDJ@Z 00412110 f   j_sock.obj
 0001:00011140       ?WriteLog@JSocket@@QAEXPBDJ@Z 00412140 f   j_sock.obj
 0001:000111b0       ?GetLastError@JSocket@@SAHXZ 004121b0 f   j_sock.obj
 0001:000111c0       ?GetErrorText@JSocket@@SAPBDH@Z 004121c0 f   j_sock.obj
 0001:000111f0       ?AddNetworkLog@JSocket@@QAEXPBG_N@Z 004121f0 f   j_sock.obj
 0001:00011390       ?select_wrapper@JSocket@@AAEHIHH@Z 00412390 f   j_sock.obj
 0001:00011640       ?AsyncSelect@JSocket@@QAEHPAXIJ@Z 00412640 f   j_sock.obj
 0001:000116b0       ?nb_send@JSocket@@AAEHIPBDH@Z 004126b0 f   j_sock.obj
 0001:00011700       ?nb_recv@JSocket@@AAEHIPADH@Z 00412700 f   j_sock.obj
 0001:00011750       ?CreateSocket@JSocket@@AAE_NHHH@Z 00412750 f   j_sock.obj
 0001:000117a0       ?SetSocket@JSocket@@AAE_NI@Z 004127a0 f   j_sock.obj
 0001:000117e0       ?IsBreak@JSocket@@QBE_NXZ  004127e0 f   j_sock.obj
 0001:00011820       ?SSLRelease@JSocket@@AAEXXZ 00412820 f   j_sock.obj
 0001:00011990       ?SetALPN@JSocket@@QAEXPBD000@Z 00412990 f   j_sock.obj
 0001:00011c20       ?ProcessX509Info@JSocket@@AAEXPAUssl_st@@_N@Z 00412c20 f   j_sock.obj
 0001:000124f0       ?SSLInit@JSocket@@AAE_NPBD_N1@Z 004134f0 f   j_sock.obj
 0001:00012710       ?SSLProcessAfterConnect@JSocket@@AAEXPAUssl_st@@H_N@Z 00413710 f   j_sock.obj
 0001:00012c60       ??1?$JPtrArray@PAVSPURLTranslateData@@@@QAE@XZ 00413c60 f i j_sock.obj
 0001:00012c60       ??1?$JArray@PAX@@QAE@XZ    00413c60 f i j_sock.obj
 0001:00012c60       ?Release@?$JArray@PAX@@QAEXXZ 00413c60 f i j_sock.obj
 0001:00012c60       ??1?$JPtrArray@PAG@@QAE@XZ 00413c60 f i j_sock.obj
 0001:00012c60       ??1?$JPtrArray@PAVSPDlgTemplateItem@@@@QAE@XZ 00413c60 f i j_sock.obj
 0001:00012c60       ??1JGXCodepageTable@@QAE@XZ 00413c60 f i j_sock.obj
 0001:00012c60       ?Release@?$JArray@K@@QAEXXZ 00413c60 f i j_sock.obj
 0001:00012c60       ??1?$JArray@H@@QAE@XZ      00413c60 f i j_sock.obj
 0001:00012c60       ??1?$JPtrArray@PAVJWString@@@@QAE@XZ 00413c60 f i j_sock.obj
 0001:00012c60       ??1?$JArray@G@@QAE@XZ      00413c60 f i j_sock.obj
 0001:00012c60       ??1?$JPtrArray@PAE@@QAE@XZ 00413c60 f i j_sock.obj
 0001:00012c60       ?Release@?$JArray@G@@QAEXXZ 00413c60 f i j_sock.obj
 0001:00012c60       ??1?$JPtrArray@PAVSPSysFunc_AddFontResourceInfo@@@@QAE@XZ 00413c60 f i j_sock.obj
 0001:00012c60       ??1?$JArray@D@@QAE@XZ      00413c60 f i j_sock.obj
 0001:00012c60       ??1?$JArray@K@@QAE@XZ      00413c60 f i j_sock.obj
 0001:00012c60       ??1?$JPtrArray@PAVJSocketManagerSessionCache@@@@QAE@XZ 00413c60 f i j_sock.obj
 0001:00012c60       ??1?$JPtrArray@PAVSPInitOnce@@@@QAE@XZ 00413c60 f i j_sock.obj
 0001:00012c60       ??1SPSimpleEncode@@QAE@XZ  00413c60 f i j_sock.obj
 0001:00012c60       ??1?$JPtrArray@PAD@@QAE@XZ 00413c60 f i j_sock.obj
 0001:00012c60       ??1?$JPtrArray@PAVSPSysFuncEventCall@@@@QAE@XZ 00413c60 f i j_sock.obj
 0001:00012c60       ?Release@?$JArray@D@@QAEXXZ 00413c60 f i j_sock.obj
 0001:00012c90       ?SetNumNoPurge@?$JArray@D@@QAEXK_N@Z 00413c90 f i j_sock.obj
 0001:00012cf0       ?Add@?$JArray@PAX@@QAEAAPAXXZ 00413cf0 f i j_sock.obj
 0001:00012df0       ?Delete@?$JArray@PAX@@QAEXJJ@Z 00413df0 f i j_sock.obj
 0001:00012e80       ?Add@?$JArray@D@@QAEXPBDJ@Z 00413e80 f i j_sock.obj
 0001:00012fc0       ?IsEnable@JSockAddr@@SA_NW4JSockAddrProtocolType@@@Z 00413fc0 f   j_sockaddr.obj
 0001:00013040       ?SetAddr@JSockAddr@@QAEXW4JSockAddrPredefinedIP@@W4JSockAddrProtocolType@@@Z 00414040 f   j_sockaddr.obj
 0001:00013310       ?IsLoopbackOrIgnoreAddr@JSockAddr@@QBE_NXZ 00414310 f   j_sockaddr.obj
 0001:00013440       ?IsLowPriorityAddr@JSockAddr@@QBE_NXZ 00414440 f   j_sockaddr.obj
 0001:00013480       ?GetAddressFamily@JSockAddr@@QBEHXZ 00414480 f   j_sockaddr.obj
 0001:000134a0       ?IsIPv6@JSockAddr@@QBE_NXZ 004144a0 f   j_sockaddr.obj
 0001:000134b0       ?IsIPv4@JSockAddr@@QBE_NXZ 004144b0 f   j_sockaddr.obj
 0001:000134c0       ?ToIPv4@JSockAddr@@QBEXAAK@Z 004144c0 f   j_sockaddr.obj
 0001:000134f0       ?FromIPv4@JSockAddr@@QAEXK@Z 004144f0 f   j_sockaddr.obj
 0001:00013520       ?FromIPv4Raw@JSockAddr@@QAEXK@Z 00414520 f   j_sockaddr.obj
 0001:00013540       ?ToIPv6@JSockAddr@@QBEXPAG@Z 00414540 f   j_sockaddr.obj
 0001:000135a0       ?FromIPv6@JSockAddr@@QAEXPBG@Z 004145a0 f   j_sockaddr.obj
 0001:000135d0       ?ConvToIPv4@JSockAddr@@QAE_NXZ 004145d0 f   j_sockaddr.obj
 0001:00013620       ?ConvToIPv6@JSockAddr@@QAE_NXZ 00414620 f   j_sockaddr.obj
 0001:00013660       ?AfterClose@JSockAddr@@SAXAAUsockaddr_storage@@@Z 00414660 f   j_sockaddr.obj
 0001:000137a0       ?FromStorage@JSockAddr@@QAE_NPAUsockaddr@@AAH@Z 004147a0 f   j_sockaddr.obj
 0001:000138b0       ?ToStorage@JSockAddr@@QBE_NAAUsockaddr_storage@@HAAK@Z 004148b0 f   j_sockaddr.obj
 0001:000139f0       ??8JSockAddr@@QBE_NABV0@@Z 004149f0 f   j_sockaddr.obj
 0001:00013a60       ??4JSockAddr@@QAEAAV0@ABV0@@Z 00414a60 f   j_sockaddr.obj
 0001:00013a90       ?IPAddrToStrA@JSockAddr@@QBEPAD_N@Z 00414a90 f   j_sockaddr.obj
 0001:00013d10       _WspiapiLoad@4             00414d10 f i j_sockaddr.obj
 0001:00013ee0       _WspiapiLegacyFreeAddrInfo@4 00414ee0 f i j_sockaddr.obj
 0001:00013f30       _WspiapiLegacyGetAddrInfo@16 00414f30 f i j_sockaddr.obj
 0001:00014500       _WspiapiStrdup@4           00415500 f i j_sockaddr.obj
 0001:00014560       _WspiapiNewAddrInfo@16     00415560 f i j_sockaddr.obj
 0001:000145e0       _WspiapiLegacyGetNameInfo@28 004155e0 f i j_sockaddr.obj
 0001:00014800       ?IPAddrToStrW@JSockAddr@@QBEPAG_N@Z 00415800 f   j_sockaddr.obj
 0001:000149a0       ?GetAddrInfo@JSockAddr@@AAE_NPBDHPAV1@@Z 004159a0 f   j_sockaddr.obj
 0001:00014bd0       ?TranslateNumName@JSockAddr@@QAE_NPBDPAV1@W4JSockAddrConfigType@@@Z 00415bd0 f   j_sockaddr.obj
 0001:00014f80       ?ResolveName@JSockAddr@@QAE_NPBDPAV1@W4JSockAddrConfigType@@KP6A_NPAX@Z3@Z 00415f80 f   j_sockaddr.obj
 0001:00015890       ??0JSockAddrLocal@@QAE@XZ  00416890 f i j_sockaddr.obj
 0001:00015c60       ?FirstIPv4@JSockAddrLocal@@QAEABVJSockAddr@@XZ 00416c60 f   j_sockaddr.obj
 0001:00015cd0       ?FirstIPv6@JSockAddrLocal@@QAEABVJSockAddr@@XZ 00416cd0 f   j_sockaddr.obj
 0001:00015d40       ?FindLocalAddrInternal@JSockAddrLocal@@AAE_NABVJSockAddr@@@Z 00416d40 f   j_sockaddr.obj
 0001:00015d90       ?LocalAddrGet@JSockAddrLocal@@QAEXI@Z 00416d90 f   j_sockaddr.obj
 0001:00015f30       ?EnumLocalAddr@JSockAddrLocal@@QAEXXZ 00416f30 f   j_sockaddr.obj
 0001:00016000       ?GetLocalAddrIPv4@JSockAddr@@SAABV1@XZ 00417000 f   j_sockaddr.obj
 0001:00016010       ?GetLocalAddrIPv6@JSockAddr@@SAABV1@XZ 00417010 f   j_sockaddr.obj
 0001:00016020       ?ProcessAddrInfoResult@@YA_NAAVJSockAddr@@PAV1@PAUaddrinfoexW@@H@Z 00417020 f i j_sockaddr.obj
 0001:000161a0       ??0JTokenStream@@QAE@XZ    004171a0 f   j_stoken.obj
 0001:000161d0       ??1JTokenStream@@QAE@XZ    004171d0 f   j_stoken.obj
 0001:000161e0       ?ReadEOL@JTokenStream@@IAEIAAPAD@Z 004171e0 f   j_stoken.obj
 0001:00016280       ?SetSeparator@JTokenStream@@QAEXD@Z 00417280 f   j_stoken.obj
 0001:000162a0       ?Open@JTokenStream@@QAEHPBG@Z 004172a0 f   j_stoken.obj
 0001:000163d0       ?Open@JTokenStream@@QAEHKPAD@Z 004173d0 f   j_stoken.obj
 0001:00016440       ?Init@JTokenStream@@IAEXPAX@Z 00417440 f   j_stoken.obj
 0001:00016510       ?Close@JTokenStream@@QAEXXZ 00417510 f   j_stoken.obj
 0001:00016540       ?ReadToken@JTokenStream@@IAEPADH@Z 00417540 f   j_stoken.obj
 0001:00016580       ?NextToken@JTokenStream@@IAEHH@Z 00417580 f   j_stoken.obj
 0001:00016700       ?IsNextLineExist@JTokenStream@@QAE_NXZ 00417700 f   j_stoken.obj
 0001:00016720       ?NextLineIfNotLineEnd@JTokenStream@@QAEHXZ 00417720 f   j_stoken.obj
 0001:00016740       ?ProcessReturnPointer@JTokenStream@@IAEPADPAD@Z 00417740 f   j_stoken.obj
 0001:000167b0       ??1JString@@QAE@XZ         004177b0 f   j_str.obj
 0001:000167b0       ??1JWString@@QAE@XZ        004177b0 f   j_str.obj
 0001:000167e0       ??4JString@@QAEAAV0@PBD@Z  004177e0 f   j_str.obj
 0001:000168c0       ??4JString@@QAEAAV0@ABV0@@Z 004178c0 f   j_str.obj
 0001:00016a20       ?Cat@JString@@QAEXPBDK@Z   00417a20 f   j_str.obj
 0001:00016ae0       ?Remove@JString@@QAE_NPBD@Z 00417ae0 f   j_str.obj
 0001:00016be0       ?RemoveLast@JString@@QAEXJ@Z 00417be0 f   j_str.obj
 0001:00016cc0       ?Replace@JString@@QAEHPBD0@Z 00417cc0 f   j_str.obj
 0001:00016ec0       ?ReplaceCharList@JString@@QAEHPBDD@Z 00417ec0 f   j_str.obj
 0001:00016f10       ?FindList@JString@@QBEJPBDJKPAJ@Z 00417f10 f   j_str.obj
 0001:00016f80       ?Insert@JString@@QAEHKPBD@Z 00417f80 f   j_str.obj
 0001:00017100       ?ConvEUCKRtoISOKR@JString@@QAEHXZ 00418100 f   j_str.obj
 0001:00017510       ?ConvHZtoGB2312@JString@@QAEHXZ 00418510 f   j_str.obj
 0001:000175c0       ?ConvGB2312toHZ@JString@@QAEHXZ 004185c0 f   j_str.obj
 0001:00017930       ?ConvEUCtoSJIS@JString@@QAEHXZ 00418930 f   j_str.obj
 0001:00017a70       ?ConvSJIStoEUC@JString@@QAEHXZ 00418a70 f   j_str.obj
 0001:00017e60       ?ConvISOtoWindows@JString@@AAEHXZ 00418e60 f   j_str.obj
 0001:00017fc0       ?ConvSJIStoJIS@JString@@QAEHXZ 00418fc0 f   j_str.obj
 0001:00018420       ??0JString@@QAE@ABVJWString@@H@Z 00419420 f   j_str.obj
 0001:00018480       ??0JString@@QAE@PBGH@Z     00419480 f   j_str.obj
 0001:000184e0       ??4JString@@QAEAAV0@ABVJWStrASCII@@@Z 004194e0 f   j_str.obj
 0001:00018500       ?ToMbs@JString@@QAEKABVJWString@@PBD@Z 00419500 f   j_str.obj
 0001:00018520       ?ToMbs@JString@@QAEKABVJWString@@H@Z 00419520 f   j_str.obj
 0001:00018540       ?ToMbs@JString@@QAEKPBGPBD@Z 00419540 f   j_str.obj
 0001:00018680       ?ToMbs@JString@@QAEKPBGH@Z 00419680 f   j_str.obj
 0001:000188b0       ?ToMbsFunc@JString@@QAEKPBGH@Z 004198b0 f   j_str.obj
 0001:00018b70       ?ConvUnicodeToUTF8@JString@@QAEKPBG@Z 00419b70 f   j_str.obj
 0001:00018e20       ?Add@JString@@QAEXD@Z      00419e20 f i j_str.obj
 0001:00018f80       ?Last@?$JArray@D@@QAEAADXZ 00419f80 f i j_str.obj
 0001:00018fa0       ?Alloc@?$JArray@D@@QAE_NK@Z 00419fa0 f i j_str.obj
 0001:00019090       ?SwapBuffer@?$JArray@D@@QAEXAAV1@@Z 0041a090 f i j_str.obj
 0001:00019270       ?JGXCreateStreamObject@@YAPAVJStreamObject@@XZ 0041a270 f   j_stream.obj
 0001:000192d0       ??0JWinFile@@QAE@XZ        0041a2d0 f   j_winfile.obj
 0001:000193b0       ??1JStreamObject@@UAE@XZ   0041a3b0 f i j_winfile.obj
 0001:000193c0       ?Length@JStreamObject@@UAEKXZ 0041a3c0 f i j_winfile.obj
 0001:000193d0       ?Unlock@JStreamObject@@UAEHXZ 0041a3d0 f i j_winfile.obj
 0001:000193d0       ?Lock@JStreamObject@@UAEHXZ 0041a3d0 f i j_winfile.obj
 0001:000193e0       ??_EJStreamObject@@UAEPAXI@Z 0041a3e0 f i j_winfile.obj
 0001:000193e0       ??_GJStreamObject@@UAEPAXI@Z 0041a3e0 f i j_winfile.obj
 0001:00019410       ??_GJWinFile@@UAEPAXI@Z    0041a410 f i j_winfile.obj
 0001:00019410       ??_EJWinFile@@UAEPAXI@Z    0041a410 f i j_winfile.obj
 0001:00019440       ??1JWinFile@@UAE@XZ        0041a440 f   j_winfile.obj
 0001:000194a0       ?IsOpen@JWinFile@@UAE_NXZ  0041a4a0 f   j_winfile.obj
 0001:000194b0       ?OpenW@JWinFile@@UAEHPBGH@Z 0041a4b0 f   j_winfile.obj
 0001:00019570       ?Close@JWinFile@@UAEXXZ    0041a570 f   j_winfile.obj
 0001:000195a0       ?Reopen@JWinFile@@UAEHXZ   0041a5a0 f   j_winfile.obj
 0001:000195c0       ?Read@JWinFile@@UAEEXZ     0041a5c0 f   j_winfile.obj
 0001:00019600       ?Read@JWinFile@@UAEKPAXK@Z 0041a600 f   j_winfile.obj
 0001:00019630       ?Write@JWinFile@@UAEKE@Z   0041a630 f   j_winfile.obj
 0001:00019670       ?Write@JWinFile@@UAEKPBXK@Z 0041a670 f   j_winfile.obj
 0001:000196b0       ?Seek@JWinFile@@UAEHJH@Z   0041a6b0 f   j_winfile.obj
 0001:00019710       ?Flush@JWinFile@@UAEXXZ    0041a710 f   j_winfile.obj
 0001:00019730       ?Eof@JWinFile@@UAEXXZ      0041a730 f   j_winfile.obj
 0001:00019750       ?Size@JWinFile@@UAEKXZ     0041a750 f   j_winfile.obj
 0001:00019760       ?TranslateDispatchMessage@JWinThread@@SAHAAUtagMSG@@@Z 0041a760 f   j_wintrd.obj
 0001:000197c0       ?InitEssentialRuntime@JWinThread@@SAX_N@Z 0041a7c0 f   j_wintrd.obj
 0001:00019830       ?ProcessLastMessages@JWinThread@@SAXXZ 0041a830 f   j_wintrd.obj
 0001:00019890       ?UninitEssentialRuntime@JWinThread@@SAX_N00@Z 0041a890 f   j_wintrd.obj
 0001:000198d0       ?InitLocale@JWinThread@@SAXXZ 0041a8d0 f   j_wintrd.obj
 0001:00019920       ?JGXGetCodePageTable@@YAPBHXZ 0041a920 f   j_wstr.obj
 0001:00019960       ??0JGXCodepageTable@@QAE@XZ 0041a960 f i j_wstr.obj
 0001:00019b10       ??4JWString@@QAEAAV0@PBG@Z 0041ab10 f   j_wstr.obj
 0001:00019bf0       ??4JWString@@QAEAAV0@ABV0@@Z 0041abf0 f   j_wstr.obj
 0001:00019d60       ?Cat@JWString@@QAEXPBGK@Z  0041ad60 f   j_wstr.obj
 0001:00019e20       ?Remove@JWString@@QAE_NPBG@Z 0041ae20 f   j_wstr.obj
 0001:00019f30       ?RemoveLast@JWString@@QAEXJ@Z 0041af30 f   j_wstr.obj
 0001:0001a010       ?Remove@JWString@@QAE_NJJ@Z 0041b010 f   j_wstr.obj
 0001:0001a0b0       ?Replace@JWString@@QAEHPBG0J@Z 0041b0b0 f   j_wstr.obj
 0001:0001a2d0       ?Replace@JWString@@QAEHGG@Z 0041b2d0 f   j_wstr.obj
 0001:0001a310       ?ReplaceCharList@JWString@@QAEHPBGG@Z 0041b310 f   j_wstr.obj
 0001:0001a370       ?ReplacePathChar@JWString@@QAEHG@Z 0041b370 f   j_wstr.obj
 0001:0001a3f0       ?Find@JWString@@QBEJPBGJ@Z 0041b3f0 f   j_wstr.obj
 0001:0001a430       ?FindList@JWString@@QBEJPBGJKPAJ@Z 0041b430 f   j_wstr.obj
 0001:0001a4b0       ?ReverseFindList@JWString@@QBEJPBGJK@Z 0041b4b0 f   j_wstr.obj
 0001:0001a520       ?ExtractRight@JWString@@QBE?AV1@K@Z 0041b520 f   j_wstr.obj
 0001:0001a590       ?ExtractLeft@JWString@@QBE?AV1@K@Z 0041b590 f   j_wstr.obj
 0001:0001a730       ??YJWString@@QAEAAV0@ABVJStrASCII@@@Z 0041b730 f   j_wstr.obj
 0001:0001a8c0       ?ConvUTF8ToUnicode@JWString@@AAEKPBD@Z 0041b8c0 f   j_wstr.obj
 0001:0001ab80       ?NormalizeMSUnicode@JWString@@QAEXXZ 0041bb80 f   j_wstr.obj
 0001:0001abf0       ?CleanupProblematicUnicode@JWString@@QAEXXZ 0041bbf0 f   j_wstr.obj
 0001:0001ac50       ?GetDefaultCodePage@JWString@@SAHXZ 0041bc50 f   j_wstr.obj
 0001:0001ac60       ?GetLocaleDefaultCodePage@JWString@@SAHXZ 0041bc60 f   j_wstr.obj
 0001:0001ac70       ?GetCodePage@JWString@@SAHPBD_N@Z 0041bc70 f   j_wstr.obj
 0001:0001add0       ?GetCodePageText@JWString@@SAPBDH@Z 0041bdd0 f   j_wstr.obj
 0001:0001ae00       ?ToUnicode@JWString@@QAEKPBD0@Z 0041be00 f   j_wstr.obj
 0001:0001af50       ?ToUnicode@JWString@@QAEKPBDH@Z 0041bf50 f   j_wstr.obj
 0001:0001b250       ?ToUnicodeFunc@JWString@@AAEKPBDH@Z 0041c250 f   j_wstr.obj
 0001:0001b530       ?SetNum@?$JArray@H@@QAEXK@Z 0041c530 f i j_wstr.obj
 0001:0001b530       ?SetNum@?$JArray@PAX@@QAEXK@Z 0041c530 f i j_wstr.obj
 0001:0001b580       ?JGXMakeSystemPath@@YAPBGPBG@Z 0041c580 f   jgxbase.obj
 0001:0001b630       ?JGXAddErrorString@@YAXJAAVJWString@@@Z 0041c630 f   jgxbase.obj
 0001:0001b6d0       ?JGXGetTempPath@@YAXAAVJWString@@@Z 0041c6d0 f   jgxbase.obj
 0001:0001b7a0       ?JGXInterlockedCompareExchange@@YAJPCJJJ@Z 0041c7a0 f   jgxbase.obj
 0001:0001b7c0       ?JGXInterlockedExchangeAdd2@@YAJPCJJ@Z 0041c7c0 f   jgxbase.obj
 0001:0001b7e0       ?JGXGetFileSize@@YA_KPAX@Z 0041c7e0 f   jgxbase.obj
 0001:0001b820       ?JGXGetFileSize@@YA_KPBG@Z 0041c820 f   jgxbase.obj
 0001:0001b850       ?slen_impl@@YAIPBD@Z       0041c850 f   libc_custom.obj
 0001:0001b860       ?wlen_impl@@YAIPBG@Z       0041c860 f   libc_custom.obj
 0001:0001b870       ?atol_impl@@YAJPBD@Z       0041c870 f   libc_custom.obj
 0001:0001b8c0       ?atoul_impl@@YAKPBD@Z      0041c8c0 f   libc_custom.obj
 0001:0001b910       ?wtol_impl@@YAJPBG@Z       0041c910 f   libc_custom.obj
 0001:0001b970       ?strtoll_impl@@YA_JPBDPAPADH@Z 0041c970 f   libc_custom.obj
 0001:0001bb60       ?strtoull_impl@@YA_KPBDPAPADH@Z 0041cb60 f   libc_custom.obj
 0001:0001bd60       ?ltowcs@@YAPBGJ@Z          0041cd60 f   libc_custom.obj
 0001:0001bd90       ?stricmp_custom@@YAHPBD0@Z 0041cd90 f   libc_custom.obj
 0001:0001be10       ?wcsicmp_custom@@YAHPBG0@Z 0041ce10 f   libc_custom.obj
 0001:0001beb0       ?strnicmp_custom@@YAHPBD0I@Z 0041ceb0 f   libc_custom.obj
 0001:0001bf50       ?wcsnicmp_custom@@YAHPBG0I@Z 0041cf50 f   libc_custom.obj
 0001:0001c010       ?stricmp_opt@@YAHPBD0@Z    0041d010 f   libc_custom.obj
 0001:0001c090       ?wcsicmp_opt@@YAHPBG0@Z    0041d090 f   libc_custom.obj
 0001:0001c120       ?strnicmp_opt@@YAHPBD0I@Z  0041d120 f   libc_custom.obj
 0001:0001c1b0       ?wcsnicmp_opt@@YAHPBG0I@Z  0041d1b0 f   libc_custom.obj
 0001:0001c260       ?strstri_custom@@YAPADPBD0@Z 0041d260 f   libc_custom.obj
 0001:0001c330       ?wcsstri_custom@@YAPAGPBG0@Z 0041d330 f   libc_custom.obj
 0001:0001c460       ?strstri_opt@@YAPADPBD0@Z  0041d460 f   libc_custom.obj
 0001:0001c520       ?wcsstri_opt@@YAPAGPBG0@Z  0041d520 f   libc_custom.obj
 0001:0001c630       ?strchr_list@@YAPADPADPBD@Z 0041d630 f   libc_custom.obj
 0001:0001c650       ?strchr_list@@YAPBDPBD0@Z  0041d650 f   libc_custom.obj
 0001:0001c6a0       ?strrchr_list@@YAPADPADPBD@Z 0041d6a0 f   libc_custom.obj
 0001:0001c6c0       ?strrchr_list@@YAPBDPBD0@Z 0041d6c0 f   libc_custom.obj
 0001:0001c700       ?wcsrchr_list@@YAPBGPBG0@Z 0041d700 f   libc_custom.obj
 0001:0001c740       ?wcsrchr_path@@YAPAGPAG@Z  0041d740 f   libc_custom.obj
 0001:0001c760       ?wcsrchr_path@@YAPBGPBG@Z  0041d760 f   libc_custom.obj
 0001:0001c780       ?mbsrchr_path@@YAPADPAD@Z  0041d780 f   libc_custom.obj
 0001:0001c7a0       ?mbsrchr_path@@YAPBDPBD@Z  0041d7a0 f   libc_custom.obj
 0001:0001c7d0       ?strlcat@@YAIPADPBDI@Z     0041d7d0 f   libc_custom.obj
 0001:0001c850       ?wcslcat@@YAIPAGPBGI@Z     0041d850 f   libc_custom.obj
 0001:0001c8e0       ?strlcpy@@YAIPADPBDI@Z     0041d8e0 f   libc_custom.obj
 0001:0001c940       ?wcslcpy@@YAIPAGPBGI@Z     0041d940 f   libc_custom.obj
 0001:0001c9b0       ??0CProgress@@QAE@PAVCWnd@@@Z 0041d9b0 f   Progress.obj
 0001:0001c9e0       ??_GCProgress@@UAEPAXI@Z   0041d9e0 f i Progress.obj
 0001:0001c9e0       ??_ECProgress@@UAEPAXI@Z   0041d9e0 f i Progress.obj
 0001:0001ca10       ??1CProgress@@UAE@XZ       0041da10 f i Progress.obj
 0001:0001ca20       ?GetMessageMap@CProgress@@MBEPBUAFX_MSGMAP@@XZ 0041da20 f   Progress.obj
 0001:0001ca30       ?CreateMe@CProgress@@QAEXXZ 0041da30 f   Progress.obj
 0001:0001cb00       ?CreateMeAsUninstall@CProgress@@QAEXXZ 0041db00 f   Progress.obj
 0001:0001cb50       ?SetUninstallDir@CProgress@@QAEXPBG@Z 0041db50 f   Progress.obj
 0001:0001cc50       _sp_resetstkoflw           0041dc50 f   resetstk.obj
 0001:0001cdd0       ??0SPAdjustPriv@@QAE@PBGH@Z 0041ddd0 f   sp_adjustpriv.obj
 0001:0001ced0       ??1SPAdjustPriv@@QAE@XZ    0041ded0 f   sp_adjustpriv.obj
 0001:0001d050       ??0SPNTPrivSystem@@AAE@XZ  0041e050 f   sp_adjustpriv.obj
 0001:0001d070       ??_ESPNTPrivSystem@@UAEPAXI@Z 0041e070 f i sp_adjustpriv.obj
 0001:0001d070       ??_GSPNTPrivSystem@@UAEPAXI@Z 0041e070 f i sp_adjustpriv.obj
 0001:0001d0a0       ??1SPNTPrivSystem@@UAE@XZ  0041e0a0 f   sp_adjustpriv.obj
 0001:0001d0b0       ?GetSPNTPrivSystem@@YAAAVSPNTPrivSystem@@XZ 0041e0b0 f   sp_adjustpriv.obj
 0001:0001d140       ?SetPriv@SPNTPrivSystem@@QAE_NPBGH@Z 0041e140 f   sp_adjustpriv.obj
 0001:0001d200       ?IsUAC@SPNTPrivSystem@@QAE_NXZ 0041e200 f   sp_adjustpriv.obj
 0001:0001d2b0       ?IsElevated@SPNTPrivSystem@@QAE_NXZ 0041e2b0 f   sp_adjustpriv.obj
 0001:0001d310       ?GetSPCharsetDetect@@YAAAVSPCharsetDetect@@XZ 0041e310 f   sp_charsetdetect.obj
 0001:0001d3a0       ??0SPCharsetDetect@@AAE@XZ 0041e3a0 f   sp_charsetdetect.obj
 0001:0001d440       ??_GSPCharsetDetect@@UAEPAXI@Z 0041e440 f i sp_charsetdetect.obj
 0001:0001d440       ??_ESPCharsetDetect@@UAEPAXI@Z 0041e440 f i sp_charsetdetect.obj
 0001:0001d470       ??1SPCharsetDetect@@UAE@XZ 0041e470 f   sp_charsetdetect.obj
 0001:0001d4f0       ?DetectInputCodepageAPI@SPCharsetDetect@@QAEHPBDJPBH@Z 0041e4f0 f   sp_charsetdetect.obj
 0001:0001d5c0       ?DetectCodePage@SPCharsetDetect@@QAEHAAVJTokenStream@@_N@Z 0041e5c0 f   sp_charsetdetect.obj
 0001:0001d5e0       ?DetectCodePage@SPCharsetDetect@@QAEHPBD_N@Z 0041e5e0 f   sp_charsetdetect.obj
 0001:0001db70       __purecall                 0041eb70 f   sp_debugger.obj
 0001:0001db80       ?GetEip@@YAKXZ             0041eb80 f   sp_debugger.obj
 0001:0001db90       ?trace_and_exit@@YAXXZ     0041eb90 f   sp_debugger.obj
 0001:0001dc30       ?sig_trace_and_exit@@YAXH@Z 0041ec30 f   sp_debugger.obj
 0001:0001dca0       ?SPSEDefaultFilter@@YGJPAU_EXCEPTION_POINTERS@@@Z 0041eca0 f   sp_debugger.obj
 0001:0001ed70       ?SPGetExceptionReasonTextA@@YAPADK@Z 0041fd70 f   sp_debugger.obj
 0001:0001f130       ??1SPVersionInfo@@QAE@XZ   00420130 f i sp_debugger.obj
 0001:0001f4a0       ?SPCalcCodeStartPos@@YAPAXPAXAAHPAPAXPAKK@Z 004204a0 f   sp_debugger.obj
 0001:0001f990       ?GetSPDefaultCharset@@YAPAVSPDefaultCharset@@XZ 00420990 f   sp_defaultcharset.obj
 0001:0001fa20       ??0SPDefaultCharset@@AAE@XZ 00420a20 f   sp_defaultcharset.obj
 0001:0001fa50       ??_GSPDefaultCharset@@UAEPAXI@Z 00420a50 f i sp_defaultcharset.obj
 0001:0001fa50       ??_ESPDefaultCharset@@UAEPAXI@Z 00420a50 f i sp_defaultcharset.obj
 0001:0001fa80       ??1SPDefaultCharset@@UAE@XZ 00420a80 f i sp_defaultcharset.obj
 0001:0001fa90       ?GetFile@SPDefaultCharset@@QAEH_N@Z 00420a90 f   sp_defaultcharset.obj
 0001:0001fab0       ?GetSPDigest@@YAAAVSPDigest@@W4SPDigest_Type@@@Z 00420ab0 f   sp_digest.obj
 0001:0001fb60       ??0SPDigestImpl@@QAE@W4SPDigest_Type@@@Z 00420b60 f i sp_digest.obj
 0001:0001fbb0       ?Update@SPDigestImpl@@UAEXPBD@Z 00420bb0 f i sp_digest.obj
 0001:0001fbe0       ?Update@SPDigestImpl@@UAEXPBXK@Z 00420be0 f i sp_digest.obj
 0001:0001fc40       ?GetDigest@SPDigestImpl@@UAEPBEXZ 00420c40 f i sp_digest.obj
 0001:0001fe60       ?GetDigestStr@SPDigestImpl@@UAEPBDXZ 00420e60 f i sp_digest.obj
 0001:0001fe70       ?GetDigestBase64Str@SPDigestImpl@@UAEPBDXZ 00420e70 f i sp_digest.obj
 0001:0001fe80       ?GetDigestLength@SPDigestImpl@@UAE?BKXZ 00420e80 f i sp_digest.obj
 0001:0001fe90       ??_GSPDigestImpl@@UAEPAXI@Z 00420e90 f i sp_digest.obj
 0001:0001fe90       ??_ESPDigestImpl@@UAEPAXI@Z 00420e90 f i sp_digest.obj
 0001:0001fec0       ??1SPDigestImpl@@UAE@XZ    00420ec0 f i sp_digest.obj
 0001:0001ff00       ??_GSPDigest@@UAEPAXI@Z    00420f00 f i sp_digest.obj
 0001:0001ff00       ??_ESPDigest@@UAEPAXI@Z    00420f00 f i sp_digest.obj
 0001:0001ff50       ?GetBase64StrDigest@SPDigest@@SAXW4SPDigest_Type@@PADPBDI@Z 00420f50 f   sp_digest.obj
 0001:0001ffa0       ?Create@SPDlgTemplate@@QAEXAAV?$JArray@G@@@Z 00420fa0 f   sp_dlgtemplate.obj
 0001:00020180       ?CreateGlobalMem@SPDlgTemplate@@QAEPAXXZ 00421180 f   sp_dlgtemplate.obj
 0001:00020240       ?Read@SPDlgTemplate@@QAEXPAXK@Z 00421240 f   sp_dlgtemplate.obj
 0001:00020290       ?ReadDialog@SPDlgTemplate@@QAEXI@Z 00421290 f   sp_dlgtemplate.obj
 0001:00020300       ?ReadTmpl@SPDlgTemplate@@AAEXPBGK@Z 00421300 f   sp_dlgtemplate.obj
 0001:000207e0       ?ReadTmplEx@SPDlgTemplate@@AAEXPBGK@Z 004217e0 f   sp_dlgtemplate.obj
 0001:00020c30       ?Clear@SPDlgTemplate@@QAEXXZ 00421c30 f   sp_dlgtemplate.obj
 0001:00020e60       ??1SPDlgTemplateItem@@QAE@XZ 00421e60 f i sp_dlgtemplate.obj
 0001:00020ee0       ?SetShellFont@SPDlgTemplate@@QAEXXZ 00421ee0 f   sp_dlgtemplate.obj
 0001:00020fa0       ?AdjustWidth@SPDlgTemplate@@QAEXHH@Z 00421fa0 f   sp_dlgtemplate.obj
 0001:00021030       ?SPDLT_ClassTextToID@@YAGPBG@Z 00422030 f   sp_dlgtemplate.obj
 0001:000210d0       ?WriteToArray@SPDlgTemplate@@AAEXAAV?$JArray@G@@@Z 004220d0 f   sp_dlgtemplate.obj
 0001:00021540       ?ReadTmpl@SPDlgTemplateItem@@AAEPBGPBGK@Z 00422540 f   sp_dlgtemplate.obj
 0001:00021830       ?ReadTmplEx@SPDlgTemplateItem@@AAEPBGPBGK@Z 00422830 f   sp_dlgtemplate.obj
 0001:00021b20       ?WriteToArray@SPDlgTemplateItem@@AAEXAAV?$JArray@G@@@Z 00422b20 f   sp_dlgtemplate.obj
 0001:00021e80       ?Clear@SPDlgTemplateItem@@QAEXXZ 00422e80 f   sp_dlgtemplate.obj
 0001:00021fa0       ?SetResourceID@SPDlgTemplateItem@@QAEXG@Z 00422fa0 f   sp_dlgtemplate.obj
 0001:00021fe0       ?Realloc@?$JArray@PAX@@QAE_NK@Z 00422fe0 f i sp_dlgtemplate.obj
 0001:00021fe0       ?Realloc@?$JArray@K@@QAE_NK@Z 00422fe0 f i sp_dlgtemplate.obj
 0001:000220c0       ?Add@?$JArray@G@@QAEXPBGJ@Z 004230c0 f i sp_dlgtemplate.obj
 0001:00022210       ?Release@SPEventObject@@QAEXXZ 00423210 f   sp_eventobj.obj
 0001:00022230       ?Create@SPEventObject@@QAE_N_N0@Z 00423230 f   sp_eventobj.obj
 0001:000222c0       ?IsInit@SPEventObject@@QAE_NXZ 004232c0 f   sp_eventobj.obj
 0001:000222e0       ?Activate@SPEventObject@@QAEXXZ 004232e0 f   sp_eventobj.obj
 0001:00022300       ?DeActivate@SPEventObject@@QAEXXZ 00423300 f   sp_eventobj.obj
 0001:00022320       ??0SPFindFileW@@QAE@XZ     00423320 f   sp_findfile.obj
 0001:00022400       ?Close@SPFindFileW@@QAEXXZ 00423400 f   sp_findfile.obj
 0001:00022450       ??1?$CRegexpT@G@@QAE@XZ    00423450 f i sp_findfile.obj
 0001:000225b0       ?First@SPFindFileW@@QAE_NPBG0@Z 004235b0 f   sp_findfile.obj
 0001:00022880       ??1?$MatchResultT@$0A@@@QAE@XZ 00423880 f i sp_findfile.obj
 0001:00022880       ??1?$CBufferT@H@@UAE@XZ    00423880 f i sp_findfile.obj
 0001:00022880       ??1?$CSortedBufferT@H@@UAE@XZ 00423880 f i sp_findfile.obj
 0001:000228b0       ?Next@SPFindFileW@@QAE_NXZ 004238b0 f   sp_findfile.obj
 0001:000229a0       ?NextInternal@SPFindFileW@@AAE_NXZ 004239a0 f   sp_findfile.obj
 0001:00022a20       ??1?$CBufferT@PAVElxInterface@@@@UAE@XZ 00423a20 f i sp_findfile.obj
 0001:00022a50       ??1?$CBufferT@PAV?$CListElxT@$0A@@@@@UAE@XZ 00423a50 f i sp_findfile.obj
 0001:00022a80       ??1?$CBufferT@PAV?$CDelegateElxT@G@@@@UAE@XZ 00423a80 f i sp_findfile.obj
 0001:00022ab0       ??1?$CBufferT@PAV?$CBackrefElxT@G@@@@UAE@XZ 00423ab0 f i sp_findfile.obj
 0001:00022ae0       ??1?$CBufferT@PAV?$CConditionElxT@G@@@@UAE@XZ 00423ae0 f i sp_findfile.obj
 0001:00022b10       ??1?$CBufferRefT@G@@UAE@XZ 00423b10 f i sp_findfile.obj
 0001:00022b20       ??1?$CBuilderT@G@@QAE@XZ   00423b20 f i sp_findfile.obj
 0001:00022c80       ?Match@?$CRegexpT@G@@QBE?AV?$MatchResultT@$0A@@@PBGHPAVCContext@@@Z 00423c80 f i sp_findfile.obj
 0001:00022cf0       ??_E?$CBufferRefT@H@@UAEPAXI@Z 00423cf0 f i sp_findfile.obj
 0001:00022cf0       ??_G?$CBufferRefT@H@@UAEPAXI@Z 00423cf0 f i sp_findfile.obj
 0001:00022d20       ??_G?$CBufferRefT@PAVElxInterface@@@@UAEPAXI@Z 00423d20 f i sp_findfile.obj
 0001:00022d20       ??_E?$CBufferRefT@PAVElxInterface@@@@UAEPAXI@Z 00423d20 f i sp_findfile.obj
 0001:00022d50       ??_G?$CBufferT@PAVElxInterface@@@@UAEPAXI@Z 00423d50 f i sp_findfile.obj
 0001:00022d50       ??_E?$CBufferT@PAVElxInterface@@@@UAEPAXI@Z 00423d50 f i sp_findfile.obj
 0001:00022d80       ??_E?$CBufferRefT@PAV?$CListElxT@$0A@@@@@UAEPAXI@Z 00423d80 f i sp_findfile.obj
 0001:00022d80       ??_G?$CBufferRefT@PAV?$CListElxT@$0A@@@@@UAEPAXI@Z 00423d80 f i sp_findfile.obj
 0001:00022db0       ??_G?$CBufferT@PAV?$CListElxT@$0A@@@@@UAEPAXI@Z 00423db0 f i sp_findfile.obj
 0001:00022db0       ??_E?$CBufferT@PAV?$CListElxT@$0A@@@@@UAEPAXI@Z 00423db0 f i sp_findfile.obj
 0001:00022de0       ??_G?$CBufferRefT@PAV?$CDelegateElxT@G@@@@UAEPAXI@Z 00423de0 f i sp_findfile.obj
 0001:00022de0       ??_E?$CBufferRefT@PAV?$CDelegateElxT@G@@@@UAEPAXI@Z 00423de0 f i sp_findfile.obj
 0001:00022e10       ??_E?$CBufferT@PAV?$CDelegateElxT@G@@@@UAEPAXI@Z 00423e10 f i sp_findfile.obj
 0001:00022e10       ??_G?$CBufferT@PAV?$CDelegateElxT@G@@@@UAEPAXI@Z 00423e10 f i sp_findfile.obj
 0001:00022e40       ??_G?$CBufferRefT@PAV?$CBackrefElxT@G@@@@UAEPAXI@Z 00423e40 f i sp_findfile.obj
 0001:00022e40       ??_E?$CBufferRefT@PAV?$CBackrefElxT@G@@@@UAEPAXI@Z 00423e40 f i sp_findfile.obj
 0001:00022e70       ??_G?$CBufferT@PAV?$CBackrefElxT@G@@@@UAEPAXI@Z 00423e70 f i sp_findfile.obj
 0001:00022e70       ??_E?$CBufferT@PAV?$CBackrefElxT@G@@@@UAEPAXI@Z 00423e70 f i sp_findfile.obj
 0001:00022ea0       ??_E?$CBufferRefT@PAV?$CConditionElxT@G@@@@UAEPAXI@Z 00423ea0 f i sp_findfile.obj
 0001:00022ea0       ??_G?$CBufferRefT@PAV?$CConditionElxT@G@@@@UAEPAXI@Z 00423ea0 f i sp_findfile.obj
 0001:00022ed0       ??_G?$CBufferT@PAV?$CConditionElxT@G@@@@UAEPAXI@Z 00423ed0 f i sp_findfile.obj
 0001:00022ed0       ??_E?$CBufferT@PAV?$CConditionElxT@G@@@@UAEPAXI@Z 00423ed0 f i sp_findfile.obj
 0001:00022f00       ??_E?$CBufferRefT@G@@UAEPAXI@Z 00423f00 f i sp_findfile.obj
 0001:00022f00       ??_G?$CBufferRefT@G@@UAEPAXI@Z 00423f00 f i sp_findfile.obj
 0001:00022f30       ??0?$CBuilderT@G@@QAE@XZ   00423f30 f i sp_findfile.obj
 0001:00023070       ?Clear@?$CBuilderT@D@@QAEXXZ 00424070 f i sp_findfile.obj
 0001:00023070       ?Clear@?$CBuilderT@G@@QAEXXZ 00424070 f i sp_findfile.obj
 0001:00023100       ?Compile@?$CRegexpT@G@@QAEXPBGHH@Z 00424100 f i sp_findfile.obj
 0001:000231f0       ?Match@?$CRegexpT@G@@QBE?AV?$MatchResultT@$0A@@@PBGHHPAVCContext@@@Z 004241f0 f i sp_findfile.obj
 0001:00023370       ??0CContext@@QAE@XZ        00424370 f i sp_findfile.obj
 0001:000233a0       ??1CContext@@QAE@XZ        004243a0 f i sp_findfile.obj
 0001:00023400       ??0CHART_INFO@?$CBuilderT@G@@QAE@GHHH@Z 00424400 f i sp_findfile.obj
 0001:00023430       ?Build@?$CBuilderT@G@@QAEPAVElxInterface@@ABV?$CBufferRefT@G@@H@Z 00424430 f i sp_findfile.obj
 0001:00023ae0       ?Match@?$CRegexpT@G@@QBE?AV?$MatchResultT@$0A@@@PAVCContext@@@Z 00424ae0 f i sp_findfile.obj
 0001:00023db0       ??0?$MatchResultT@$0A@@@QAE@PAVCContext@@H@Z 00424db0 f i sp_findfile.obj
 0001:00023ed0       ??0?$CBufferT@H@@QAE@XZ    00424ed0 f i sp_findfile.obj
 0001:00023ef0       ?SetMaxLength@?$CBufferT@PAVElxInterface@@@@QAEXH@Z 00424ef0 f i sp_findfile.obj
 0001:00023f50       ?BuildAlternative@?$CBuilderT@G@@IAEPAVElxInterface@@H@Z 00424f50 f i sp_findfile.obj
 0001:000242d0       ??1?$CGreedyElxT@$0A@@@UAE@XZ 004252d0 f i sp_findfile.obj
 0001:000242d0       ??1?$CBoundaryElxT@G@@UAE@XZ 004252d0 f i sp_findfile.obj
 0001:000242d0       ??1?$CGlobalElxT@$0A@@@UAE@XZ 004252d0 f i sp_findfile.obj
 0001:000242d0       ??1?$CBoundaryElxT@D@@UAE@XZ 004252d0 f i sp_findfile.obj
 0001:000242d0       ??1?$CAssertElxT@$0A@@@UAE@XZ 004252d0 f i sp_findfile.obj
 0001:000242d0       ??1?$CEmptyElxT@$0A@@@UAE@XZ 004252d0 f i sp_findfile.obj
 0001:000242d0       ??1?$CPossessiveElxT@$0A@@@UAE@XZ 004252d0 f i sp_findfile.obj
 0001:000242d0       ??1?$CIndependentElxT@$0A@@@UAE@XZ 004252d0 f i sp_findfile.obj
 0001:000242d0       ??1?$CPosixElxT@G@@UAE@XZ  004252d0 f i sp_findfile.obj
 0001:000242d0       ??1?$CRepeatElxT@$0A@@@UAE@XZ 004252d0 f i sp_findfile.obj
 0001:000242d0       ??1?$CReluctantElxT@$0A@@@UAE@XZ 004252d0 f i sp_findfile.obj
 0001:000242d0       ??1?$CPosixElxT@D@@UAE@XZ  004252d0 f i sp_findfile.obj
 0001:000242d0       ??1ElxInterface@@UAE@XZ    004252d0 f i sp_findfile.obj
 0001:000242e0       ??_GElxInterface@@UAEPAXI@Z 004252e0 f i sp_findfile.obj
 0001:000242e0       ??_EElxInterface@@UAEPAXI@Z 004252e0 f i sp_findfile.obj
 0001:00024310       ??0?$CBufferT@PAVElxInterface@@@@QAE@XZ 00425310 f i sp_findfile.obj
 0001:00024330       ??0?$CBufferRefT@PAV?$CListElxT@$0A@@@@@QAE@PBQAV?$CListElxT@$0A@@@H@Z 00425330 f i sp_findfile.obj
 0001:00024350       ??0?$CBufferRefT@PAV?$CConditionElxT@G@@@@QAE@PBQAV?$CConditionElxT@G@@H@Z 00425350 f i sp_findfile.obj
 0001:00024370       ??0?$CBufferRefT@H@@QAE@PBHH@Z 00425370 f i sp_findfile.obj
 0001:00024390       ??8CHART_INFO@?$CBuilderT@G@@QBEHABU01@@Z 00425390 f i sp_findfile.obj
 0001:000243c0       ?GetNext2@?$CBuilderT@G@@IAEHXZ 004253c0 f i sp_findfile.obj
 0001:00024ee0       ?BuildList@?$CBuilderT@G@@IAEPAVElxInterface@@AAH@Z 00425ee0 f i sp_findfile.obj
 0001:00025120       ?Match@?$CListElxT@$0A@@@UBEHPAVCContext@@@Z 00426120 f i sp_findfile.obj
 0001:000251d0       ?MatchNext@?$CListElxT@$0A@@@UBEHPAVCContext@@@Z 004261d0 f i sp_findfile.obj
 0001:000252a0       ?GetStockElx@?$CBuilderT@G@@IAEPAVElxInterface@@H@Z 004262a0 f i sp_findfile.obj
 0001:00026080       ??1?$CBufferT@G@@UAE@XZ    00427080 f i sp_findfile.obj
 0001:000260b0       ??_G?$CBufferT@G@@UAEPAXI@Z 004270b0 f i sp_findfile.obj
 0001:000260b0       ??_E?$CBufferT@G@@UAEPAXI@Z 004270b0 f i sp_findfile.obj
 0001:000260e0       ?nCompareNoCase@?$CBufferRefT@G@@QBEHPBG@Z 004270e0 f i sp_findfile.obj
 0001:00026160       ?Match@?$CAlternativeElxT@$0A@@@UBEHPAVCContext@@@Z 00427160 f i sp_findfile.obj
 0001:00026200       ?MatchNext@?$CAlternativeElxT@$0A@@@UBEHPAVCContext@@@Z 00427200 f i sp_findfile.obj
 0001:000262d0       ?BuildRepeat@?$CBuilderT@G@@IAEPAVElxInterface@@AAH@Z 004272d0 f i sp_findfile.obj
 0001:00026c30       ?MoveNext@?$CBuilderT@G@@IAEXXZ 00427c30 f i sp_findfile.obj
 0001:00026cb0       ??1?$CBufferT@D@@UAE@XZ    00427cb0 f i sp_findfile.obj
 0001:00026ce0       ??_E?$CBufferRefT@D@@UAEPAXI@Z 00427ce0 f i sp_findfile.obj
 0001:00026ce0       ??_G?$CBufferRefT@D@@UAEPAXI@Z 00427ce0 f i sp_findfile.obj
 0001:00026d10       ??_G?$CBufferT@D@@UAEPAXI@Z 00427d10 f i sp_findfile.obj
 0001:00026d10       ??_E?$CBufferT@D@@UAEPAXI@Z 00427d10 f i sp_findfile.obj
 0001:00026d40       ??0?$CListElxT@$0A@@@QAE@H@Z 00427d40 f i sp_findfile.obj
 0001:00026d70       ?Match@?$CEmptyElxT@$0A@@@UBEHPAVCContext@@@Z 00427d70 f i sp_findfile.obj
 0001:00026d80       ?Match@?$CRangeElxT@G@@UBEHPAVCContext@@@Z 00427d80 f i sp_findfile.obj
 0001:00026e70       ??0?$CRangeElxT@G@@QAE@HH@Z 00427e70 f i sp_findfile.obj
 0001:00026ec0       ?Push@?$CBufferT@G@@QAEXG@Z 00427ec0 f i sp_findfile.obj
 0001:00026f10       ??_G?$CListElxT@$0A@@@UAEPAXI@Z 00427f10 f i sp_findfile.obj
 0001:00026f10       ??_E?$CAlternativeElxT@$0A@@@UAEPAXI@Z 00427f10 f i sp_findfile.obj
 0001:00026f10       ??_G?$CAlternativeElxT@$0A@@@UAEPAXI@Z 00427f10 f i sp_findfile.obj
 0001:00026f10       ??_E?$CListElxT@$0A@@@UAEPAXI@Z 00427f10 f i sp_findfile.obj
 0001:00026f40       ??_G?$CRangeElxT@G@@UAEPAXI@Z 00427f40 f i sp_findfile.obj
 0001:00026f40       ??_E?$CRangeElxT@G@@UAEPAXI@Z 00427f40 f i sp_findfile.obj
 0001:00026f70       ??1?$CAlternativeElxT@$0A@@@UAE@XZ 00427f70 f i sp_findfile.obj
 0001:00026f70       ??1?$CListElxT@$0A@@@UAE@XZ 00427f70 f i sp_findfile.obj
 0001:00026fa0       ??1?$CRangeElxT@G@@UAE@XZ  00427fa0 f i sp_findfile.obj
 0001:00027010       ??0?$CRepeatElxT@$0A@@@QAE@PAVElxInterface@@H@Z 00428010 f i sp_findfile.obj
 0001:00027030       ?Match@?$CRepeatElxT@$0A@@@UBEHPAVCContext@@@Z 00428030 f i sp_findfile.obj
 0001:00027090       ?MatchNext@?$CRepeatElxT@$0A@@@UBEHPAVCContext@@@Z 00428090 f i sp_findfile.obj
 0001:00027110       ??0?$CReluctantElxT@$0A@@@QAE@PAVElxInterface@@HH@Z 00428110 f i sp_findfile.obj
 0001:00027140       ?Match@?$CReluctantElxT@$0A@@@UBEHPAVCContext@@@Z 00428140 f i sp_findfile.obj
 0001:000271f0       ?MatchNext@?$CReluctantElxT@$0A@@@UBEHPAVCContext@@@Z 004281f0 f i sp_findfile.obj
 0001:000273c0       ?Pop@?$CBufferT@H@@QAEHAAH@Z 004283c0 f i sp_findfile.obj
 0001:000273f0       ??0?$CGreedyElxT@$0A@@@QAE@PAVElxInterface@@HH@Z 004283f0 f i sp_findfile.obj
 0001:00027420       ?Match@?$CGreedyElxT@$0A@@@UBEHPAVCContext@@@Z 00428420 f i sp_findfile.obj
 0001:00027560       ??0CContextShot@@QAE@PAVCContext@@@Z 00428560 f i sp_findfile.obj
 0001:00027580       ?Restore@CContextShot@@QAEXPAVCContext@@@Z 00428580 f i sp_findfile.obj
 0001:00027640       ?MatchNext@?$CGreedyElxT@$0A@@@UBEHPAVCContext@@@Z 00428640 f i sp_findfile.obj
 0001:000277b0       ??0?$CPossessiveElxT@$0A@@@QAE@PAVElxInterface@@HH@Z 004287b0 f i sp_findfile.obj
 0001:000277e0       ?Match@?$CPossessiveElxT@$0A@@@UBEHPAVCContext@@@Z 004287e0 f i sp_findfile.obj
 0001:000279a0       ??0?$CBufferT@G@@QAE@XZ    004289a0 f i sp_findfile.obj
 0001:000279c0       ?BuildCharset@?$CBuilderT@G@@IAEPAVElxInterface@@AAH@Z 004289c0 f i sp_findfile.obj
 0001:000289e0       __isblank                  004299e0 f i sp_findfile.obj
 0001:00028a00       ??0?$CEmptyElxT@$0A@@@QAE@XZ 00429a00 f i sp_findfile.obj
 0001:00028a10       ?BuildRecursive@?$CBuilderT@G@@IAEPAVElxInterface@@AAH@Z 00429a10 f i sp_findfile.obj
 0001:0002a9a0       ?Prepare@?$CBufferT@PAVElxInterface@@@@QAEXHH@Z 0042b9a0 f i sp_findfile.obj
 0001:0002aa40       ?MatchNext@?$CBracketElxT@G@@UBEHPAVCContext@@@Z 0042ba40 f i sp_findfile.obj
 0001:0002aa40       ?MatchNext@?$CBracketElxT@D@@UBEHPAVCContext@@@Z 0042ba40 f i sp_findfile.obj
 0001:0002ab60       ??0?$CAlternativeElxT@$0A@@@QAE@XZ 0042bb60 f i sp_findfile.obj
 0001:0002ab80       ??A?$CBufferRefT@G@@QBEGH@Z 0042bb80 f i sp_findfile.obj
 0001:0002aba0       ?ReadDec@?$CBuilderT@G@@KAHAAPADAAI@Z 0042bba0 f i sp_findfile.obj
 0001:0002ac50       ??0?$CBufferT@D@@QAE@XZ    0042bc50 f i sp_findfile.obj
 0001:0002ac70       ?BuildBoundary@?$CBuilderT@G@@IAEPAVElxInterface@@AAH@Z 0042bc70 f i sp_findfile.obj
 0001:0002af60       ?BuildBackref@?$CBuilderT@G@@IAEPAVElxInterface@@AAH@Z 0042bf60 f i sp_findfile.obj
 0001:0002b490       ?Match@?$CBackrefElxT@G@@UBEHPAVCContext@@@Z 0042c490 f i sp_findfile.obj
 0001:0002b7a0       ?MatchNext@?$CBackrefElxT@G@@UBEHPAVCContext@@@Z 0042c7a0 f i sp_findfile.obj
 0001:0002b7d0       ??0?$CStringElxT@G@@QAE@PBGHHH@Z 0042c7d0 f i sp_findfile.obj
 0001:0002b850       ?Match@?$CStringElxT@G@@UBEHPAVCContext@@@Z 0042c850 f i sp_findfile.obj
 0001:0002ba60       ?MatchNext@?$CStringElxT@G@@UBEHPAVCContext@@@Z 0042ca60 f i sp_findfile.obj
 0001:0002ba90       ?Append@?$CBufferT@D@@QAEXPBDHH@Z 0042ca90 f i sp_findfile.obj
 0001:0002bb30       ??0?$CBufferRefT@D@@QAE@PBDH@Z 0042cb30 f i sp_findfile.obj
 0001:0002bb50       ?MatchNextVart@?$CGreedyElxT@$0A@@@IBEHPAVCContext@@@Z 0042cb50 f i sp_findfile.obj
 0001:0002be90       ??_G?$CStringElxT@G@@UAEPAXI@Z 0042ce90 f i sp_findfile.obj
 0001:0002be90       ??_E?$CStringElxT@G@@UAEPAXI@Z 0042ce90 f i sp_findfile.obj
 0001:0002bec0       ??1?$CStringElxT@G@@UAE@XZ 0042cec0 f i sp_findfile.obj
 0001:0002bef0       ?Match@?$CPosixElxT@G@@UBEHPAVCContext@@@Z 0042cef0 f i sp_findfile.obj
 0001:0002bf80       ?IsContainChar@?$CRangeElxT@G@@QBEHG@Z 0042cf80 f i sp_findfile.obj
 0001:0002bfe0       ?Append@?$CBufferT@G@@QAEXPBGHH@Z 0042cfe0 f i sp_findfile.obj
 0001:0002c080       ?Match@?$CAssertElxT@$0A@@@UBEHPAVCContext@@@Z 0042d080 f i sp_findfile.obj
 0001:0002c1c0       ?MatchNext@?$CAssertElxT@$0A@@@UBEHPAVCContext@@@Z 0042d1c0 f i sp_findfile.obj
 0001:0002c230       ??0?$CBracketElxT@G@@QAE@HH@Z 0042d230 f i sp_findfile.obj
 0001:0002c280       ?Match@?$CIndependentElxT@$0A@@@UBEHPAVCContext@@@Z 0042d280 f i sp_findfile.obj
 0001:0002c390       ?MatchNext@?$CIndependentElxT@$0A@@@UBEHPAVCContext@@@Z 0042d390 f i sp_findfile.obj
 0001:0002c390       ?MatchNext@?$CPossessiveElxT@$0A@@@UBEHPAVCContext@@@Z 0042d390 f i sp_findfile.obj
 0001:0002c420       ??0?$CDelegateElxT@G@@QAE@H@Z 0042d420 f i sp_findfile.obj
 0001:0002c450       ?Match@?$CBoundaryElxT@G@@UBEHPAVCContext@@@Z 0042d450 f i sp_findfile.obj
 0001:0002c700       ?Match@?$CGlobalElxT@$0A@@@UBEHPAVCContext@@@Z 0042d700 f i sp_findfile.obj
 0001:0002c720       ??0?$CBackrefElxT@G@@QAE@HHH@Z 0042d720 f i sp_findfile.obj
 0001:0002c760       ?Push@?$CBufferT@H@@QAEXABV?$CBufferRefT@H@@@Z 0042d760 f i sp_findfile.obj
 0001:0002c830       ?FindAs@?$CSortedBufferT@H@@QAEHABHP6AHPBX1@Z@Z 0042d830 f i sp_findfile.obj
 0001:0002c870       ??_E?$CBracketElxT@G@@UAEPAXI@Z 0042d870 f i sp_findfile.obj
 0001:0002c870       ??_G?$CBracketElxT@G@@UAEPAXI@Z 0042d870 f i sp_findfile.obj
 0001:0002c8a0       ??_E?$CDelegateElxT@G@@UAEPAXI@Z 0042d8a0 f i sp_findfile.obj
 0001:0002c8a0       ??_G?$CDelegateElxT@G@@UAEPAXI@Z 0042d8a0 f i sp_findfile.obj
 0001:0002c8d0       ??_G?$CConditionElxT@G@@UAEPAXI@Z 0042d8d0 f i sp_findfile.obj
 0001:0002c8d0       ??_E?$CConditionElxT@G@@UAEPAXI@Z 0042d8d0 f i sp_findfile.obj
 0001:0002c900       ??_G?$CGreedyElxT@$0A@@@UAEPAXI@Z 0042d900 f i sp_findfile.obj
 0001:0002c900       ??_E?$CPosixElxT@G@@UAEPAXI@Z 0042d900 f i sp_findfile.obj
 0001:0002c900       ??_G?$CBoundaryElxT@D@@UAEPAXI@Z 0042d900 f i sp_findfile.obj
 0001:0002c900       ??_G?$CPossessiveElxT@$0A@@@UAEPAXI@Z 0042d900 f i sp_findfile.obj
 0001:0002c900       ??_G?$CPosixElxT@D@@UAEPAXI@Z 0042d900 f i sp_findfile.obj
 0001:0002c900       ??_E?$CEmptyElxT@$0A@@@UAEPAXI@Z 0042d900 f i sp_findfile.obj
 0001:0002c900       ??_G?$CEmptyElxT@$0A@@@UAEPAXI@Z 0042d900 f i sp_findfile.obj
 0001:0002c900       ??_G?$CBoundaryElxT@G@@UAEPAXI@Z 0042d900 f i sp_findfile.obj
 0001:0002c900       ??_G?$CRepeatElxT@$0A@@@UAEPAXI@Z 0042d900 f i sp_findfile.obj
 0001:0002c900       ??_E?$CReluctantElxT@$0A@@@UAEPAXI@Z 0042d900 f i sp_findfile.obj
 0001:0002c900       ??_G?$CGlobalElxT@$0A@@@UAEPAXI@Z 0042d900 f i sp_findfile.obj
 0001:0002c900       ??_E?$CRepeatElxT@$0A@@@UAEPAXI@Z 0042d900 f i sp_findfile.obj
 0001:0002c900       ??_E?$CPossessiveElxT@$0A@@@UAEPAXI@Z 0042d900 f i sp_findfile.obj
 0001:0002c900       ??_E?$CAssertElxT@$0A@@@UAEPAXI@Z 0042d900 f i sp_findfile.obj
 0001:0002c900       ??_E?$CGlobalElxT@$0A@@@UAEPAXI@Z 0042d900 f i sp_findfile.obj
 0001:0002c900       ??_E?$CGreedyElxT@$0A@@@UAEPAXI@Z 0042d900 f i sp_findfile.obj
 0001:0002c900       ??_G?$CReluctantElxT@$0A@@@UAEPAXI@Z 0042d900 f i sp_findfile.obj
 0001:0002c900       ??_E?$CPosixElxT@D@@UAEPAXI@Z 0042d900 f i sp_findfile.obj
 0001:0002c900       ??_E?$CIndependentElxT@$0A@@@UAEPAXI@Z 0042d900 f i sp_findfile.obj
 0001:0002c900       ??_E?$CBoundaryElxT@G@@UAEPAXI@Z 0042d900 f i sp_findfile.obj
 0001:0002c900       ??_G?$CAssertElxT@$0A@@@UAEPAXI@Z 0042d900 f i sp_findfile.obj
 0001:0002c900       ??_G?$CIndependentElxT@$0A@@@UAEPAXI@Z 0042d900 f i sp_findfile.obj
 0001:0002c900       ??_G?$CPosixElxT@G@@UAEPAXI@Z 0042d900 f i sp_findfile.obj
 0001:0002c900       ??_E?$CBoundaryElxT@D@@UAEPAXI@Z 0042d900 f i sp_findfile.obj
 0001:0002c930       ??_G?$CBackrefElxT@G@@UAEPAXI@Z 0042d930 f i sp_findfile.obj
 0001:0002c930       ??_E?$CBackrefElxT@G@@UAEPAXI@Z 0042d930 f i sp_findfile.obj
 0001:0002c960       ??_E?$CBufferT@H@@UAEPAXI@Z 0042d960 f i sp_findfile.obj
 0001:0002c960       ??_G?$CSortedBufferT@H@@UAEPAXI@Z 0042d960 f i sp_findfile.obj
 0001:0002c960       ??_E?$CSortedBufferT@H@@UAEPAXI@Z 0042d960 f i sp_findfile.obj
 0001:0002c960       ??_G?$CBufferT@H@@UAEPAXI@Z 0042d960 f i sp_findfile.obj
 0001:0002c990       ??1?$CBracketElxT@G@@UAE@XZ 0042d990 f i sp_findfile.obj
 0001:0002c9e0       ??1?$CDelegateElxT@G@@UAE@XZ 0042d9e0 f i sp_findfile.obj
 0001:0002ca10       ??1?$CConditionElxT@G@@UAE@XZ 0042da10 f i sp_findfile.obj
 0001:0002ca40       ??1?$CBackrefElxT@G@@UAE@XZ 0042da40 f i sp_findfile.obj
 0001:0002ca70       ?Insert@?$CBufferT@H@@QAEXHPBHH@Z 0042da70 f i sp_findfile.obj
 0001:0002cb20       ?compareT@?$CSortedBufferT@H@@KAHPBX0@Z 0042db20 f i sp_findfile.obj
 0001:0002cb50       ?Append@?$CBufferT@H@@QAEXPBHHH@Z 0042db50 f i sp_findfile.obj
 0001:0002ccb0       ?GetSPHighDPI@@YAAAVSPHighDPI@@XZ 0042dcb0 f   sp_highdpi.obj
 0001:0002cd40       ??0SPHighDPI@@QAE@XZ       0042dd40 f   sp_highdpi.obj
 0001:0002ce20       ??_GSPHighDPI@@UAEPAXI@Z   0042de20 f i sp_highdpi.obj
 0001:0002ce20       ??_ESPHighDPI@@UAEPAXI@Z   0042de20 f i sp_highdpi.obj
 0001:0002ce50       ??1SPHighDPI@@UAE@XZ       0042de50 f   sp_highdpi.obj
 0001:0002ce60       ?GetDPIPrimaryMonitor@SPHighDPI@@QAEIXZ 0042de60 f   sp_highdpi.obj
 0001:0002ce80       ?GetDPIMonitor@SPHighDPI@@QAEIPAUHMONITOR__@@@Z 0042de80 f   sp_highdpi.obj
 0001:0002ced0       ?GetDPISystem@SPHighDPI@@QAEIXZ 0042ded0 f   sp_highdpi.obj
 0001:0002cef0       ?SystemParametersInfoW@SPHighDPI@@QAEHIIPAXII@Z 0042def0 f   sp_highdpi.obj
 0001:0002cf40       ?SetHighDPIAware@SPHighDPI@@QAE_N_N@Z 0042df40 f   sp_highdpi.obj
 0001:0002cfe0       ?Release@SPHttpKeyValuePair@@QAEXXZ 0042dfe0 f   sp_http.obj
 0001:0002d100       ??1SPHttpKeyValuePairValue@@QAE@XZ 0042e100 f i sp_http.obj
 0001:0002d110       ?Add@SPHttpKeyValuePair@@QAEAAVJString@@PBD@Z 0042e110 f   sp_http.obj
 0001:0002d330       ?Lock@SPHttpKeyValuePair@@QAEXPBD@Z 0042e330 f   sp_http.obj
 0001:0002d460       ?IsLock@SPHttpKeyValuePair@@QAE_NPBD@Z 0042e460 f   sp_http.obj
 0001:0002d590       ?Set@SPHttpKeyValuePair@@QAEXPBD_N@Z 0042e590 f   sp_http.obj
 0001:0002d6b0       ?SetArray@SPHttpKeyValuePair@@QAEXAAV?$JPtrArray@PAD@@_N@Z 0042e6b0 f   sp_http.obj
 0001:0002d6f0       ?Get@SPHttpKeyValuePair@@QAEPBDPBD@Z 0042e6f0 f   sp_http.obj
 0001:0002d820       ?DumpH1@SPHttpKeyValuePair@@QAEXAAVJString@@@Z 0042e820 f   sp_http.obj
 0001:0002d980       ?DumpB1@SPHttpKeyValuePair@@QAEXAAVJString@@@Z 0042e980 f   sp_http.obj
 0001:0002dad0       ??0SPHttp@@QAE@XZ          0042ead0 f   sp_http.obj
 0001:0002df50       ??1SPHttp@@QAE@XZ          0042ef50 f   sp_http.obj
 0001:0002e140       ?SetConnectionAuth@SPHttp@@QAEXPBD0@Z 0042f140 f   sp_http.obj
 0001:0002e190       ?Connect@SPHttp@@QAEHPBD@Z 0042f190 f   sp_http.obj
 0001:0002e330       ?ConnectInternal@SPHttp@@QAEHPBD@Z 0042f330 f   sp_http.obj
 0001:0002e5e0       ?Reconnect@SPHttp@@AAEHXZ  0042f5e0 f   sp_http.obj
 0001:0002e6f0       ?ErrorTextStatic@SPHttp@@SAPBGH@Z 0042f6f0 f   sp_http.obj
 0001:0002e7b0       ?ErrorText@SPHttp@@QAEPBGH@Z 0042f7b0 f   sp_http.obj
 0001:0002e7f0       ?Close@SPHttp@@QAEXH@Z     0042f7f0 f   sp_http.obj
 0001:0002e8f0       ?CloseInternal@SPHttp@@QAEXH@Z 0042f8f0 f   sp_http.obj
 0001:0002e970       ?IsSocketError@SPHttp@@AAEHXZ 0042f970 f   sp_http.obj
 0001:0002e9f0       ?RetryConnect@SPHttp@@AAEHPBGPBD10W4SPHttp_Method@@K1@Z 0042f9f0 f   sp_http.obj
 0001:0002ead0       ?ReadSimple@SPHttp@@QAEHPBG0PBD0W4SPHttp_Method@@K1@Z 0042fad0 f   sp_http.obj
 0001:0002ece0       ?Read@SPHttp@@QAEHPBGPBD10W4SPHttp_Method@@K1@Z 0042fce0 f   sp_http.obj
 0001:0002eda0       ?WriteLog@SPHttp@@QAEXAAVJWString@@_N@Z 0042fda0 f   sp_http.obj
 0001:0002ee10       ?WriteLog@SPHttp@@AAEXH@Z  0042fe10 f   sp_http.obj
 0001:0002f180       ?RealReadCreateStreamFilter@SPHttp@@AAEPAVSPStreamFilter@@AAVSPHttpKeyValuePair@@@Z 00430180 f   sp_http.obj
 0001:0002f490       ?SPHttp_IsRequestBodyExist@@YA_NW4SPHttp_Method@@@Z 00430490 f   sp_http.obj
 0001:0002f4b0       ?RealRead@SPHttp@@AAEHPBGPBD10W4SPHttp_Method@@K1@Z 004304b0 f   sp_http.obj
 0001:00032500       ??1SPHttpKeyValuePair@@QAE@XZ 00433500 f i sp_http.obj
 0001:000330e0       ?RealReadHeader@SPHttp@@AAE_NAAVSPHttpKeyValuePair@@@Z 004340e0 f   sp_http.obj
 0001:00033140       ?RealReadContent@SPHttp@@AAEHPAVSPStreamFilter@@PBGPAVJStream@@_NK@Z 00434140 f   sp_http.obj
 0001:000335a0       ?CallNotifyProc@SPHttp@@AAEH_NPAVJStream@@@Z 004345a0 f   sp_http.obj
 0001:00033690       ?ExecAuth@SPHttp@@AAEHPBGAAVSPHttpKeyValuePair@@K@Z 00434690 f   sp_http.obj
 0001:00033870       ?MakeConnectionAuth@SPHttp@@AAEHPAD0@Z 00434870 f   sp_http.obj
 0001:00033a20       ?Redirect@SPHttp@@AAEHPBGAAVSPHttpKeyValuePair@@K@Z 00434a20 f   sp_http.obj
 0001:00033e00       ?LastHost@SPHttp@@QBEXAAVJString@@H@Z 00434e00 f   sp_http.obj
 0001:00033fa0       ?LastFullUrl@SPHttp@@QBEXAAVJWString@@_N11@Z 00434fa0 f   sp_http.obj
 0001:00034150       ?LastFullUrl@SPHttp@@QBEXAAVJString@@_N11@Z 00435150 f   sp_http.obj
 0001:00034300       ?GetProtocolScheme@SPHttp@@SAPADW4SPHttp_Type@@@Z 00435300 f   sp_http.obj
 0001:00034360       ?GetDefaultPort@SPHttp@@QBEHXZ 00435360 f   sp_http.obj
 0001:00034380       ?FileProtocolHandler@SPHttp@@AAEHPBGPBD@Z 00435380 f   sp_http.obj
 0001:000345e0       ?DataProtocolHandler@SPHttp@@AAEHPBGPBD@Z 004355e0 f   sp_http.obj
 0001:000348f0       ?MakeWebSocketKey@SPHttp@@CAXAAVJString@@@Z 004358f0 f   sp_http.obj
 0001:00034940       ?VerifyWebSocketAccept@SPHttp@@CA_NPBD0@Z 00435940 f   sp_http.obj
 0001:00034ab0       ?Release@?$JHash@D@@QAEXXZ 00435ab0 f i sp_http.obj
 0001:00034ab0       ??1?$JHash@D@@QAE@XZ       00435ab0 f i sp_http.obj
 0001:00034b40       ??0?$JArray@PAX@@QAE@K@Z   00435b40 f i sp_http.obj
 0001:00034b40       ??0?$JArray@K@@QAE@K@Z     00435b40 f i sp_http.obj
 0001:00034be0       ??1?$JHashData@D@@QAE@XZ   00435be0 f i sp_http.obj
 0001:00034c20       ?Get@?$JHashData@D@@QAEPAXPBDH@Z 00435c20 f i sp_http.obj
 0001:00034cd0       ?Set@?$JHashData@D@@QAEXPBDPAXH@Z 00435cd0 f i sp_http.obj
 0001:00034e30       ?DoAll@?$JHashData@D@@QAE_NP6A_NPADPAX1@Z1@Z 00435e30 f i sp_http.obj
 0001:00034e90       ?GetIndex@?$JHashData@D@@AAEHPBDH@Z 00435e90 f i sp_http.obj
 0001:00034f50       ??0SPInitOnceImpl@@QAE@XZ  00435f50 f i sp_initonce.obj
 0001:00034fc0       ??1SPInitOnceImpl@@QAE@XZ  00435fc0 f i sp_initonce.obj
 0001:00035030       ??0SPInitOnce@@QAE@XZ      00436030 f   sp_initonce.obj
 0001:000351d0       ??_ESPInitOnce@@UAEPAXI@Z  004361d0 f i sp_initonce.obj
 0001:000351d0       ??_GSPInitOnce@@UAEPAXI@Z  004361d0 f i sp_initonce.obj
 0001:00035200       ??1SPInitOnce@@UAE@XZ      00436200 f   sp_initonce.obj
 0001:000352f0       ??0SPInitOnceLock@@QAE@XZ  004362f0 f   sp_initonce.obj
 0001:00035310       ??1SPInitOnceLock@@QAE@XZ  00436310 f   sp_initonce.obj
 0001:00035320       ?DeleteAll@SPInitOnceImpl@@QAEXXZ 00436320 f   sp_initonce.obj
 0001:000353b0       ??0SPKeiArchiver@@QAE@XZ   004363b0 f   sp_kei.obj
 0001:000353e0       ?Extract@SPKeiArchiver@@QAEHPBG00H0@Z 004363e0 f   sp_kei.obj
 0001:00035470       ?JZIPCheckArchiveHeader@SPKeiArchiver@@AAEPBGPBD@Z 00436470 f   sp_kei.obj
 0001:00035500       ?JZIPIsSelfUnpack@SPKeiArchiver@@AAEPBGPBGPAK@Z 00436500 f   sp_kei.obj
 0001:00035730       ?JZIPExtract@SPKeiArchiver@@AAEHPBG00H0@Z 00436730 f   sp_kei.obj
 0001:00035870       ?JZIPExtractReal@SPKeiArchiver@@AAEHPBG00H0I@Z 00436870 f   sp_kei.obj
 0001:00035d10       ??1SPFindFileW@@QAE@XZ     00436d10 f i sp_kei.obj
 0001:00035d60       ?Unpack@SPKeiArchiver@@AAEHPBG00H0@Z 00436d60 f   sp_kei.obj
 0001:00035fd0       ?ZipUnpack@SPKeiArchiver@@AAEHPBG00H0K@Z 00436fd0 f   sp_kei.obj
 0001:00036090       ?ZipUnpackReal@SPKeiArchiver@@AAEHAAVCUnzipper@@PBG11H1KPAPBDAAH@Z 00437090 f   sp_kei.obj
 0001:00036500       ??0JDynLoad@@QAE@PBG@Z     00437500 f i sp_kei.obj
 0001:00036610       ?LhaUnpackCallback@SPKeiArchiver@@AAEHPAX@Z 00437610 f   sp_kei.obj
 0001:000366b0       ?LhaUnpack@SPKeiArchiver@@AAEHPBG00H@Z 004376b0 f   sp_kei.obj
 0001:00036920       ?CabExtractCallback@SPKeiArchiver@@AAEIPAXIII@Z 00437920 f   sp_kei.obj
 0001:00036cf0       ?CabInfoCallback@SPKeiArchiver@@AAEIPAXIII@Z 00437cf0 f   sp_kei.obj
 0001:00036d30       ?CabUnpack@SPKeiArchiver@@AAEHPBG00H@Z 00437d30 f   sp_kei.obj
 0001:00036e30       ?ExeUnpack@SPKeiArchiver@@AAEHPBG00H0@Z 00437e30 f   sp_kei.obj
 0001:000371e0       ?CanExtractExtension@SPKeiArchiver@@QAEHPBG@Z 004381e0 f   sp_kei.obj
 0001:00037230       ?GetArchiveExtension@SPKeiArchiver@@AAEXPBGAAVJWString@@@Z 00438230 f   sp_kei.obj
 0001:00037420       ?CallbackProgress@SPKeiArchiver@@AAEHHH@Z 00438420 f   sp_kei.obj
 0001:00037480       ?CallbackFilter@SPKeiArchiver@@AAEHPBGH@Z 00438480 f   sp_kei.obj
 0001:000374b0       ?SPM_Dummy_load@@YAHPAXJ@Z 004384b0 f   sp_module.obj
 0001:000374d0       ?SPM_Dummy_request@@YAPAXPAXPAJ@Z 004384d0 f   sp_module.obj
 0001:000374f0       ??_ESPModuleEvent@@UAEPAXI@Z 004384f0 f i sp_module.obj
 0001:000374f0       ??_GSPModuleEvent@@UAEPAXI@Z 004384f0 f i sp_module.obj
 0001:00037520       ??0SPModule@@QAE@XZ        00438520 f   sp_module.obj
 0001:00037930       ??0JWString@@QAE@PBG@Z     00438930 f i sp_module.obj
 0001:00037980       ??1SPVarSystemNode@@UAE@XZ 00438980 f i sp_module.obj
 0001:00037990       ??_ESPVarSystemNode@@UAEPAXI@Z 00438990 f i sp_module.obj
 0001:00037990       ??_GSPVarSystemNode@@UAEPAXI@Z 00438990 f i sp_module.obj
 0001:000379c0       ??1SPProp@@MAE@XZ          004389c0 f i sp_module.obj
 0001:00037ad0       ?GetType@SPProp@@UAE?BW4SPTypeList@@XZ 00438ad0 f i sp_module.obj
 0001:00037ae0       ?GetID@SPProp@@UAEPBGXZ    00438ae0 f i sp_module.obj
 0001:00037af0       ??_GSPProp@@MAEPAXI@Z      00438af0 f i sp_module.obj
 0001:00037af0       ??_ESPProp@@MAEPAXI@Z      00438af0 f i sp_module.obj
 0001:00037b20       ??0SPParamManager@@QAE@XZ  00438b20 f i sp_module.obj
 0001:00037c90       ??1SPStaticStringArrayW@@QAE@XZ 00438c90 f i sp_module.obj
 0001:00037d40       ??1SPStaticStringArrayA@@QAE@XZ 00438d40 f i sp_module.obj
 0001:00037df0       ??1SPParamManager@@QAE@XZ  00438df0 f i sp_module.obj
 0001:00038090       ??1JMutex@@UAE@XZ          00439090 f i sp_module.obj
 0001:000380e0       ??_GJMutex@@UAEPAXI@Z      004390e0 f i sp_module.obj
 0001:000380e0       ??_EJMutex@@UAEPAXI@Z      004390e0 f i sp_module.obj
 0001:00038110       ?GetLogEnable@SPModule@@UAE_NXZ 00439110 f i sp_module.obj
 0001:00038120       ?Lock@SPModule@@UAE_NJ@Z   00439120 f i sp_module.obj
 0001:00038140       ?Unlock@SPModule@@UAEXXZ   00439140 f i sp_module.obj
 0001:00038150       ??_ESPModule@@UAEPAXI@Z    00439150 f i sp_module.obj
 0001:00038150       ??_GSPModule@@UAEPAXI@Z    00439150 f i sp_module.obj
 0001:00038180       ??1SPModule@@UAE@XZ        00439180 f   sp_module.obj
 0001:000384f0       ?Release@SPModule@@UAEXXZ  004394f0 f   sp_module.obj
 0001:00038500       ?SPLoadLibrary@SPModule@@SAPAUHINSTANCE__@@PBG@Z 00439500 f   sp_module.obj
 0001:00038520       ?LoadLib@SPModule@@QAE_NPBG@Z 00439520 f   sp_module.obj
 0001:00038aa0       ?UnloadLib@SPModule@@QAE_NXZ 00439aa0 f   sp_module.obj
 0001:00038c20       ?CheckReentrant@SPModule@@AAE_NPBG@Z 00439c20 f   sp_module.obj
 0001:00038c60       ?ExecLoadSEHReal@SPModule@@AAEHP6AHPAXJ@Z0J@Z 00439c60 f   sp_module.obj
 0001:00038da0       ?ExecLoadSEH@SPModule@@QAEH_NPAXJ@Z 00439da0 f   sp_module.obj
 0001:00039060       ?ExecUnloadSEHReal@SPModule@@AAEHP6AHXZ@Z 0043a060 f   sp_module.obj
 0001:00039190       ?ExecUnloadSEH@SPModule@@QAEHP6AHXZ@Z 0043a190 f   sp_module.obj
 0001:00039340       ?ExecRequestSEHReal@SPModule@@AAEPAXP6APAXPAXPAJ@Z01@Z 0043a340 f   sp_module.obj
 0001:00039470       ?ExecRequestSEH@SPModule@@QAEPAXP6APAXPAXPAJ@Z01@Z 0043a470 f   sp_module.obj
 0001:00039710       ?ExecGetSEH@SPModule@@QAEPAGP6APAXPAJ@Z@Z 0043a710 f   sp_module.obj
 0001:00039870       ?CallRequestAndLog@SPModule@@QAEPAXAAVJString@@AAJ@Z 0043a870 f   sp_module.obj
 0001:000399b0       ?SetLogEnable@SPModule@@UAEX_N0@Z 0043a9b0 f   sp_module.obj
 0001:000399f0       ?WriteLog@SPModule@@QAEXPADPAXHK@Z 0043a9f0 f   sp_module.obj
 0001:00039a00       ?CallGetVersionAndLoad2@SPModule@@IAE?AVSPModuleGetVersionResult@@XZ 0043aa00 f   sp_module.obj
 0001:00039c90       ?GetGenericProcAddress@SPModule@@IAEXXZ 0043ac90 f   sp_module.obj
 0001:00039d40       ?SetPath@SPModule@@UAEXPBG@Z 0043ad40 f   sp_module.obj
 0001:00039e60       ?ToString@SPModule@@QAEPAGPAXJ@Z 0043ae60 f   sp_module.obj
 0001:00039f40       ?ToHandleASub@SPModule@@IAEPAXPBDAAJ@Z 0043af40 f   sp_module.obj
 0001:0003a060       ?ToHandleA@SPModule@@QAEPAXABVJString@@AAJ@Z 0043b060 f   sp_module.obj
 0001:0003a080       ?GetLoadPath@SPModule@@QAEPAXAAJ@Z 0043b080 f   sp_module.obj
 0001:0003a1c0       ?GetLoadPathU@SPModule@@QAEPAXAAJ@Z 0043b1c0 f   sp_module.obj
 0001:0003a300       ?GMFree@SPModule@@SAXPAX@Z 0043b300 f   sp_module.obj
 0001:0003a370       ?GMSize@SPModule@@SAJPAXJ@Z 0043b370 f   sp_module.obj
 0001:0003a400       ?GetProcAddressModule@SPModule@@QAEPAXPAD@Z 0043b400 f   sp_module.obj
 0001:0003a440       ?GetVersionRequest@SPModule@@IAEXXZ 0043b440 f   sp_module.obj
 0001:0003a460       ?ParseCharset@SPModule@@QAEXXZ 0043b460 f   sp_module.obj
 0001:0003a520       ?SetDefaultCharset@SPModule@@QAEXPBD@Z 0043b520 f   sp_module.obj
 0001:0003a560       ?GetCharsetConv@SPModule@@QAEPBDXZ 0043b560 f   sp_module.obj
 0001:0003a5b0       ?GetCharsetSafeW@SPModule@@QAEPBGXZ 0043b5b0 f   sp_module.obj
 0001:0003a5d0       ?GetResponseCharsetSafe@SPModule@@QAEPBDXZ 0043b5d0 f   sp_module.obj
 0001:0003a600       ?MakeLastReference@SPModule@@IAEPAGPAPAGK0K@Z 0043b600 f   sp_module.obj
 0001:0003a7b0       ?SendRecvPipeSSPEXT@SPModule@@AAE_NPBD0AAVJString@@@Z 0043b7b0 f   sp_module.obj
 0001:0003ab30       ?SendRecvPipeSHIOLINK@SPModule@@AAE_NPBD0AAVJString@@@Z 0043bb30 f   sp_module.obj
 0001:0003af60       ?SendRecvPipe@SPModule@@IAE_NPBD0AAVJString@@@Z 0043bf60 f   sp_module.obj
 0001:0003afa0       ??0?$JPtrArray@PAG@@QAE@J@Z 0043bfa0 f i sp_module.obj
 0001:0003b090       ??0?$JPtrArray@PAD@@QAE@J@Z 0043c090 f i sp_module.obj
 0001:0003b180       ??_ESPModule@@W3AEPAXI@Z   0043c180 f i sp_module.obj
 0001:0003b190       ??_ESPModule@@WGOE@AEPAXI@Z 0043c190 f i sp_module.obj
 0001:0003b1a0       ??_ESPProp@@O3AEPAXI@Z     0043c1a0 f i sp_module.obj
 0001:0003b1b0       ?SetReqResGMEM@SPParamManager@@AAE_N_NPAXK0@Z 0043c1b0 f   sp_param.obj
 0001:0003b4d0       ?SetResponseGMEM@SPParamManager@@QAE_NPAXK_N@Z 0043c4d0 f   sp_param.obj
 0001:0003b4f0       ?ParseValue@SPParamManager@@AAE_NPAD_N1@Z 0043c4f0 f   sp_param.obj
 0001:0003ba60       ?Find@SPParamManager@@QAEJPBD_N@Z 0043ca60 f   sp_param.obj
 0001:0003bae0       ?GetValue@SPParamManager@@QAEPAGPBD_N@Z 0043cae0 f   sp_param.obj
 0001:0003bb20       ?GetValueA@SPParamManager@@QAEPADPBDH_N@Z 0043cb20 f   sp_param.obj
 0001:0003bbd0       ?GetValuePrefixAll@SPParamManager@@QAE_NPBDAAV?$JPtrArray@PAD@@AAV?$JPtrArray@PAG@@@Z 0043cbd0 f   sp_param.obj
 0001:0003bd80       ?VarGet@SPProp@@UAE_NPAVSPGhost@@PBGAAVJWString@@PAVSPVarSystemNode@@@Z 0043cd80 f   sp_prop.obj
 0001:0003c080       ?VarSet@SPProp@@UAE_NPAVSPGhost@@PBGPAGPAVSPVarSystemNode@@@Z 0043d080 f   sp_prop.obj
 0001:0003c090       ?ReadDescript@SPProp@@UAEHXZ 0043d090 f   sp_prop.obj
 0001:0003c0a0       ?ParseSingleEntry@SPProp@@UAE_NPADHAAVJTokenStream@@@Z 0043d0a0 f   sp_prop.obj
 0001:0003c3b0       ?Serialize@SPProp@@UAEXAAVJWString@@@Z 0043d3b0 f   sp_prop.obj
 0001:0003c6a0       ?SetPropPathW@SPProp@@QAEXPBG@Z 0043d6a0 f   sp_prop.obj
 0001:0003c6c0       ?GetThumbnail@SPProp@@UAE_NAAVJWString@@@Z 0043d6c0 f   sp_prop.obj
 0001:0003c700       ?GetNowLoading@SPProp@@UAE_NAAVJWString@@@Z 0043d700 f   sp_prop.obj
 0001:0003c740       ?GetNowLoadingReal@SPProp@@IAE_NAAVJWString@@ABV2@@Z 0043d740 f   sp_prop.obj
 0001:0003c740       ?GetThumbnailReal@SPProp@@IAE_NAAVJWString@@ABV2@@Z 0043d740 f   sp_prop.obj
 0001:0003c750       ?GetUpdateTime@SPProp@@QAEKXZ 0043d750 f   sp_prop.obj
 0001:0003c770       ?GetUpdateResult@SPProp@@QAEPBGXZ 0043d770 f   sp_prop.obj
 0001:0003c780       ?ParseCodePage@SPProp@@SAXPBDAAH@Z 0043d780 f   sp_prop.obj
 0001:0003c7d0       ?LoadDeferredInfo@SPProp@@UAE_NXZ 0043d7d0 f   sp_prop.obj
 0001:0003c7f0       ?InvalidateCacheData@SPProp@@UAEXXZ 0043d7f0 f   sp_prop.obj
 0001:0003c920       ?Decode@SPPunycode@@SA_NPBDAAVJWString@@@Z 0043d920 f   sp_punycode.obj
 0001:0003cf60       ?Encode@SPPunycode@@SA_NPBGAAVJString@@@Z 0043df60 f   sp_punycode.obj
 0001:0003d3a0       ?ShiftRight@?$JArray@K@@QAEXJJ@Z 0043e3a0 f i sp_punycode.obj
 0001:0003d510       ?SetNumNoPurge@?$JArray@PAX@@QAEXK_N@Z 0043e510 f i sp_punycode.obj
 0001:0003d510       ?SetNumNoPurge@?$JArray@K@@QAEXK_N@Z 0043e510 f i sp_punycode.obj
 0001:0003d570       ?Release@SPReg@@QAEXXZ     0043e570 f   sp_reg.obj
 0001:0003d5b0       ?CreateKey@SPReg@@QAE_NPAUHKEY__@@PBD@Z 0043e5b0 f   sp_reg.obj
 0001:0003d610       ?OpenKey@SPReg@@QAE_NPAUHKEY__@@PBD_N@Z 0043e610 f   sp_reg.obj
 0001:0003d670       ?QueryValueSZ@SPReg@@QAE_NPBDAAVJString@@@Z 0043e670 f   sp_reg.obj
 0001:0003d850       ?QueryValueSZ_W@SPReg@@QAE_NPBDAAVJWString@@@Z 0043e850 f   sp_reg.obj
 0001:0003dac0       ?QueryValueDWORD@SPReg@@QAE_NPBDAAK@Z 0043eac0 f   sp_reg.obj
 0001:0003db10       ?SetValueSZ@SPReg@@QAE_NPBD0@Z 0043eb10 f   sp_reg.obj
 0001:0003db60       ?SetValueSZ_W@SPReg@@QAE_NPBDPBG@Z 0043eb60 f   sp_reg.obj
 0001:0003dc40       ?SetValueDWORD@SPReg@@QAE_NPBDK@Z 0043ec40 f   sp_reg.obj
 0001:0003dc80       ?DeleteKey@SPReg@@QAE_NPBD@Z 0043ec80 f   sp_reg.obj
 0001:0003dcb0       ?DeleteKeyTree@SPReg@@QAE_NPBD@Z 0043ecb0 f   sp_reg.obj
 0001:0003dd40       ?DeleteAll@SPReg@@QAE_NXZ  0043ed40 f   sp_reg.obj
 0001:0003de50       ?DeleteValue@SPReg@@QAE_NPBD@Z 0043ee50 f   sp_reg.obj
 0001:0003de80       ?EnumKey@SPReg@@QAE_NKAAVJString@@@Z 0043ee80 f   sp_reg.obj
 0001:0003dee0       ?EnumValue@SPReg@@QAE_NKAAVJString@@AAK@Z 0043eee0 f   sp_reg.obj
 0001:0003df40       ?Player_SPSEfpieee_handler@@YAHPAU_FPIEEE_RECORD@@@Z 0043ef40 f   sp_se.obj
 0001:0003df50       ?SPSEPreTranslate@@YAHPAU_EXCEPTION_POINTERS@@I@Z 0043ef50 f   sp_se.obj
 0001:0003dfb0       ??0SPSetCurrentDir@@QAE@PBG@Z 0043efb0 f   sp_setcurrentdir.obj
 0001:0003e0a0       ??1SPSetCurrentDir@@QAE@XZ 0043f0a0 f   sp_setcurrentdir.obj
 0001:0003e0c0       ?Release@SPSettings@@QAEXXZ 0043f0c0 f   sp_setting.obj
 0001:0003e200       ?Load@SPSettings@@QAE_NKPADK@Z 0043f200 f   sp_setting.obj
 0001:0003e2d0       ?LoadCore@SPSettings@@AAE_NAAVJTokenStream@@@Z 0043f2d0 f   sp_setting.obj
 0001:0003e640       ?LoadCore@SPSettings@@AAE_NKPAD@Z 0043f640 f   sp_setting.obj
 0001:0003e6c0       ?GetValueW@SPSettings@@QBEPAGPBDPAG@Z 0043f6c0 f   sp_setting.obj
 0001:0003e7a0       ?Clear@SPModuleEvent@@QAEXXZ 0043f7a0 f i sp_shiori.obj
 0001:0003e7c0       ??1SPModuleEvent@@UAE@XZ   0043f7c0 f i sp_shiori.obj
 0001:0003e7c0       ??1SPShioriEvent@@UAE@XZ   0043f7c0 f i sp_shiori.obj
 0001:0003e7d0       ?Clear@SPShioriEvent@@QAEXXZ 0043f7d0 f i sp_shiori.obj
 0001:0003e810       ??_ESPShioriEvent@@UAEPAXI@Z 0043f810 f i sp_shiori.obj
 0001:0003e810       ??_GSPShioriEvent@@UAEPAXI@Z 0043f810 f i sp_shiori.obj
 0001:0003e840       ??0SPShiori@@QAE@XZ        0043f840 f   sp_shiori.obj
 0001:0003ea50       ?Name@SPShiori@@UAEPBGXZ   0043fa50 f i sp_shiori.obj
 0001:0003ea50       ?GetModuleDesc@SPShiori@@UAEPBGXZ 0043fa50 f i sp_shiori.obj
 0001:0003ea60       ?GetLogFileName@SPShiori@@UAEPBGXZ 0043fa60 f i sp_shiori.obj
 0001:0003ea70       ?GetTypeString@SPShiori@@UAEPBGXZ 0043fa70 f i sp_shiori.obj
 0001:0003ea80       ??_GSPShiori@@UAEPAXI@Z    0043fa80 f i sp_shiori.obj
 0001:0003ea80       ??_ESPShiori@@UAEPAXI@Z    0043fa80 f i sp_shiori.obj
 0001:0003eab0       ??1SPShiori@@UAE@XZ        0043fab0 f   sp_shiori.obj
 0001:0003ec00       ?MakeShiori30Request@SPShiori@@AAEXAAVJString@@AAVSPShioriEvent@@PBG@Z 0043fc00 f   sp_shiori.obj
 0001:0003f030       ?Load@SPShiori@@QAEHPBG@Z  00440030 f   sp_shiori.obj
 0001:0003fef0       ?Unload@SPShiori@@QAEXXZ   00440ef0 f   sp_shiori.obj
 0001:000400c0       ?SendEvent@SPShiori@@QAE?AVSPShioriEventResult@@AAVSPShioriEvent@@@Z 004410c0 f   sp_shiori.obj
 0001:00040620       ??0SPModuleEvent@@QAE@ABV0@@Z 00441620 f i sp_shiori.obj
 0001:00040670       ?Request@SPShiori@@AAEPAGAAVJString@@PAVJWString@@@Z 00441670 f   sp_shiori.obj
 0001:00040920       ?GetStringShiori@SPShiori@@QAE?AVSPShioriGetStringResult@@PAG_N@Z 00441920 f   sp_shiori.obj
 0001:000409b0       ?GetStringShiori@SPShiori@@QAE?AVSPShioriGetStringResult@@AAVSPShioriEvent@@_N@Z 004419b0 f   sp_shiori.obj
 0001:00040e30       ?GetVersionRequestImpl@SPShiori@@UAEHXZ 00441e30 f   sp_shiori.obj
 0001:00041140       ?ResetDataCache@SPShiori@@QAEXXZ 00442140 f   sp_shiori.obj
 0001:00041150       ?ResetMenuAvailableTableChar@SPShiori@@AAEXXZ 00442150 f   sp_shiori.obj
 0001:000411c0       ?ParseGenericHeaders@SPShiori@@AAEXPBDPAVJWString@@@Z 004421c0 f   sp_shiori.obj
 0001:000413f0       ?ClearTeachArray@SPShiori@@QAEXXZ 004423f0 f   sp_shiori.obj
 0001:00041470       ?SetBaseWareID_Fake@SPShiori@@QAEXPBG@Z 00442470 f   sp_shiori.obj
 0001:00041490       ?GetCurrentDirectoryShiori@SPShiori@@QAEPBGXZ 00442490 f   sp_shiori.obj
 0001:000414b0       ?GetBaseWareID@SPShiori@@AAEPAGXZ 004424b0 f   sp_shiori.obj
 0001:000414e0       ?SPShiori_SearchFileFromParentDir@@YA_NAAVJWString@@PBG1@Z 004424e0 f   sp_shiori.obj
 0001:00041790       ?LoadModuleAndModifySpecificDLL@SPShiori@@AAEPADAAVJWString@@0@Z 00442790 f   sp_shiori.obj
 0001:00042340       ?HookAPICall@SPShiori@@AAEXXZ 00443340 f   sp_shiori.obj
 0001:000424a0       ?SPShiori_HookAPICallReal@@YAXPAXW4SPSHIORI_HOOKTYPE@@@Z 004434a0 f   sp_shiori.obj
 0001:00042b50       ?SPShiori_IsSystemModule@@YA_NPAUHINSTANCE__@@@Z 00443b50 f   sp_shiori.obj
 0001:00042e60       ?SPHooked_GetLocalTime@@YGXPAU_SYSTEMTIME@@@Z 00443e60 f   sp_shiori.obj
 0001:00043360       ??_ESPShiori@@W3AEPAXI@Z   00444360 f i sp_shiori.obj
 0001:00043370       ??_ESPShiori@@WGOE@AEPAXI@Z 00444370 f i sp_shiori.obj
 0001:00043380       ?Release@SPStaticStringArrayW@@QAEXXZ 00444380 f   sp_staticstringarray.obj
 0001:00043420       ?AddW@SPStaticStringArrayW@@QAEJPBGJ@Z 00444420 f   sp_staticstringarray.obj
 0001:000435d0       ?AddA@SPStaticStringArrayW@@QAEJPBDH@Z 004445d0 f   sp_staticstringarray.obj
 0001:000436c0       ?Get@SPStaticStringArrayW@@QAEPAGK@Z 004446c0 f   sp_staticstringarray.obj
 0001:000436f0       ?MakeTable@SPStaticStringArrayW@@ABEXXZ 004446f0 f   sp_staticstringarray.obj
 0001:00043840       ?Release@SPStaticStringArrayA@@QAEXXZ 00444840 f   sp_staticstringarray.obj
 0001:000438e0       ?AddA@SPStaticStringArrayA@@QAEJPBDJ@Z 004448e0 f   sp_staticstringarray.obj
 0001:00043a80       ?Get@SPStaticStringArrayA@@QAEPADK@Z 00444a80 f   sp_staticstringarray.obj
 0001:00043ab0       ?GetNum@SPStaticStringArrayA@@QBEKXZ 00444ab0 f   sp_staticstringarray.obj
 0001:00043ac0       ?MakeTable@SPStaticStringArrayA@@ABEXXZ 00444ac0 f   sp_staticstringarray.obj
 0001:00043c10       ?CreateSPStreamFilter@@YAPAVSPStreamFilter@@W4SPStreamFilter_Type@@HPAX@Z 00444c10 f   sp_streamfilter.obj
 0001:00043e60       ?GetTrailerHeader@SPStreamFilter@@UAEPADXZ 00444e60 f i sp_streamfilter.obj
 0001:00043e70       ?ReadImpl@SPStreamFilterSocket@@UAE_JPAD_J@Z 00444e70 f i sp_streamfilter.obj
 0001:00043eb0       ?ReadLineImpl@SPStreamFilterSocket@@UAEPADAA_J@Z 00444eb0 f i sp_streamfilter.obj
 0001:00043ee0       ??_GSPStreamFilterSocket@@UAEPAXI@Z 00444ee0 f i sp_streamfilter.obj
 0001:00043ee0       ??_ESPStreamFilterSocket@@UAEPAXI@Z 00444ee0 f i sp_streamfilter.obj
 0001:00043f10       ??1SPStreamFilterSocket@@UAE@XZ 00444f10 f i sp_streamfilter.obj
 0001:00043f20       ?ReadSize@SPStreamFilterHttpChunk@@UAE_KXZ 00444f20 f i sp_streamfilter.obj
 0001:00043f60       ?GetTrailerHeader@SPStreamFilterHttpChunk@@UAEPADXZ 00444f60 f i sp_streamfilter.obj
 0001:00043f80       ?ReadImpl@SPStreamFilterHttpChunk@@UAE_JPAD_J@Z 00444f80 f i sp_streamfilter.obj
 0001:000441f0       ??_GSPStreamFilterHttpChunk@@UAEPAXI@Z 004451f0 f i sp_streamfilter.obj
 0001:000441f0       ??_ESPStreamFilterHttpChunk@@UAEPAXI@Z 004451f0 f i sp_streamfilter.obj
 0001:00044220       ??1SPStreamFilterHttpChunk@@UAE@XZ 00445220 f i sp_streamfilter.obj
 0001:00044290       ?SetSourceFilter@SPStreamFilterGZip@@UAEHPAVSPStreamFilter@@@Z 00445290 f i sp_streamfilter.obj
 0001:00044290       ?SetSourceFilter@SPStreamFilterHttpChunk@@UAEHPAVSPStreamFilter@@@Z 00445290 f i sp_streamfilter.obj
 0001:000442d0       ?ReadSize@SPStreamFilterGZip@@UAE_KXZ 004452d0 f i sp_streamfilter.obj
 0001:00044310       ?ReadImpl@SPStreamFilterGZip@@UAE_JPAD_J@Z 00445310 f i sp_streamfilter.obj
 0001:000444c0       ??_GSPStreamFilterGZip@@UAEPAXI@Z 004454c0 f i sp_streamfilter.obj
 0001:000444c0       ??_ESPStreamFilterGZip@@UAEPAXI@Z 004454c0 f i sp_streamfilter.obj
 0001:000444f0       ??1SPStreamFilterGZip@@UAE@XZ 004454f0 f i sp_streamfilter.obj
 0001:00044560       ??1SPStreamFilter@@UAE@XZ  00445560 f   sp_streamfilter.obj
 0001:00044570       ?ReadSize@SPStreamFilter@@UAE_KXZ 00445570 f   sp_streamfilter.obj
 0001:00044590       ?Read@SPStreamFilter@@QAE_JPAD_J@Z 00445590 f   sp_streamfilter.obj
 0001:00044610       ?ReadLine@SPStreamFilter@@QAEPADAA_J@Z 00445610 f   sp_streamfilter.obj
 0001:00044650       ?GetSPSysFunc@@YAAAVSPSysFunc@@XZ 00445650 f   sp_sysfunc.obj
 0001:000446e0       ??0SPSysFunc@@AAE@XZ       004456e0 f   sp_sysfunc.obj
 0001:00044f30       ??0CComBSTR@ATL@@QAE@ABU_GUID@@@Z 00445f30 f i sp_sysfunc.obj
 0001:00044f70       ??1CComBSTR@ATL@@QAE@XZ    00445f70 f i sp_sysfunc.obj
 0001:00044f80       ?QueryInterface@SPSensLogon@@UAGJABU_GUID@@PAPAX@Z 00445f80 f i sp_sysfunc.obj
 0001:00045060       ?StartShell@SPSensLogon@@UAGJPAG@Z 00446060 f i sp_sysfunc.obj
 0001:00045060       ?Logon@SPSensLogon@@UAGJPAG@Z 00446060 f i sp_sysfunc.obj
 0001:00045060       ?Logoff@SPSensLogon@@UAGJPAG@Z 00446060 f i sp_sysfunc.obj
 0001:00045070       ?DisplayLock@SPSensLogon@@UAGJPAG@Z 00446070 f i sp_sysfunc.obj
 0001:000450b0       ?DisplayUnlock@SPSensLogon@@UAGJPAG@Z 004460b0 f i sp_sysfunc.obj
 0001:000450f0       ?StartScreenSaver@SPSensLogon@@UAGJPAG@Z 004460f0 f i sp_sysfunc.obj
 0001:00045130       ?StopScreenSaver@SPSensLogon@@UAGJPAG@Z 00446130 f i sp_sysfunc.obj
 0001:00045170       ??_GSPSensLogon@@UAEPAXI@Z 00446170 f i sp_sysfunc.obj
 0001:00045170       ??_ESPSensLogon@@UAEPAXI@Z 00446170 f i sp_sysfunc.obj
 0001:00045170       ??_E?$SPComObjectBase@UISensLogon@@@@UAEPAXI@Z 00446170 f i sp_sysfunc.obj
 0001:00045170       ??_G?$SPComObjectBase@UISensLogon@@@@UAEPAXI@Z 00446170 f i sp_sysfunc.obj
 0001:000451a0       ??1?$SPComObjectBase@UISensLogon@@@@UAE@XZ 004461a0 f i sp_sysfunc.obj
 0001:000451a0       ??1SPSensLogon@@UAE@XZ     004461a0 f i sp_sysfunc.obj
 0001:000451c0       ?QueryInterface@SPSensLogon2@@UAGJABU_GUID@@PAPAX@Z 004461c0 f i sp_sysfunc.obj
 0001:000452a0       ?GetTypeInfoCount@SPSensLogon2@@UAGJPAI@Z 004462a0 f i sp_sysfunc.obj
 0001:000452a0       ?GetTypeInfoCount@SPSensLogon@@UAGJPAI@Z 004462a0 f i sp_sysfunc.obj
 0001:000452b0       ?GetTypeInfo@SPSensLogon2@@UAGJIKPAPAUITypeInfo@@@Z 004462b0 f i sp_sysfunc.obj
 0001:000452b0       ?GetTypeInfo@SPSensLogon@@UAGJIKPAPAUITypeInfo@@@Z 004462b0 f i sp_sysfunc.obj
 0001:000452c0       ?GetIDsOfNames@SPSensLogon2@@UAGJABU_GUID@@PAPAGIKPAJ@Z 004462c0 f i sp_sysfunc.obj
 0001:000452c0       ?GetIDsOfNames@SPSensLogon@@UAGJABU_GUID@@PAPAGIKPAJ@Z 004462c0 f i sp_sysfunc.obj
 0001:000452d0       ?Invoke@SPSensLogon2@@UAGJJABU_GUID@@KGPAUtagDISPPARAMS@@PAUtagVARIANT@@PAUtagEXCEPINFO@@PAI@Z 004462d0 f i sp_sysfunc.obj
 0001:000452d0       ?Invoke@SPSensLogon@@UAGJJABU_GUID@@KGPAUtagDISPPARAMS@@PAUtagVARIANT@@PAUtagEXCEPINFO@@PAI@Z 004462d0 f i sp_sysfunc.obj
 0001:000452e0       ?SessionDisconnect@SPSensLogon2@@UAGJPAGK@Z 004462e0 f i sp_sysfunc.obj
 0001:00045320       ?SessionReconnect@SPSensLogon2@@UAGJPAGK@Z 00446320 f i sp_sysfunc.obj
 0001:00045360       ?Logon@SPSensLogon2@@UAGJPAGK@Z 00446360 f i sp_sysfunc.obj
 0001:00045360       ?PostShell@SPSensLogon2@@UAGJPAGK@Z 00446360 f i sp_sysfunc.obj
 0001:00045360       ?Logoff@SPSensLogon2@@UAGJPAGK@Z 00446360 f i sp_sysfunc.obj
 0001:00045370       ??_E?$SPComObjectBase@UISensLogon2@@@@UAEPAXI@Z 00446370 f i sp_sysfunc.obj
 0001:00045370       ??_ESPSensLogon2@@UAEPAXI@Z 00446370 f i sp_sysfunc.obj
 0001:00045370       ??_G?$SPComObjectBase@UISensLogon2@@@@UAEPAXI@Z 00446370 f i sp_sysfunc.obj
 0001:00045370       ??_GSPSensLogon2@@UAEPAXI@Z 00446370 f i sp_sysfunc.obj
 0001:000453a0       ??1?$SPComObjectBase@UISensLogon2@@@@UAE@XZ 004463a0 f i sp_sysfunc.obj
 0001:000453a0       ??1SPSensLogon2@@UAE@XZ    004463a0 f i sp_sysfunc.obj
 0001:000453c0       ??_ESPSysFunc@@UAEPAXI@Z   004463c0 f i sp_sysfunc.obj
 0001:000453c0       ??_GSPSysFunc@@UAEPAXI@Z   004463c0 f i sp_sysfunc.obj
 0001:000453f0       ??1SPSysFunc@@UAE@XZ       004463f0 f   sp_sysfunc.obj
 0001:00045720       ?Append@CComBSTR@ATL@@QAEJPBGH@Z 00446720 f i sp_sysfunc.obj
 0001:000457c0       ?NormalizeCleanupString@SPSysFunc@@QAE_NW4_NORM_FORM@@AAVJWString@@AAV?$JArray@G@@@Z 004467c0 f   sp_sysfunc.obj
 0001:000457f0       ?NormalizeString@SPSysFunc@@QAE_NW4_NORM_FORM@@AAVJWString@@AAV?$JArray@G@@@Z 004467f0 f   sp_sysfunc.obj
 0001:000459b0       ??1?$SPCacheObj@VSPSysFuncEventCall@@VJCriticalSection@@VJLock@@@@QAE@XZ 004469b0 f i sp_sysfunc.obj
 0001:00045ad0       ?QueryInterface@?$SPComObjectBase@UISensLogon@@@@UAGJABU_GUID@@PAPAX@Z 00446ad0 f i sp_sysfunc.obj
 0001:00045b90       ?AddRef@?$SPComObjectBase@UISensLogon2@@@@UAGKXZ 00446b90 f i sp_sysfunc.obj
 0001:00045b90       ?AddRef@?$SPComObjectBase@UISensLogon@@@@UAGKXZ 00446b90 f i sp_sysfunc.obj
 0001:00045bb0       ?Release@?$SPComObjectBase@UISensLogon@@@@UAGKXZ 00446bb0 f i sp_sysfunc.obj
 0001:00045be0       ??C?$_com_ptr_t_ssp@V?$_com_IIID_ssp@UIEventSubscription@@$1?_GUID_4a6b0e15_2e38_11d1_9965_00c04fbbb345@@3U__s_GUID@@A@@@@QBEPAUIEventSubscription@@XZ 00446be0 f i sp_sysfunc.obj
 0001:00045c00       ?CreateInstance@?$_com_ptr_t_ssp@V?$_com_IIID_ssp@UIEventSubscription@@$1?_GUID_4a6b0e15_2e38_11d1_9965_00c04fbbb345@@3U__s_GUID@@A@@@@QAEJABU_GUID@@PAUIUnknown@@K@Z 00446c00 f i sp_sysfunc.obj
 0001:00045c90       ?QueryInterface@?$SPComObjectBase@UISensLogon2@@@@UAGJABU_GUID@@PAPAX@Z 00446c90 f i sp_sysfunc.obj
 0001:00045d50       ?Release@?$SPComObjectBase@UISensLogon2@@@@UAGKXZ 00446d50 f i sp_sysfunc.obj
 0001:00045d80       ??1SPSysFuncEventCall@@QAE@XZ 00446d80 f i sp_sysfunc.obj
 0001:00045d90       ??_GSPSysFunc_AddFontResourceInfo@@QAEPAXI@Z 00446d90 f i sp_sysfunc.obj
 0001:00045dc0       ??1SPSysFunc_AddFontResourceInfo@@QAE@XZ 00446dc0 f i sp_sysfunc.obj
 0001:00045f00       ?Release@?$SPCacheObj@VSPSysFuncEventCall@@VJCriticalSection@@VJLock@@@@QAEXXZ 00446f00 f i sp_sysfunc.obj
 0001:00046000       ??0?$JPtrArray@PAVSPSysFuncEventCall@@@@QAE@J@Z 00447000 f i sp_sysfunc.obj
 0001:000460f0       ?_Release@?$_com_ptr_t_ssp@V?$_com_IIID_ssp@UIEventSubscription@@$1?_GUID_4a6b0e15_2e38_11d1_9965_00c04fbbb345@@3U__s_GUID@@A@@@@AAEKXZ 004470f0 f i sp_sysfunc.obj
 0001:000460f0       ?_Release@?$_com_ptr_t_ssp@V?$_com_IIID_ssp@UIEventSystem@@$1?_GUID_4e14fb9f_2e22_11d1_9964_00c04fbbb345@@3U__s_GUID@@A@@@@AAEKXZ 004470f0 f i sp_sysfunc.obj
 0001:00046100       ??0SPOSInfo@@AAE@XZ        00447100 f   sp_sysinfo.obj
 0001:000462f0       ??_GSPOSInfo@@UAEPAXI@Z    004472f0 f i sp_sysinfo.obj
 0001:000462f0       ??_ESPOSInfo@@UAEPAXI@Z    004472f0 f i sp_sysinfo.obj
 0001:00046320       ??1SPOSInfo@@UAE@XZ        00447320 f   sp_sysinfo.obj
 0001:00046330       ?GetSPOSInfo@@YAAAVSPOSInfo@@XZ 00447330 f   sp_sysinfo.obj
 0001:000463c0       ?GetSPSysInfo@@YAAAVSPSysInfo@@XZ 004473c0 f   sp_sysinfo.obj
 0001:00046450       ??1SPSysInfo@@UAE@XZ       00447450 f   sp_sysinfo.obj
 0001:000464d0       ??_ESPSysInfo@@UAEPAXI@Z   004474d0 f i sp_sysinfo.obj
 0001:000464d0       ??_GSPSysInfo@@UAEPAXI@Z   004474d0 f i sp_sysinfo.obj
 0001:00046500       ??0SPSysInfo@@AAE@XZ       00447500 f   sp_sysinfo.obj
 0001:00047040       ?GetTickCount64@SPSysInfo@@QAE_KXZ 00448040 f   sp_sysinfo.obj
 0001:000470a0       ?GetTickCount@SPSysInfo@@QAEKXZ 004480a0 f   sp_sysinfo.obj
 0001:000470c0       ?GetCPUIDInfo@SPSysInfo@@AAEXXZ 004480c0 f   sp_sysinfo.obj
 0001:00047e80       ?GetCPUCacheInfo@SPSysInfo@@AAEXK@Z 00448e80 f   sp_sysinfo.obj
 0001:00048090       ?GetCPUClock@SPSysInfo@@QAEKXZ 00449090 f   sp_sysinfo.obj
 0001:00048210       ?UpdateNonClientMetrics@SPSysInfo@@AAEXXZ 00449210 f   sp_sysinfo.obj
 0001:00048230       ?GetNonClientMetricsW@SPSysInfo@@QAEAAUSP_NONCLIENTMETRICSW@@XZ 00449230 f   sp_sysinfo.obj
 0001:00048250       ?GetNonClientMetricsWRaw@SPSysInfo@@QAEXAAUSP_NONCLIENTMETRICSW@@I@Z 00449250 f   sp_sysinfo.obj
 0001:000482c0       ?IsHT@SPSysInfo@@QAEHXZ    004492c0 f   sp_sysinfo.obj
 0001:000482e0       ?GetMemoryStatus@SPSysInfo@@QAEXAAUSPMemoryStatus@@@Z 004492e0 f   sp_sysinfo.obj
 0001:00048400       ?CreateVersionString@SPSysInfo@@AAEXABU_OSVERSIONINFOEXW@@@Z 00449400 f   sp_sysinfo.obj
 0001:00049610       ?GetCPULoad@SPSysInfo@@QAEDXZ 0044a610 f   sp_sysinfo.obj
 0001:000499f0       ??0SPSystemRegistration@@QAE@W4SPAssociateFile_Type@@PBG1@Z 0044a9f0 f   sp_sysreg.obj
 0001:00049a70       ??1SPSystemRegistration@@QAE@XZ 0044aa70 f   sp_sysreg.obj
 0001:00049ac0       ?MakeBasePathW@SPSystemRegistration@@ABEXAAVJWString@@@Z 0044aac0 f   sp_sysreg.obj
 0001:00049ba0       ?RegCreateTree@SPSystemRegistration@@CAXAAVSPReg@@PBDAAVJWString@@@Z 0044aba0 f   sp_sysreg.obj
 0001:00049c70       ?AssociateFileReg@SPSystemRegistration@@AAE_N_N0@Z 0044ac70 f   sp_sysreg.obj
 0001:0004a990       ?CreateShellLink@SPSystemRegistration@@AAE_N_N00@Z 0044b990 f   sp_sysreg.obj
 0001:0004adb0       ?Associate@SPSystemRegistration@@QAE_N_N0@Z 0044bdb0 f   sp_sysreg.obj
 0001:0004ae50       ??1?$_com_ptr_t@V?$_com_IIID@UIUnknown@@$1?_GUID_00000000_0000_0000_c000_000000000046@@3U__s_GUID@@A@@@@QAE@XZ 0044be50 f i sp_sysreg.obj
 0001:0004ae50       ??1?$_com_ptr_t_ssp@V?$_com_IIID_ssp@UIEventSystem@@$1?_GUID_4e14fb9f_2e22_11d1_9964_00c04fbbb345@@3U__s_GUID@@A@@@@QAE@XZ 0044be50 f i sp_sysreg.obj
 0001:0004ae50       ??1?$_com_ptr_t@V?$_com_IIID@UIPersistFile@@$1?_GUID_0000010b_0000_0000_c000_000000000046@@3U__s_GUID@@A@@@@QAE@XZ 0044be50 f i sp_sysreg.obj
 0001:0004ae50       ??1?$_com_ptr_t@V?$_com_IIID@UIShellLinkW@@$1?_GUID_000214f9_0000_0000_c000_000000000046@@3U__s_GUID@@A@@@@QAE@XZ 0044be50 f i sp_sysreg.obj
 0001:0004ae50       ??1?$_com_ptr_t_ssp@V?$_com_IIID_ssp@UIEventSubscription@@$1?_GUID_4a6b0e15_2e38_11d1_9965_00c04fbbb345@@3U__s_GUID@@A@@@@QAE@XZ 0044be50 f i sp_sysreg.obj
 0001:0004ae50       ??1?$_com_ptr_t_ssp@V?$_com_IIID_ssp@UIMultiLanguage2@@$1?_GUID_dccfc164_2b38_11d2_b7ec_00c04f8f5d9a@@3U__s_GUID@@A@@@@QAE@XZ 0044be50 f i sp_sysreg.obj
 0001:0004ae60       ?GetSPURLTranslate@@YAAAVSPURLTranslate@@XZ 0044be60 f   sp_urltranslate.obj
 0001:0004aef0       ??0SPURLTranslate@@AAE@XZ  0044bef0 f   sp_urltranslate.obj
 0001:0004af40       ??_GSPURLTranslate@@UAEPAXI@Z 0044bf40 f i sp_urltranslate.obj
 0001:0004af40       ??_ESPURLTranslate@@UAEPAXI@Z 0044bf40 f i sp_urltranslate.obj
 0001:0004af70       ??1SPURLTranslate@@UAE@XZ  0044bf70 f   sp_urltranslate.obj
 0001:0004b050       ?Translate@SPURLTranslate@@QAE_NAAVJWString@@@Z 0044c050 f   sp_urltranslate.obj
 0001:0004b0b0       ?GetSPUtils@@YAAAVSPUtils@@XZ 0044c0b0 f   sp_utils.obj
 0001:0004b140       ??0SPUtils@@AAE@XZ         0044c140 f   sp_utils.obj
 0001:0004b1b0       ??_ESPUtils@@UAEPAXI@Z     0044c1b0 f i sp_utils.obj
 0001:0004b1b0       ??_GSPUtils@@UAEPAXI@Z     0044c1b0 f i sp_utils.obj
 0001:0004b1e0       ??1SPUtils@@UAE@XZ         0044c1e0 f   sp_utils.obj
 0001:0004b1f0       ?GetLocalObjectName@SPUtils@@QAEPBGPBG@Z 0044c1f0 f   sp_utils.obj
 0001:0004b230       ?GetFileTime@SPUtils@@QAE_NPBGAAU_FILETIME@@11_N@Z 0044c230 f   sp_utils.obj
 0001:0004b2e0       ?GetFileTimeAsSystemSeconds@SPUtils@@QAE_NPBGAAK11@Z 0044c2e0 f   sp_utils.obj
 0001:0004b350       ?IsRelativePath@SPUtils@@QAE_NPBG@Z 0044c350 f   sp_utils.obj
 0001:0004b3c0       ?MakeAbsolutePath@SPUtils@@QAE_NAAVJWString@@PBG_N@Z 0044c3c0 f   sp_utils.obj
 0001:0004b940       ?GetSpecialFolderPath@SPUtils@@QAE_NHAAVJWString@@@Z 0044c940 f   sp_utils.obj
 0001:0004bac0       ?GetPathFromIDList@SPUtils@@QAE_NPBU_ITEMIDLIST@@AAVJWString@@@Z 0044cac0 f   sp_utils.obj
 0001:0004bf80       ?SplitTokenA@SPUtils@@QAEKPADAAV?$JPtrArray@PAD@@PBD_N@Z 0044cf80 f   sp_utils.obj
 0001:0004c150       ?SplitTokenA@SPUtils@@QAEKPADPAPADKPBD_N@Z 0044d150 f   sp_utils.obj
 0001:0004c250       ?SplitTokenW@SPUtils@@QAEKPAGPAPAGKPBG_N@Z 0044d250 f   sp_utils.obj
 0001:0004c2f0       ?JoinURL@SPUtils@@QAE_NAAVJWString@@W4SPHttp_Type@@PBD222_N@Z 0044d2f0 f   sp_utils.obj
 0001:0004c570       ?JoinURL@SPUtils@@QAE_NAAVJWString@@W4SPHttp_Type@@PBG222@Z 0044d570 f   sp_utils.obj
 0001:0004c710       ?CrackURL@SPUtils@@QAE?AW4SPHttp_Type@@PBDPAVJString@@111@Z 0044d710 f   sp_utils.obj
 0001:0004c9a0       ?CrackURL@SPUtils@@QAE?AW4SPHttp_Type@@PBGPAVJString@@111@Z 0044d9a0 f   sp_utils.obj
 0001:0004cbe0       ?CrackURLReal@SPUtils@@AAE?AW4SPHttp_Type@@AAVJWString@@PAVJString@@111@Z 0044dbe0 f   sp_utils.obj
 0001:0004d240       ?CrackAndJoinURL@SPUtils@@QAEXPBDAAVJWString@@_N@Z 0044e240 f   sp_utils.obj
 0001:0004d420       ?CreateProcessWrapper@SPUtils@@QAEHPBG0K_N1@Z 0044e420 f   sp_utils.obj
 0001:0004d620       ?IsNumberW@SPUtils@@QAEHPBG0@Z 0044e620 f   sp_utils.obj
 0001:0004d680       ?ConvertSystemSecondsToLocalSystemTime@SPUtils@@QAEXKAAU_SYSTEMTIME@@@Z 0044e680 f   sp_utils.obj
 0001:0004d6d0       ?ConvertFileTimeToSystemSeconds@SPUtils@@QAEKAAU_FILETIME@@@Z 0044e6d0 f   sp_utils.obj
 0001:0004d710       ?ConvertEpochTimeToFileTime@SPUtils@@QAEXKAAU_FILETIME@@@Z 0044e710 f   sp_utils.obj
 0001:0004d740       ?ConvertURLToFile@SPUtils@@QAE_NPBDAAVJWString@@@Z 0044e740 f   sp_utils.obj
 0001:0004d900       ?DecodeBase64@SPUtils@@QAEXPBDAAV?$JArray@D@@@Z 0044e900 f   sp_utils.obj
 0001:0004db00       ?EncodeBase64@SPUtils@@QAEXPBDAAVJString@@@Z 0044eb00 f   sp_utils.obj
 0001:0004db30       ?EncodeBase64@SPUtils@@QAEXPBDKAAVJString@@@Z 0044eb30 f   sp_utils.obj
 0001:0004dd00       ?DecodePercent@SPUtils@@QAEXPBDAAVJString@@@Z 0044ed00 f   sp_utils.obj
 0001:0004de40       ?DecodePercent@SPUtils@@QAEXPBDAAV?$JArray@D@@@Z 0044ee40 f   sp_utils.obj
 0001:0004dfc0       ?EncodePercent@SPUtils@@QAEXPBDAAVJString@@0_N@Z 0044efc0 f   sp_utils.obj
 0001:0004dff0       ?EncodePercent@SPUtils@@QAEXPBDKAAVJString@@0_N@Z 0044eff0 f   sp_utils.obj
 0001:0004e270       ?IsPercentEncoded@SPUtils@@QAE_NPBD0_N@Z 0044f270 f   sp_utils.obj
 0001:0004e600       ?HTTPToFileTime@SPUtils@@QAEHPBDAAU_FILETIME@@@Z 0044f600 f   sp_utils.obj
 0001:0004e630       ?HTTPToSystemTime@SPUtils@@QAEHPBDAAU_SYSTEMTIME@@@Z 0044f630 f   sp_utils.obj
 0001:0004e950       ?FileTimeToHTTP@SPUtils@@QAEPBDABU_FILETIME@@@Z 0044f950 f   sp_utils.obj
 0001:0004e9a0       ?SystemTimeToHTTP@SPUtils@@QAEPBDABU_SYSTEMTIME@@@Z 0044f9a0 f   sp_utils.obj
 0001:0004ea10       ?SystemTimeToCommaSeparatedTime@SPUtils@@QAEPBDABU_SYSTEMTIME@@@Z 0044fa10 f   sp_utils.obj
 0001:0004ea70       ?GUIDToStringA@SPUtils@@QAEPBDAAU_GUID@@@Z 0044fa70 f   sp_utils.obj
 0001:0004eae0       ?GetExtension@SPUtils@@QAEPBGPBG@Z 0044fae0 f   sp_utils.obj
 0001:0004eb20       ?GetMIMETypeFromExtension@SPUtils@@QAE_NPBGAAVJWString@@@Z 0044fb20 f   sp_utils.obj
 0001:0004ecd0       ?GetMIMETypeFromExtension@SPUtils@@QAE_NPBDAAVJString@@@Z 0044fcd0 f   sp_utils.obj
 0001:0004ee50       ?IsMIMETypeIsDefault@SPUtils@@QAE_NPBD@Z 0044fe50 f   sp_utils.obj
 0001:0004eea0       ?GetMIMETypeFromMagicByte@SPUtils@@QAEPBDPBDH@Z 0044fea0 f   sp_utils.obj
 0001:0004f280       ?IsFileExistW@SPUtils@@QAE_NPBGPAK@Z 00450280 f   sp_utils.obj
 0001:0004f3c0       ?SPCopyFile@SPUtils@@QAE_NPBG0K@Z 004503c0 f   sp_utils.obj
 0001:0004f490       ?SPMoveFile@SPUtils@@QAE_NPBG0K@Z 00450490 f   sp_utils.obj
 0001:0004f610       ?SPDeleteFile@SPUtils@@QAE_NPBG@Z 00450610 f   sp_utils.obj
 0001:0004f780       ?DigFolder@SPUtils@@QAE_NPBG@Z 00450780 f   sp_utils.obj
 0001:0004f920       ?DelDirTree@SPUtils@@QAE_NPBGPAV?$JPtrArray@PAG@@HPAVSPStaticStringArrayW@@KP6AX0PAX@Z3@Z 00450920 f   sp_utils.obj
 0001:0004fcf0       ?GetTextExtGUI@SPUtils@@QAE?AUtagSIZE@@PAUHDC__@@PBGK@Z 00450cf0 f   sp_utils.obj
 0001:0004fd80       ?GetTextExtFontGUI@SPUtils@@QAE?AUtagSIZE@@PAUHFONT__@@PBGK@Z 00450d80 f   sp_utils.obj
 0001:0004fe00       ?Alloc@?$JArray@G@@QAE_NK@Z 00450e00 f i sp_utils.obj
 0001:0004fef0       ?Release@SPVersionInfo@@QAEXXZ 00450ef0 f   sp_versioninfo.obj
 0001:0004ff10       ?Open@SPVersionInfo@@QAE_NPBG@Z 00450f10 f   sp_versioninfo.obj
 0001:0004ffb0       ?FileInfo@SPVersionInfo@@QAEPAUtagVS_FIXEDFILEINFO@@XZ 00450fb0 f   sp_versioninfo.obj
 0001:0004fff0       ?GetEntry@SPVersionInfo@@QAEPBGPBG@Z 00450ff0 f   sp_versioninfo.obj
 0001:00050120       ?CallWndRetProc@@YGJHIJ@Z  00451120 f   ssph.obj
 0001:000501d0       _wWinMain@16               004511d0 f   ssph.obj
 0001:00050200       ??0CSSPHApp@@QAE@XZ        00451200 f   ssph.obj
 0001:000502f0       ??_GCSSPHApp@@UAEPAXI@Z    004512f0 f i ssph.obj
 0001:000502f0       ??_ECSSPHApp@@UAEPAXI@Z    004512f0 f i ssph.obj
 0001:00050320       ??1CSSPHApp@@UAE@XZ        00451320 f   ssph.obj
 0001:000503a0       ?InitInstance@CSSPHApp@@UAEHXZ 004513a0 f   ssph.obj
 0001:000503c0       ?Main@CSSPHApp@@QAEHPAUHINSTANCE__@@PAGH@Z 004513c0 f   ssph.obj
 0001:00050810       ?UpdateSelf@CSSPHApp@@AAEXXZ 00451810 f   ssph.obj
 0001:00050a90       ?SetTime@CSSPHApp@@AAEXXZ  00451a90 f   ssph.obj
 0001:00050b50       ?InstallSSP@CSSPHApp@@AAEXXZ 00451b50 f   ssph.obj
 0001:00050ed0       ?InstallLangPackOnly@CSSPHApp@@AAEXXZ 00451ed0 f   ssph.obj
 0001:000510a0       ?UninstallSSP@CSSPHApp@@AAEXXZ 004520a0 f   ssph.obj
 0001:00051440       ?UninstallSSPPhase2@CSSPHApp@@AAEXXZ 00452440 f   ssph.obj
 0001:00051790       ?ShioriURL@CSSPHApp@@AAEXXZ 00452790 f   ssph.obj
 0001:000517d0       ?GetURL@CSSPHApp@@AAEXXZ   004527d0 f   ssph.obj
 0001:000519e0       ?GetURLMain@CSSPHApp@@AAEHAAV?$JArray@D@@PBG@Z 004529e0 f   ssph.obj
 0001:00051eb0       ?SSPH_ScanURL@@YAHPBGAAVJString@@@Z 00452eb0 f   ssph_url.obj
 0001:000523c0       ??1?$CRegexpT@D@@QAE@XZ    004533c0 f i ssph_url.obj
 0001:00052a30       ??1?$CBufferT@PAV?$CDelegateElxT@D@@@@UAE@XZ 00453a30 f i ssph_url.obj
 0001:00052a60       ??1?$CBufferT@PAV?$CBackrefElxT@D@@@@UAE@XZ 00453a60 f i ssph_url.obj
 0001:00052a90       ??1?$CBufferT@PAV?$CConditionElxT@D@@@@UAE@XZ 00453a90 f i ssph_url.obj
 0001:00052ac0       ??1?$CBufferRefT@D@@UAE@XZ 00453ac0 f i ssph_url.obj
 0001:00052ad0       ??1?$CBuilderT@D@@QAE@XZ   00453ad0 f i ssph_url.obj
 0001:00052c30       ?Match@?$CRegexpT@D@@QBE?AV?$MatchResultT@$0A@@@PBDHPAVCContext@@@Z 00453c30 f i ssph_url.obj
 0001:00052cb0       ??_G?$CBufferRefT@PAV?$CDelegateElxT@D@@@@UAEPAXI@Z 00453cb0 f i ssph_url.obj
 0001:00052cb0       ??_E?$CBufferRefT@PAV?$CDelegateElxT@D@@@@UAEPAXI@Z 00453cb0 f i ssph_url.obj
 0001:00052ce0       ??_E?$CBufferT@PAV?$CDelegateElxT@D@@@@UAEPAXI@Z 00453ce0 f i ssph_url.obj
 0001:00052ce0       ??_G?$CBufferT@PAV?$CDelegateElxT@D@@@@UAEPAXI@Z 00453ce0 f i ssph_url.obj
 0001:00052d10       ??_E?$CBufferRefT@PAV?$CBackrefElxT@D@@@@UAEPAXI@Z 00453d10 f i ssph_url.obj
 0001:00052d10       ??_G?$CBufferRefT@PAV?$CBackrefElxT@D@@@@UAEPAXI@Z 00453d10 f i ssph_url.obj
 0001:00052d40       ??_G?$CBufferT@PAV?$CBackrefElxT@D@@@@UAEPAXI@Z 00453d40 f i ssph_url.obj
 0001:00052d40       ??_E?$CBufferT@PAV?$CBackrefElxT@D@@@@UAEPAXI@Z 00453d40 f i ssph_url.obj
 0001:00052d70       ??_E?$CBufferRefT@PAV?$CConditionElxT@D@@@@UAEPAXI@Z 00453d70 f i ssph_url.obj
 0001:00052d70       ??_G?$CBufferRefT@PAV?$CConditionElxT@D@@@@UAEPAXI@Z 00453d70 f i ssph_url.obj
 0001:00052da0       ??_E?$CBufferT@PAV?$CConditionElxT@D@@@@UAEPAXI@Z 00453da0 f i ssph_url.obj
 0001:00052da0       ??_G?$CBufferT@PAV?$CConditionElxT@D@@@@UAEPAXI@Z 00453da0 f i ssph_url.obj
 0001:00052dd0       ?At@?$CBufferRefT@H@@QBEHHH@Z 00453dd0 f i ssph_url.obj
 0001:00052df0       ??0?$CBufferRefT@D@@QAE@PBD@Z 00453df0 f i ssph_url.obj
 0001:00052e30       ??0?$CBuilderT@D@@QAE@XZ   00453e30 f i ssph_url.obj
 0001:00052f70       ?Compile@?$CRegexpT@D@@QAEXPBDHH@Z 00453f70 f i ssph_url.obj
 0001:00053060       ?Match@?$CRegexpT@D@@QBE?AV?$MatchResultT@$0A@@@PBDHHPAVCContext@@@Z 00454060 f i ssph_url.obj
 0001:000531e0       ??0?$CBufferRefT@G@@QAE@PBG@Z 004541e0 f i ssph_url.obj
 0001:00053220       ??0CHART_INFO@?$CBuilderT@D@@QAE@DHHH@Z 00454220 f i ssph_url.obj
 0001:00053240       ?Build@?$CBuilderT@D@@QAEPAVElxInterface@@ABV?$CBufferRefT@D@@H@Z 00454240 f i ssph_url.obj
 0001:000538f0       ?Match@?$CRegexpT@D@@QBE?AV?$MatchResultT@$0A@@@PAVCContext@@@Z 004548f0 f i ssph_url.obj
 0001:00053bc0       ?BuildAlternative@?$CBuilderT@D@@IAEPAVElxInterface@@H@Z 00454bc0 f i ssph_url.obj
 0001:00053f40       ??0?$CBufferRefT@PAV?$CConditionElxT@D@@@@QAE@PBQAV?$CConditionElxT@D@@H@Z 00454f40 f i ssph_url.obj
 0001:00053f60       ?SetMaxLength@?$CBufferT@H@@QAEXH@Z 00454f60 f i ssph_url.obj
 0001:00053f60       ?SetMaxLength@?$CBufferT@PAV?$CConditionElxT@G@@@@QAEXH@Z 00454f60 f i ssph_url.obj
 0001:00053f60       ?SetMaxLength@?$CBufferT@PAV?$CDelegateElxT@G@@@@QAEXH@Z 00454f60 f i ssph_url.obj
 0001:00053f60       ?SetMaxLength@?$CBufferT@PAV?$CBackrefElxT@G@@@@QAEXH@Z 00454f60 f i ssph_url.obj
 0001:00053f60       ?SetMaxLength@?$CBufferT@PAV?$CDelegateElxT@D@@@@QAEXH@Z 00454f60 f i ssph_url.obj
 0001:00053f60       ?SetMaxLength@?$CBufferT@PAV?$CListElxT@$0A@@@@@QAEXH@Z 00454f60 f i ssph_url.obj
 0001:00053f60       ?SetMaxLength@?$CBufferT@PAV?$CConditionElxT@D@@@@QAEXH@Z 00454f60 f i ssph_url.obj
 0001:00053f60       ?SetMaxLength@?$CBufferT@PAV?$CBackrefElxT@D@@@@QAEXH@Z 00454f60 f i ssph_url.obj
 0001:00053fc0       ??8CHART_INFO@?$CBuilderT@D@@QBEHABU01@@Z 00454fc0 f i ssph_url.obj
 0001:00053ff0       ?GetNext2@?$CBuilderT@D@@IAEHXZ 00454ff0 f i ssph_url.obj
 0001:00054a60       ?BuildList@?$CBuilderT@D@@IAEPAVElxInterface@@AAH@Z 00455a60 f i ssph_url.obj
 0001:00054ca0       ?GetStockElx@?$CBuilderT@D@@IAEPAVElxInterface@@H@Z 00455ca0 f i ssph_url.obj
 0001:000559f0       ?nCompareNoCase@?$CBufferRefT@D@@QBEHPBD@Z 004569f0 f i ssph_url.obj
 0001:00055a70       ?BuildRepeat@?$CBuilderT@D@@IAEPAVElxInterface@@AAH@Z 00456a70 f i ssph_url.obj
 0001:00056390       ?MoveNext@?$CBuilderT@D@@IAEXXZ 00457390 f i ssph_url.obj
 0001:00056410       ?Match@?$CRangeElxT@D@@UBEHPAVCContext@@@Z 00457410 f i ssph_url.obj
 0001:00056500       ?MatchNext@?$CRangeElxT@D@@UBEHPAVCContext@@@Z 00457500 f i ssph_url.obj
 0001:00056500       ?MatchNext@?$CRangeElxT@G@@UBEHPAVCContext@@@Z 00457500 f i ssph_url.obj
 0001:00056520       ??0?$CRangeElxT@D@@QAE@HH@Z 00457520 f i ssph_url.obj
 0001:00056570       ?Push@?$CBufferT@D@@QAEXD@Z 00457570 f i ssph_url.obj
 0001:000565c0       ??_E?$CRangeElxT@D@@UAEPAXI@Z 004575c0 f i ssph_url.obj
 0001:000565c0       ??_G?$CRangeElxT@D@@UAEPAXI@Z 004575c0 f i ssph_url.obj
 0001:000565f0       ??1?$CRangeElxT@D@@UAE@XZ  004575f0 f i ssph_url.obj
 0001:00056660       ?BuildCharset@?$CBuilderT@D@@IAEPAVElxInterface@@AAH@Z 00457660 f i ssph_url.obj
 0001:00057670       ?BuildRecursive@?$CBuilderT@D@@IAEPAVElxInterface@@AAH@Z 00458670 f i ssph_url.obj
 0001:00059530       ?Match@?$CBracketElxT@D@@UBEHPAVCContext@@@Z 0045a530 f i ssph_url.obj
 0001:00059530       ?Match@?$CBracketElxT@G@@UBEHPAVCContext@@@Z 0045a530 f i ssph_url.obj
 0001:00059910       ?Match@?$CDelegateElxT@G@@UBEHPAVCContext@@@Z 0045a910 f i ssph_url.obj
 0001:00059910       ?Match@?$CDelegateElxT@D@@UBEHPAVCContext@@@Z 0045a910 f i ssph_url.obj
 0001:00059950       ?MatchNext@?$CDelegateElxT@D@@UBEHPAVCContext@@@Z 0045a950 f i ssph_url.obj
 0001:00059950       ?MatchNext@?$CDelegateElxT@G@@UBEHPAVCContext@@@Z 0045a950 f i ssph_url.obj
 0001:00059970       ?Match@?$CConditionElxT@D@@UBEHPAVCContext@@@Z 0045a970 f i ssph_url.obj
 0001:00059970       ?Match@?$CConditionElxT@G@@UBEHPAVCContext@@@Z 0045a970 f i ssph_url.obj
 0001:00059b50       ?MatchNext@?$CConditionElxT@D@@UBEHPAVCContext@@@Z 0045ab50 f i ssph_url.obj
 0001:00059b50       ?MatchNext@?$CConditionElxT@G@@UBEHPAVCContext@@@Z 0045ab50 f i ssph_url.obj
 0001:00059cb0       ??A?$CBufferRefT@D@@QBEDH@Z 0045acb0 f i ssph_url.obj
 0001:00059cd0       ?ReadDec@?$CBuilderT@D@@KAHAAPADAAI@Z 0045acd0 f i ssph_url.obj
 0001:00059d80       ?BuildBoundary@?$CBuilderT@D@@IAEPAVElxInterface@@AAH@Z 0045ad80 f i ssph_url.obj
 0001:0005a060       ?BuildBackref@?$CBuilderT@D@@IAEPAVElxInterface@@AAH@Z 0045b060 f i ssph_url.obj
 0001:0005a560       ?Match@?$CBackrefElxT@D@@UBEHPAVCContext@@@Z 0045b560 f i ssph_url.obj
 0001:0005a840       ?MatchNext@?$CBackrefElxT@D@@UBEHPAVCContext@@@Z 0045b840 f i ssph_url.obj
 0001:0005a870       ??0?$CStringElxT@D@@QAE@PBDHHH@Z 0045b870 f i ssph_url.obj
 0001:0005a8e0       ?Match@?$CStringElxT@D@@UBEHPAVCContext@@@Z 0045b8e0 f i ssph_url.obj
 0001:0005aac0       ?MatchNext@?$CStringElxT@D@@UBEHPAVCContext@@@Z 0045bac0 f i ssph_url.obj
 0001:0005aaf0       ??_G?$CStringElxT@D@@UAEPAXI@Z 0045baf0 f i ssph_url.obj
 0001:0005aaf0       ??_E?$CStringElxT@D@@UAEPAXI@Z 0045baf0 f i ssph_url.obj
 0001:0005ab20       ??1?$CStringElxT@D@@UAE@XZ 0045bb20 f i ssph_url.obj
 0001:0005ab50       ?Match@?$CPosixElxT@D@@UBEHPAVCContext@@@Z 0045bb50 f i ssph_url.obj
 0001:0005abe0       ?MatchNext@?$CPosixElxT@G@@UBEHPAVCContext@@@Z 0045bbe0 f i ssph_url.obj
 0001:0005abe0       ?MatchNext@?$CPosixElxT@D@@UBEHPAVCContext@@@Z 0045bbe0 f i ssph_url.obj
 0001:0005ac00       ?IsContainChar@?$CRangeElxT@D@@QBEHD@Z 0045bc00 f i ssph_url.obj
 0001:0005ac60       ??0?$CBracketElxT@D@@QAE@HH@Z 0045bc60 f i ssph_url.obj
 0001:0005acb0       ??0?$CDelegateElxT@D@@QAE@H@Z 0045bcb0 f i ssph_url.obj
 0001:0005ace0       ?Push@?$CBufferT@PAV?$CDelegateElxT@G@@@@QAEXPAV?$CDelegateElxT@G@@@Z 0045bce0 f i ssph_url.obj
 0001:0005ace0       ?Push@?$CBufferT@PAV?$CDelegateElxT@D@@@@QAEXPAV?$CDelegateElxT@D@@@Z 0045bce0 f i ssph_url.obj
 0001:0005ace0       ?Push@?$CBufferT@PAV?$CConditionElxT@G@@@@QAEXPAV?$CConditionElxT@G@@@Z 0045bce0 f i ssph_url.obj
 0001:0005ace0       ?Push@?$CBufferT@H@@QAEXH@Z 0045bce0 f i ssph_url.obj
 0001:0005ace0       ?Push@?$CBufferT@PAV?$CConditionElxT@D@@@@QAEXPAV?$CConditionElxT@D@@@Z 0045bce0 f i ssph_url.obj
 0001:0005ace0       ?Push@?$CBufferT@PAVElxInterface@@@@QAEXPAVElxInterface@@@Z 0045bce0 f i ssph_url.obj
 0001:0005ad40       ?Match@?$CBoundaryElxT@D@@UBEHPAVCContext@@@Z 0045bd40 f i ssph_url.obj
 0001:0005afa0       ??0?$CBackrefElxT@D@@QAE@HHH@Z 0045bfa0 f i ssph_url.obj
 0001:0005afe0       ??_G?$CBracketElxT@D@@UAEPAXI@Z 0045bfe0 f i ssph_url.obj
 0001:0005afe0       ??_E?$CBracketElxT@D@@UAEPAXI@Z 0045bfe0 f i ssph_url.obj
 0001:0005b010       ??_G?$CDelegateElxT@D@@UAEPAXI@Z 0045c010 f i ssph_url.obj
 0001:0005b010       ??_E?$CDelegateElxT@D@@UAEPAXI@Z 0045c010 f i ssph_url.obj
 0001:0005b040       ??_G?$CConditionElxT@D@@UAEPAXI@Z 0045c040 f i ssph_url.obj
 0001:0005b040       ??_E?$CConditionElxT@D@@UAEPAXI@Z 0045c040 f i ssph_url.obj
 0001:0005b070       ??_G?$CBackrefElxT@D@@UAEPAXI@Z 0045c070 f i ssph_url.obj
 0001:0005b070       ??_E?$CBackrefElxT@D@@UAEPAXI@Z 0045c070 f i ssph_url.obj
 0001:0005b0a0       ??1?$CBracketElxT@D@@UAE@XZ 0045c0a0 f i ssph_url.obj
 0001:0005b0f0       ??1?$CDelegateElxT@D@@UAE@XZ 0045c0f0 f i ssph_url.obj
 0001:0005b120       ??1?$CConditionElxT@D@@UAE@XZ 0045c120 f i ssph_url.obj
 0001:0005b150       ??1?$CBackrefElxT@D@@UAE@XZ 0045c150 f i ssph_url.obj
 0001:0005b180       ?Detach@?$CBufferT@D@@QAEPADXZ 0045c180 f i ssph_url.obj
 0001:0005b180       ?Detach@?$CBufferT@G@@QAEPAGXZ 0045c180 f i ssph_url.obj
 0001:0005b190       _MyAlloc                   0045c190 f   Alloc.obj
 0001:0005b1b0       _MyFree                    0045c1b0 f   Alloc.obj
 0001:0005b1d0       _MidAlloc                  0045c1d0 f   Alloc.obj
 0001:0005b1f0       _MidFree                   0045c1f0 f   Alloc.obj
 0001:0005b210       _BigAlloc                  0045c210 f   Alloc.obj
 0001:0005b270       _BigFree                   0045c270 f   Alloc.obj
 0001:0005b350       _z7_AlignedAlloc           0045c350 f   Alloc.obj
 0001:0005b3d0       _BZ2_bz__AssertH__fail     0045c3d0 f   bzlib.obj
 0001:0005b440       _BZ2_bzDecompressInit@12   0045c440 f   bzlib.obj
 0001:0005b520       _BZ2_indexIntoF            0045c520 f   bzlib.obj
 0001:0005b550       _BZ2_bzDecompress@4        0045c550 f   bzlib.obj
 0001:0005c4d0       _BZ2_bzDecompressEnd@4     0045d4d0 f   bzlib.obj
 0001:0005c570       _BZ2_bzlibVersion@0        0045d570 f   bzlib.obj
 0001:0005c580       _decrypt_byte              0045d580 f   crypt.obj
 0001:0005c5a0       _update_keys               0045d5a0 f   crypt.obj
 0001:0005c600       _init_keys                 0045d600 f   crypt.obj
 0001:0005c650       _cryptrand                 0045d650 f   crypt.obj
 0001:0005c6e0       _BZ2_decompress            0045d6e0 f   decompress.obj
 0001:0005ec50       _fcrypt_init               0045fc50 f   fileenc_openssl.obj
 0001:0005eed0       _fcrypt_decrypt            0045fed0 f   fileenc_openssl.obj
 0001:0005ef00       _fcrypt_end                0045ff00 f   fileenc_openssl.obj
 0001:0005ef70       _BZ2_hbCreateDecodeTables  0045ff70 f   huffman.obj
 0001:0005f070       _call_zopen64              00460070 f   ioapi.obj
 0001:0005f0b0       _call_zopendisk64          004600b0 f   ioapi.obj
 0001:0005f0f0       _call_zseek64              004600f0 f   ioapi.obj
 0001:0005f150       _call_ztell64              00460150 f   ioapi.obj
 0001:0005f2a0       _fill_fopen64_filefunc     004602a0 f   ioapi.obj
 0001:0005f530       _win32_open64_file_funcW   00460530 f   iowin32.obj
 0001:0005f5d0       _win32_opendisk64_file_funcW 004605d0 f   iowin32.obj
 0001:0005f680       _win32_read_file_func      00460680 f   iowin32.obj
 0001:0005f6d0       _win32_write_file_func     004606d0 f   iowin32.obj
 0001:0005f780       _win32_tell64_file_func    00460780 f   iowin32.obj
 0001:0005f7e0       _win32_seek64_file_func    004607e0 f   iowin32.obj
 0001:0005f850       _win32_close_file_func     00460850 f   iowin32.obj
 0001:0005f8a0       _win32_error_file_func     004608a0 f   iowin32.obj
 0001:0005f8c0       _fill_win32_filefunc64W    004608c0 f   iowin32.obj
 0001:0005f910       _LzmaDec_InitDicAndState   00460910 f   LzmaDec.obj
 0001:0005f950       _LzmaDec_Init              00460950 f   LzmaDec.obj
 0001:0005f970       _LzmaDec_DecodeToDic       00460970 f   LzmaDec.obj
 0001:000619e0       _LzmaDec_DecodeToBuf       004629e0 f   LzmaDec.obj
 0001:00061ac0       _LzmaDec_FreeProbs         00462ac0 f   LzmaDec.obj
 0001:00061ae0       _LzmaDec_Free              00462ae0 f   LzmaDec.obj
 0001:00061b20       _LzmaProps_Decode          00462b20 f   LzmaDec.obj
 0001:00061c40       _LzmaDec_Allocate          00462c40 f   LzmaDec.obj
 0001:00062750       _unzOpen2_64               00463750 f   unzip.obj
 0001:000627a0       _unzClose                  004637a0 f   unzip.obj
 0001:00062810       _unzGetGlobalInfo          00463810 f   unzip.obj
 0001:00062f00       _unzGetCurrentFileInfo64   00463f00 f   unzip.obj
 0001:00062f30       _unzOpenCurrentFile3       00463f30 f   unzip.obj
 0001:000639b0       _unzOpenCurrentFile        004649b0 f   unzip.obj
 0001:000639d0       _unzOpenCurrentFilePassword 004649d0 f   unzip.obj
 0001:000639f0       _unzReadCurrentFile        004649f0 f   unzip.obj
 0001:00064410       _unzGetLocalExtrafield     00465410 f   unzip.obj
 0001:000644f0       _unzCloseCurrentFile       004654f0 f   unzip.obj
 0001:00064690       _unzGoToFirstFile2         00465690 f   unzip.obj
 0001:00064730       _unzGoToFirstFile          00465730 f   unzip.obj
 0001:00064750       _unzGoToNextFile2          00465750 f   unzip.obj
 0001:00064850       _unzGoToNextFile           00465850 f   unzip.obj
 0001:00064870       _unzSetOffset              00465870 f   unzip.obj
 0001:00064890       _unzSetOffset64            00465890 f   unzip.obj
 0001:00064900       ??0CUnzipper@@QAE@PBG@Z    00465900 f   Unzipper.obj
 0001:000649b0       ??_ECUnzipper@@UAEPAXI@Z   004659b0 f i Unzipper.obj
 0001:000649b0       ??_GCUnzipper@@UAEPAXI@Z   004659b0 f i Unzipper.obj
 0001:000649e0       ??1CUnzipper@@UAE@XZ       004659e0 f   Unzipper.obj
 0001:00064a60       ?CloseZip@CUnzipper@@QAE_NXZ 00465a60 f   Unzipper.obj
 0001:00064a90       ?OpenZip@CUnzipper@@QAE_NPBGK@Z 00465a90 f   Unzipper.obj
 0001:00064b90       ?GetFileCount@CUnzipper@@QAEHXZ 00465b90 f   Unzipper.obj
 0001:00064bc0       ?GotoFirstFile@CUnzipper@@QAE_NPBG@Z 00465bc0 f   Unzipper.obj
 0001:00064cb0       ?GotoNextFile@CUnzipper@@QAE_NPBG@Z 00465cb0 f   Unzipper.obj
 0001:00064d90       ?ProcessExtra@CUnzipper@@AAEXAAUUZ_FileInfo@@_NPBEK@Z 00465d90 f   Unzipper.obj
 0001:00065300       ?ProcessFilePath@CUnzipper@@AAEXAAUUZ_FileInfo@@AAVJWString@@AAVJString@@@Z 00466300 f   Unzipper.obj
 0001:00065410       ?GetFileInfo@CUnzipper@@QAE_NAAUUZ_FileInfo@@@Z 00466410 f   Unzipper.obj
 0001:000657b0       ?OpenCurrentFile@CUnzipper@@AAEHAAUUZ_FileInfo@@@Z 004667b0 f   Unzipper.obj
 0001:00065920       ?UnzipFile@CUnzipper@@QAE_NAAUUZ_FileInfo@@PBG_N@Z 00466920 f   Unzipper.obj
 0001:00065d90       ?CreateFolder@CUnzipper@@AAE_NPBG@Z 00466d90 f   Unzipper.obj
 0001:00065db0       ?CreateFilePath@CUnzipper@@AAE_NPBG@Z 00466db0 f   Unzipper.obj
 0001:00065e10       ?SetPassword@CUnzipper@@QAEXPBD@Z 00466e10 f   Unzipper.obj
 0001:00065e40       ??_9@$BME@AE               00466e40 f i uafxcw:dlgcore.obj
 0001:00065e50       ??_9@$BMI@AE               00466e50 f i uafxcw:dlgcore.obj
 0001:00065e60       _IsPlatformNT              00466e60 f   uafxcw:wincore.obj
 0001:00065eb0       _InitMultipleMonitorStubs  00466eb0 f   uafxcw:wincore.obj
 0001:00065fd0       _xMonitorFromRect@8        00466fd0 f   uafxcw:wincore.obj
 0001:00066040       _xMonitorFromWindow@8      00467040 f   uafxcw:wincore.obj
 0001:000660c0       _xGetMonitorInfo@8         004670c0 f   uafxcw:wincore.obj
 0001:000661c0       ??3CObject@@SGXPAX@Z       004671c0 f i uafxcw:wincore.obj
 0001:000661e0       ??1CWaitCursor@@QAE@XZ     004671e0 f i uafxcw:wincore.obj
 0001:000661f0       ??0CResourceException@@QAE@HI@Z 004671f0 f i uafxcw:wingdi.obj
 0001:00066220       ??_ECResourceException@@UAEPAXI@Z 00467220 f i uafxcw:wingdi.obj
 0001:00066220       ??_GCResourceException@@UAEPAXI@Z 00467220 f i uafxcw:wingdi.obj
 0001:00066250       ??1CResourceException@@UAE@XZ 00467250 f i uafxcw:wingdi.obj
 0001:00066260       ??0CUserException@@QAE@HI@Z 00467260 f i uafxcw:wingdi.obj
 0001:00066290       ??_ECUserException@@UAEPAXI@Z 00467290 f i uafxcw:wingdi.obj
 0001:00066290       ??_GCUserException@@UAEPAXI@Z 00467290 f i uafxcw:wingdi.obj
 0001:000662c0       ??1CUserException@@UAE@XZ  004672c0 f i uafxcw:wingdi.obj
 0001:000662d0       ??_GCPen@@UAEPAXI@Z        004672d0 f i uafxcw:wingdi.obj
 0001:000662d0       ??_ECPen@@UAEPAXI@Z        004672d0 f i uafxcw:wingdi.obj
 0001:00066300       ??_ECBrush@@UAEPAXI@Z      00467300 f i uafxcw:wingdi.obj
 0001:00066300       ??_GCBrush@@UAEPAXI@Z      00467300 f i uafxcw:wingdi.obj
 0001:00066330       ?PtVisible@CDC@@UBEHHH@Z   00467330 f i uafxcw:wingdi.obj
 0001:00066350       ?RectVisible@CDC@@UBEHPBUtagRECT@@@Z 00467350 f i uafxcw:wingdi.obj
 0001:00066370       ?TextOutW@CDC@@UAEHHHPBGH@Z 00467370 f i uafxcw:wingdi.obj
 0001:000663a0       ?ExtTextOutW@CDC@@UAEHHHIPBUtagRECT@@PBGIPAH@Z 004673a0 f i uafxcw:wingdi.obj
 0001:000663d0       ?TabbedTextOutW@CDC@@UAE?AVCSize@@HHPBGHHPAHH@Z 004673d0 f i uafxcw:wingdi.obj
 0001:00066410       ?DrawTextW@CDC@@UAEHPBGHPAUtagRECT@@I@Z 00467410 f i uafxcw:wingdi.obj
 0001:00066440       ?GrayStringW@CDC@@UAEHPAVCBrush@@P6GHPAUHDC__@@JH@ZJHHHHH@Z 00467440 f i uafxcw:wingdi.obj
 0001:00066480       ?Escape@CDC@@UAEHHHPBDPAX@Z 00467480 f i uafxcw:wingdi.obj
 0001:000664b0       ??0CMemoryException@@QAE@HI@Z 004674b0 f i uafxcw:except.obj
 0001:000664e0       ??_ECMemoryException@@UAEPAXI@Z 004674e0 f i uafxcw:except.obj
 0001:000664e0       ??_GCMemoryException@@UAEPAXI@Z 004674e0 f i uafxcw:except.obj
 0001:00066510       ??1CMemoryException@@UAE@XZ 00467510 f i uafxcw:except.obj
 0001:00066520       ??0CNotSupportedException@@QAE@HI@Z 00467520 f i uafxcw:except.obj
 0001:00066550       ??_ECNotSupportedException@@UAEPAXI@Z 00467550 f i uafxcw:except.obj
 0001:00066550       ??_GCNotSupportedException@@UAEPAXI@Z 00467550 f i uafxcw:except.obj
 0001:00066580       ??1CNotSupportedException@@UAE@XZ 00467580 f i uafxcw:except.obj
 0001:00066590       ??0CInvalidArgException@@QAE@HI@Z 00467590 f i uafxcw:except.obj
 0001:000665c0       ??_GCInvalidArgException@@UAEPAXI@Z 004675c0 f i uafxcw:except.obj
 0001:000665c0       ??_ECInvalidArgException@@UAEPAXI@Z 004675c0 f i uafxcw:except.obj
 0001:000665f0       ??1CInvalidArgException@@UAE@XZ 004675f0 f i uafxcw:except.obj
 0001:00066600       ??_ECHandleMap@@UAEPAXI@Z  00467600 f i uafxcw:winhand.obj
 0001:00066600       ??_GCHandleMap@@UAEPAXI@Z  00467600 f i uafxcw:winhand.obj
 0001:00066630       ??1CHandleMap@@UAE@XZ      00467630 f i uafxcw:winhand.obj
 0001:00066690       ??_ECMenu@@UAEPAXI@Z       00467690 f i uafxcw:winmenu.obj
 0001:00066690       ??_GCMenu@@UAEPAXI@Z       00467690 f i uafxcw:winmenu.obj
 0001:000666c0       ??1CMenu@@UAE@XZ           004676c0 f i uafxcw:winmenu.obj
 0001:00066700       ??0CFixedAlloc@@QAE@II@Z   00467700 f   uafxcw:fixalloc.obj
 0001:000667a0       ??1CFixedAlloc@@QAE@XZ     004677a0 f   uafxcw:fixalloc.obj
 0001:000667c0       ?FreeAll@CFixedAlloc@@QAEXXZ 004677c0 f   uafxcw:fixalloc.obj
 0001:000667f0       ?Alloc@CFixedAlloc@@QAEPAXXZ 004677f0 f   uafxcw:fixalloc.obj
 0001:000668a0       ?Free@CFixedAlloc@@QAEXPAX@Z 004678a0 f   uafxcw:fixalloc.obj
 0001:000668d0       _wWinMainCRTStartup        004678d0 f   libcmt:wwincrt0.obj
 0001:000669d7       __amsg_exit                004679d7 f   libcmt:wwincrt0.obj
 0001:00066a20       __allrem                   00467a20 f   libcmt:llrem.obj
 0001:00066ae0       __allshr                   00467ae0 f   libcmt:llshr.obj
 0001:00066b01       __lseeki64                 00467b01 f   libcmt:lseeki64.obj
 0001:00066b72       __lseeki64_lk              00467b72 f   libcmt:lseeki64.obj
 0001:00066bf7       _free                      00467bf7 f   libcmt:free.obj
 0001:00066ce0       __wsopen                   00467ce0 f   libcmt:wopen.obj
 0001:00066fb0       __snprintf                 00467fb0 f   libcmt:snprintf.obj
 0001:00067001       _malloc                    00468001 f   libcmt:malloc.obj
 0001:00067013       __nh_malloc                00468013 f   libcmt:malloc.obj
 0001:0006703f       __heap_alloc               0046803f f   libcmt:malloc.obj
 0001:0006713b       _strerror                  0046813b f   libcmt:strerror.obj
 0001:0006718b       __dosmaperr                0046818b f   libcmt:dosmap.obj
 0001:000671fe       __errno                    004681fe f   libcmt:dosmap.obj
 0001:00067207       ___doserrno                00468207 f   libcmt:dosmap.obj
 0001:00067210       _memchr                    00468210 f   libcmt:memchr.obj
 0001:000672b5       __vsnprintf                004682b5 f   libcmt:vsnprint.obj
 0001:00067310       _memmove                   00468310 f   libcmt:memmove.obj
 0001:00067650       ?_JumpToContinuation@@YGXPAXPAUEHRegistrationNode@@@Z 00468650 f   libcmt:trnsctrl.obj
 0001:00067684       ?_CallMemberFunction0@@YGXPAX0@Z 00468684 f   libcmt:trnsctrl.obj
 0001:00067684       ?_CallMemberFunction1@@YGXPAX00@Z 00468684 f   libcmt:trnsctrl.obj
 0001:0006768b       ?_CallMemberFunction2@@YGXPAX00H@Z 0046868b f   libcmt:trnsctrl.obj
 0001:00067692       ?_UnwindNestedFrames@@YGXPAUEHRegistrationNode@@PAUEHExceptionRecord@@@Z 00468692 f   libcmt:trnsctrl.obj
 0001:000676e1       ___CxxFrameHandler         004686e1 f   libcmt:trnsctrl.obj
 0001:00067717       ?_CallCatchBlock2@@YAPAXPAUEHRegistrationNode@@PBU_s_FuncInfo@@PAXHK@Z 00468717 f   libcmt:trnsctrl.obj
 0001:00067790       ?_CallSETranslator@@YAHPAUEHExceptionRecord@@PAUEHRegistrationNode@@PAX2PBU_s_FuncInfo@@H1@Z 00468790 f   libcmt:trnsctrl.obj
 0001:000678bb       ?_GetRangeOfTrysToCheck@@YAPBU_s_TryBlockMapEntry@@PBU_s_FuncInfo@@HHPAI1@Z 004688bb f   libcmt:trnsctrl.obj
 0001:00067938       __global_unwind2           00468938 f   libcmt:exsup.obj
 0001:0006797a       __local_unwind2            0046897a f   libcmt:exsup.obj
 0001:000679d2       __NLG_Return2              004689d2 f   libcmt:exsup.obj
 0001:000679e2       __abnormal_termination     004689e2 f   libcmt:exsup.obj
 0001:00067a05       __NLG_Notify1              00468a05 f   libcmt:exsup.obj
 0001:00067a0e       __NLG_Notify               00468a0e f   libcmt:exsup.obj
 0001:00067a21       __NLG_Dispatch             00468a21 f   libcmt:exsup.obj
 0001:00067a26       __onexit                   00468a26 f   libcmt:onexit.obj
 0001:00067aa4       _atexit                    00468aa4 f   libcmt:onexit.obj
 0001:00067ab6       ___onexitinit              00468ab6 f   libcmt:onexit.obj
 0001:00067ae5       ??1type_info@@UAE@XZ       00468ae5 f   libcmt:typinfo.obj
 0001:00067b0e       ??_Etype_info@@UAEPAXI@Z   00468b0e f i libcmt:typinfo.obj
 0001:00067b0e       ??_Gtype_info@@UAEPAXI@Z   00468b0e f i libcmt:typinfo.obj
 0001:00067b2a       ??_M@YGXPAXIHP6EX0@Z@Z     00468b2a f   libcmt:ehvecdtr.obj
 0001:00067baa       ?__ArrayUnwind@@YGXPAXIHP6EX0@Z@Z 00468baa f   libcmt:ehvecdtr.obj
 0001:00067c08       ??_L@YGXPAXIHP6EX0@Z1@Z    00468c08 f   libcmt:ehvecctr.obj
 0001:00067c8a       _wcsrchr                   00468c8a f   libcmt:wcsrchr.obj
 0001:00067cd0       __chkstk                   00468cd0 f   libcmt:chkstk.obj
 0001:00067cd0       __alloca_probe             00468cd0 f   libcmt:chkstk.obj
 0001:00067cff       __wcsicmp                  00468cff f   libcmt:wcsicmp.obj
 0001:00067dde       _wcscmp                    00468dde f   libcmt:wcscmp.obj
 0001:00067e13       _sprintf                   00468e13 f   libcmt:sprintf.obj
 0001:00067e65       _wcschr                    00468e65 f   libcmt:wcschr.obj
 0001:00067e8e       _wcsncpy                   00468e8e f   libcmt:wcsncpy.obj
 0001:00067ecb       _wcsncmp                   00468ecb f   libcmt:wcsncmp.obj
 0001:00067f03       _wcsncat                   00468f03 f   libcmt:wcsncat.obj
 0001:00067f43       _wcscat                    00468f43 f   libcmt:wcscat.obj
 0001:00067f6d       _wcscpy                    00468f6d f   libcmt:wcscat.obj
 0001:00067f92       _realloc                   00468f92 f   libcmt:realloc.obj
 0001:000682c1       __fpmath                   004692c1 f   libcmt:fpinit.obj
 0001:000682d8       __fpclear                  004692d8 f   libcmt:fpinit.obj
 0001:000682d9       __cfltcvt_init             004692d9 f   libcmt:fpinit.obj
 0001:00068314       __ftol                     00469314 f   libcmt:ftol.obj
 0001:0006833b       _swprintf                  0046933b f   libcmt:swprintf.obj
 0001:000683aa       _wcstol                    004693aa f   libcmt:wcstol.obj
 0001:00068568       _wcstoul                   00469568 f   libcmt:wcstol.obj
 0001:00068580       _strstr                    00469580 f   libcmt:strstr.obj
 0001:00068600       _time                      00469600 f   libcmt:time.obj
 0001:000686dc       _fclose                    004696dc f   libcmt:fclose.obj
 0001:0006870d       __fclose_lk                0046970d f   libcmt:fclose.obj
 0001:00068759       _fwrite                    00469759 f   libcmt:fwrite.obj
 0001:00068788       __fwrite_lk                00469788 f   libcmt:fwrite.obj
 0001:00068892       __wfsopen                  00469892 f   libcmt:wfopen.obj
 0001:000688c3       __wfopen                   004698c3 f   libcmt:wfopen.obj
 0001:000688e0       _strncpy                   004698e0 f   libcmt:strncpy.obj
 0001:000689de       _calloc                    004699de f   libcmt:calloc.obj
 0001:00068b1b       _strtol                    00469b1b f   libcmt:strtol.obj
 0001:00068d37       _strtoul                   00469d37 f   libcmt:strtol.obj
 0001:00068d60       _strchr                    00469d60 f   libcmt:strchr.obj
 0001:00068d66       ___from_strstr_to_strchr   00469d66 f   libcmt:strchr.obj
 0001:00068e20       _strncmp                   00469e20 f   libcmt:strncmp.obj
 0001:00068e58       __beginthreadex            00469e58 f   libcmt:threadex.obj
 0001:00068f89       __endthreadex              00469f89 f   libcmt:threadex.obj
 0001:00068fbb       __setmbcp                  00469fbb f   libcmt:mbctype.obj
 0001:00069393       ___initmbctable            0046a393 f   libcmt:mbctype.obj
 0001:000693af       _setlocale                 0046a3af f   libcmt:setlocal.obj
 0001:000697c9       __expandlocale             0046a7c9 f   libcmt:setlocal.obj
 0001:000698e1       __strcats                  0046a8e1 f   libcmt:setlocal.obj
 0001:00069906       ___lc_strtolc              0046a906 f   libcmt:setlocal.obj
 0001:000699d2       ___lc_lctostr              0046a9d2 f   libcmt:setlocal.obj
 0001:00069a25       _wcsstr                    0046aa25 f   libcmt:wcsstr.obj
 0001:00069a66       _isalpha                   0046aa66 f   libcmt:_ctype.obj
 0001:00069a94       _isupper                   0046aa94 f   libcmt:_ctype.obj
 0001:00069abc       _islower                   0046aabc f   libcmt:_ctype.obj
 0001:00069ae4       _isdigit                   0046aae4 f   libcmt:_ctype.obj
 0001:00069b0c       _isxdigit                  0046ab0c f   libcmt:_ctype.obj
 0001:00069b39       _isspace                   0046ab39 f   libcmt:_ctype.obj
 0001:00069b61       _ispunct                   0046ab61 f   libcmt:_ctype.obj
 0001:00069b89       _isalnum                   0046ab89 f   libcmt:_ctype.obj
 0001:00069bb7       _isprint                   0046abb7 f   libcmt:_ctype.obj
 0001:00069be5       _isgraph                   0046abe5 f   libcmt:_ctype.obj
 0001:00069c13       _iscntrl                   0046ac13 f   libcmt:_ctype.obj
 0001:00069c3b       ___isascii                 0046ac3b f   libcmt:_ctype.obj
 0001:00069c48       ___initstdio               0046ac48 f   libcmt:_file.obj
 0001:00069cf0       ___endstdio                0046acf0 f   libcmt:_file.obj
 0001:00069d04       __lock_file                0046ad04 f   libcmt:_file.obj
 0001:00069d33       __lock_file2               0046ad33 f   libcmt:_file.obj
 0001:00069d56       __unlock_file              0046ad56 f   libcmt:_file.obj
 0001:00069d85       __unlock_file2             0046ad85 f   libcmt:_file.obj
 0001:00069db0       __allmul                   0046adb0 f   libcmt:llmul.obj
 0001:00069df0       __alldiv                   0046adf0 f   libcmt:lldiv.obj
 0001:00069e9a       _iswspace                  0046ae9a f   libcmt:_wctype.obj
 0001:00069eb0       __aullrem                  0046aeb0 f   libcmt:ullrem.obj
 0001:00069f30       __aulldiv                  0046af30 f   libcmt:ulldiv.obj
 0001:00069fa0       _strrchr                   0046afa0 f   libcmt:strrchr.obj
 0001:00069fc7       __mbsrchr                  0046afc7 f   libcmt:mbsrchr.obj
 0001:0006a039       __expand                   0046b039 f   libcmt:expand.obj
 0001:0006a19d       __msize                    0046b19d f   libcmt:msize.obj
 0001:0006a28b       _signal                    0046b28b f   libcmt:winsig.obj
 0001:0006a46f       _raise                     0046b46f f   libcmt:winsig.obj
 0001:0006a62e       ?set_terminate@@YAP6AXXZP6AXXZ@Z 0046b62e f   libcmt:user.obj
 0001:0006a647       ?set_unexpected@@YAP6AXXZP6AXXZ@Z 0046b647 f   libcmt:user.obj
 0001:0006a660       _fflush                    0046b660 f   libcmt:fflush.obj
 0001:0006a68f       __fflush_lk                0046b68f f   libcmt:fflush.obj
 0001:0006a6bd       __flush                    0046b6bd f   libcmt:fflush.obj
 0001:0006a719       __flushall                 0046b719 f   libcmt:fflush.obj
 0001:0006a7d0       __except_handler3          0046b7d0 f   libcmt:exsup3.obj
 0001:0006a88d       __seh_longjmp_unwind@4     0046b88d f   libcmt:exsup3.obj
 0001:0006a8a8       _fwprintf                  0046b8a8 f   libcmt:fwprintf.obj
 0001:0006a8e4       _fprintf                   0046b8e4 f   libcmt:fprintf.obj
 0001:0006a920       _fputs                     0046b920 f   libcmt:fputs.obj
 0001:0006a96e       __fsopen                   0046b96e f   libcmt:fopen.obj
 0001:0006a99f       _fopen                     0046b99f f   libcmt:fopen.obj
 0001:0006a9b2       _fputws                    0046b9b2 f   libcmt:fputws.obj
 0001:0006aa00       __aullshr                  0046ba00 f   libcmt:ullshr.obj
 0001:0006aa1f       _qsort                     0046ba1f f   libcmt:qsort.obj
 0001:0006abed       _toupper                   0046bbed f   libcmt:toupper.obj
 0001:0006ac5c       __toupper_lk               0046bc5c f   libcmt:toupper.obj
 0001:0006ad28       _tolower                   0046bd28 f   libcmt:tolower.obj
 0001:0006ad97       __tolower_lk               0046bd97 f   libcmt:tolower.obj
 0001:0006ae62       _bsearch                   0046be62 f   libcmt:bsearch.obj
 0001:0006aeee       __CxxThrowException@8      0046beee f   libcmt:throw.obj
 0001:0006af28       _longjmp                   0046bf28 f   libcmt:longjmp.obj
 0001:0006afa4       __setjmp3                  0046bfa4 f   libcmt:setjmp3.obj
 0001:0006b01f       _atof                      0046c01f f   libcmt:atof.obj
 0001:0006b076       __fpieee_flt               0046c076 f   libcmt:filter.obj
 0001:0006b612       __FillOperand              0046c612 f   libcmt:filter.obj
 0001:0006b789       __UpdateFpCtxt             0046c789 f   libcmt:filter.obj
 0001:0006b7c2       __UpdateResult             0046c7c2 f   libcmt:filter.obj
 0001:0006b8d1       __AdjustStack              0046c8d1 f   libcmt:filter.obj
 0001:0006b99b       __AdjustLocation           0046c99b f   libcmt:filter.obj
 0001:0006b9b7       __PreventStackOverwrite    0046c9b7 f   libcmt:filter.obj
 0001:0006b9f1       __IsMemoryLocation         0046c9f1 f   libcmt:filter.obj
 0001:0006ba06       __GetFpRegVal              0046ca06 f   libcmt:filter.obj
 0001:0006ba34       __SetFpRegVal              0046ca34 f   libcmt:filter.obj
 0001:0006baa4       __SetTag                   0046caa4 f   libcmt:filter.obj
 0001:0006bac5       _sscanf                    0046cac5 f   libcmt:sscanf.obj
 0001:0006bb00       __strnicmp                 0046cb00 f   libcmt:strnicmp.obj
 0001:0006bc01       _strtok                    0046cc01 f   libcmt:strtok.obj
 0001:0006bca5       _wcstok                    0046cca5 f   libcmt:wcstok.obj
 0001:0006bd50       _strpbrk                   0046cd50 f   libcmt:strpbrk.obj
 0001:0006bd8a       _wcspbrk                   0046cd8a f   libcmt:wcspbrk.obj
 0001:0006bdd0       _strncat                   0046cdd0 f   libcmt:strncat.obj
 0001:0006bef3       __snwprintf                0046cef3 f   libcmt:snwprint.obj
 0001:0006bf63       __wcsdup                   0046cf63 f   libcmt:wcsdup.obj
 0001:0006bfa0       __allshl                   0046cfa0 f   libcmt:llshl.obj
 0001:0006bfbf       __cinit                    0046cfbf f   libcmt:crt0dat.obj
 0001:0006bfec       _exit                      0046cfec f   libcmt:crt0dat.obj
 0001:0006bffd       __exit                     0046cffd f   libcmt:crt0dat.obj
 0001:0006c0b3       __lockexit                 0046d0b3 f   libcmt:crt0dat.obj
 0001:0006c0bc       __unlockexit               0046d0bc f   libcmt:crt0dat.obj
 0001:0006c0df       _fread                     0046d0df f   libcmt:fread.obj
 0001:0006c10e       __fread_lk                 0046d10e f   libcmt:fread.obj
 0001:0006c1f6       __ungetc_lk                0046d1f6 f   libcmt:ungetc.obj
 0001:0006c264       __isctype                  0046d264 f   libcmt:isctype.obj
 0001:0006c2d9       _ftell                     0046d2d9 f   libcmt:ftell.obj
 0001:0006c2fb       __ftell_lk                 0046d2fb f   libcmt:ftell.obj
 0001:0006c45c       _fseek                     0046d45c f   libcmt:fseek.obj
 0001:0006c488       __fseek_lk                 0046d488 f   libcmt:fseek.obj
 0001:0006c515       __ftelli64                 0046d515 f   libcmt:ftelli64.obj
 0001:0006c53d       __ftelli64_lk              0046d53d f   libcmt:ftelli64.obj
 0001:0006c6cd       __fseeki64                 0046d6cd f   libcmt:fseeki64.obj
 0001:0006c6fc       __fseeki64_lk              0046d6fc f   libcmt:fseeki64.obj
 0001:0006c78d       _wcslen                    0046d78d f   libcmt:wcslen.obj
 0001:0006c7aa       __wsplitpath               0046d7aa f   libcmt:wsplitpa.obj
 0001:0006c92e       __wmakepath                0046d92e f   libcmt:wmakepat.obj
 0001:0006c9e4       __XcptFilter               0046d9e4 f   libcmt:winxfltr.obj
 0001:0006cb5c       __wwincmdln                0046db5c f   libcmt:wwncmdln.obj
 0001:0006cba1       __wsetenvp                 0046dba1 f   libcmt:wstdenvp.obj
 0001:0006cc59       __wsetargv                 0046dc59 f   libcmt:wstdargv.obj
 0001:0006ce82       ___crtGetEnvironmentStringsW 0046de82 f   libcmt:w_env.obj
 0001:0006cfef       ___crtGetCommandLineW      0046dfef f   libcmt:aw_com.obj
 0001:0006d090       __ioinit                   0046e090 f   libcmt:ioinit.obj
 0001:0006d24c       __mtinit                   0046e24c f   libcmt:tidtable.obj
 0001:0006d2a0       __initptd                  0046e2a0 f   libcmt:tidtable.obj
 0001:0006d2b3       __getptd                   0046e2b3 f   libcmt:tidtable.obj
 0001:0006d31a       __freeptd                  0046e31a f   libcmt:tidtable.obj
 0001:0006d3ba       __GetLinkerVersion         0046e3ba f   libcmt:heapinit.obj
 0001:0006d3e7       ___heap_select             0046e3e7 f   libcmt:heapinit.obj
 0001:0006d52f       __heap_init                0046e52f f   libcmt:heapinit.obj
 0001:0006d58c       __FF_MSGBANNER             0046e58c f   libcmt:crt0msg.obj
 0001:0006d5c5       __NMSG_WRITE               0046e5c5 f   libcmt:crt0msg.obj
 0001:0006d718       __alloc_osfhnd             0046e718 f   libcmt:osfinfo.obj
 0001:0006d83b       __set_osfhnd               0046e83b f   libcmt:osfinfo.obj
 0001:0006d8b7       __free_osfhnd              0046e8b7 f   libcmt:osfinfo.obj
 0001:0006d936       __get_osfhandle            0046e936 f   libcmt:osfinfo.obj
 0001:0006d978       __lock_fhandle             0046e978 f   libcmt:osfinfo.obj
 0001:0006d9d7       __unlock_fhandle           0046e9d7 f   libcmt:osfinfo.obj
 0001:0006d9f9       ___sbh_heap_init           0046e9f9 f   libcmt:sbheap.obj
 0001:0006da41       ___sbh_find_block          0046ea41 f   libcmt:sbheap.obj
 0001:0006da6c       ___sbh_free_block          0046ea6c f   libcmt:sbheap.obj
 0001:0006dd95       ___sbh_alloc_block         0046ed95 f   libcmt:sbheap.obj
 0001:0006e09e       ___sbh_alloc_new_region    0046f09e f   libcmt:sbheap.obj
 0001:0006e14f       ___sbh_alloc_new_group     0046f14f f   libcmt:sbheap.obj
 0001:0006e24a       ___sbh_resize_block        0046f24a f   libcmt:sbheap.obj
 0001:0006e540       ___old_sbh_new_region      0046f540 f   libcmt:sbheap.obj
 0001:0006e684       ___old_sbh_release_region  0046f684 f   libcmt:sbheap.obj
 0001:0006e6da       ___old_sbh_decommit_pages  0046f6da f   libcmt:sbheap.obj
 0001:0006e79c       ___old_sbh_find_block      0046f79c f   libcmt:sbheap.obj
 0001:0006e7f3       ___old_sbh_free_block      0046f7f3 f   libcmt:sbheap.obj
 0001:0006e838       ___old_sbh_alloc_block     0046f838 f   libcmt:sbheap.obj
 0001:0006ea40       ___old_sbh_alloc_block_from_page 0046fa40 f   libcmt:sbheap.obj
 0001:0006eb64       ___old_sbh_resize_block    0046fb64 f   libcmt:sbheap.obj
 0001:0006ec0d       __mtinitlocks              0046fc0d f   libcmt:mlock.obj
 0001:0006ec36       __lock                     0046fc36 f   libcmt:mlock.obj
 0001:0006ec97       __unlock                   0046fc97 f   libcmt:mlock.obj
 0001:0006ecac       __chsize_lk                0046fcac f   libcmt:chsize.obj
 0001:0006edd1       __read                     0046fdd1 f   libcmt:read.obj
 0001:0006edd1       _read                      0046fdd1 f   libcmt:read.obj
 0001:0006ee36       __read_lk                  0046fe36 f   libcmt:read.obj
 0001:0006f00f       _close                     0047000f f   libcmt:close.obj
 0001:0006f00f       __close                    0047000f f   libcmt:close.obj
 0001:0006f06c       __close_lk                 0047006c f   libcmt:close.obj
 0001:0006f0ef       __lseek                    004700ef f   libcmt:lseek.obj
 0001:0006f154       __lseek_lk                 00470154 f   libcmt:lseek.obj
 0001:0006f1c7       __flsbuf                   004701c7 f   libcmt:_flsbuf.obj
 0001:0006f2df       __output                   004702df f   libcmt:output.obj
 0001:0006fb36       __callnewh                 00470b36 f   libcmt:handler.obj
 0001:0006fb60       _strcpy                    00470b60 f   libcmt:strcat.obj
 0001:0006fb70       _strcat                    00470b70 f   libcmt:strcat.obj
 0001:0006fc50       ___InternalCxxFrameHandler 00470c50 f   libcmt:frame.obj
 0001:0006ffa5       ___FrameUnwindToState      00470fa5 f   libcmt:frame.obj
 0001:000703dd       ?_DestructExceptionObject@@YAXPAUEHExceptionRecord@@E@Z 004713dd f   libcmt:frame.obj
 0001:00070470       __CallSettingFrame@12      00471470 f   libcmt:lowhelpr.obj
 0001:00070497       __NLG_Return               00471497 f   libcmt:lowhelpr.obj
 0001:000704bc       ?terminate@@YAXXZ          004714bc f   libcmt:hooks.obj
 0001:0007051d       ?_inconsistency@@YAXXZ     0047151d f   libcmt:hooks.obj
 0001:00070580       _strcmp                    00471580 f   libcmt:strcmp.obj
 0001:00070604       __towlower_lk              00471604 f   libcmt:towlower.obj
 0001:00070680       _memcpy                    00471680 f   libcmt:memcpy.obj
 0001:000709b5       __setdefaultprecision      004719b5 f   libcmt:fp8.obj
 0001:000709c7       __ms_p5_test_fdiv          004719c7 f   libcmt:testfdiv.obj
 0001:00070a05       __ms_p5_mp_test_fdiv       00471a05 f   libcmt:testfdiv.obj
 0001:00070a2e       __forcdecpt                00471a2e f   libcmt:cvt.obj
 0001:00070a88       __cropzeros                00471a88 f   libcmt:cvt.obj
 0001:00070ad6       __positive                 00471ad6 f   libcmt:cvt.obj
 0001:00070aee       __fassign                  00471aee f   libcmt:cvt.obj
 0001:00070b2c       __cftoe                    00471b2c f   libcmt:cvt.obj
 0001:00070c4f       __cftof                    00471c4f f   libcmt:cvt.obj
 0001:00070d4b       __cftog                    00471d4b f   libcmt:cvt.obj
 0001:00070dde       __cfltcvt                  00471dde f   libcmt:cvt.obj
 0001:00070e54       __raise_exc                00471e54 f   libcmt:fpexcept.obj
 0001:00071107       __handle_exc               00472107 f   libcmt:fpexcept.obj
 0001:0007131e       __set_errno                0047231e f   libcmt:fpexcept.obj
 0001:00071346       __set_exp                  00472346 f   libcmt:util.obj
 0001:0007136f       __decomp                   0047236f f   libcmt:util.obj
 0001:00071430       __CIsqrt                   00472430 f   libcmt:sqrt.obj
 0001:00071444       _sqrt                      00472444 f   libcmt:sqrt.obj
 0001:000714ea       __statfp                   004724ea f   libcmt:fpctrl.obj
 0001:000714f8       __clrfp                    004724f8 f   libcmt:fpctrl.obj
 0001:00071507       __ctrlfp                   00472507 f   libcmt:fpctrl.obj
 0001:0007152a       __set_statfp               0047252a f   libcmt:fpctrl.obj
 0001:00071580       __woutput                  00472580 f   libcmt:woutput.obj
 0001:00071daf       _towupper                  00472daf f   libcmt:towupper.obj
 0001:00071e23       __towupper_lk              00472e23 f   libcmt:towupper.obj
 0001:00071e9a       _iswctype                  00472e9a f   libcmt:iswctype.obj
 0001:00071eec       ___loctotime_t             00472eec f   libcmt:dtoxtime.obj
 0001:00071fae       __freebuf                  00472fae f   libcmt:_freebuf.obj
 0001:00071fd9       _write                     00472fd9 f   libcmt:write.obj
 0001:00071fd9       __write                    00472fd9 f   libcmt:write.obj
 0001:0007203e       __write_lk                 0047303e f   libcmt:write.obj
 0001:000721c9       __wopenfile                004731c9 f   libcmt:_wopen.obj
 0001:0007233f       __getstream                0047333f f   libcmt:stream.obj
 0001:00072410       _memset                    00473410 f   libcmt:memset.obj
 0001:00072468       ___crtLCMapStringA         00473468 f   libcmt:a_map.obj
 0001:000726b7       ___crtGetStringTypeA       004736b7 f   libcmt:a_str.obj
 0001:00072800       ___init_time               00473800 f   libcmt:inittime.obj
 0001:00072d6f       ___init_numeric            00473d6f f   libcmt:initnum.obj
 0001:00072f7b       ___init_monetary           00473f7b f   libcmt:initmon.obj
 0001:000731b6       ___init_ctype              004741b6 f   libcmt:initctyp.obj
 0001:00073400       _strcspn                   00474400 f   libcmt:strcspn.obj
 0001:00073440       _strlen                    00474440 f   libcmt:strlen.obj
 0001:000734bb       ___get_qualified_locale    004744bb f   libcmt:getqloc.obj
 0001:00073d62       __fcloseall                00474d62 f   libcmt:closeall.obj
 0001:00073de3       __stbuf                    00474de3 f   libcmt:_sftbuf.obj
 0001:00073e70       __ftbuf                    00474e70 f   libcmt:_sftbuf.obj
 0001:00073e9a       __commit                   00474e9a f   libcmt:commit.obj
 0001:00073f2d       __openfile                 00474f2d f   libcmt:_open.obj
 0001:0007409d       __putwc_lk                 0047509d f   libcmt:fputwc.obj
 0001:00074196       ?__CxxUnhandledExceptionFilter@@YGJPAU_EXCEPTION_POINTERS@@@Z 00475196 f   libcmt:unhandld.obj
 0001:000741dc       ?__CxxSetUnhandledExceptionFilter@@YAXXZ 004751dc f   libcmt:unhandld.obj
 0001:000741ed       ?__CxxRestoreUnhandledExceptionFilter@@YAXXZ 004751ed f   libcmt:unhandld.obj
 0001:000741fa       __rt_probe_read4@4         004751fa f   libcmt:sehsupp.obj
 0001:0007425f       __fltin2                   0047525f f   libcmt:cfin.obj
 0001:000742de       _fpieee_flt_simd           004752de f   libcmt:filter_simd.obj
 0001:00074ac0       _LoadOperand               00475ac0 f   libcmt:filter_simd.obj
 0001:00074c9c       _AdjustExceptionResult     00475c9c f   libcmt:filter_simd.obj
 0001:00074e76       _UpdateResult              00475e76 f   libcmt:filter_simd.obj
 0001:00075564       __itoa                     00476564 f   libcmt:xtoa.obj
 0001:000755ed       __input                    004765ed f   libcmt:input.obj
 0001:0007609e       ___crtLCMapStringW         0047709e f   libcmt:w_map.obj
 0001:000762d7       __filbuf                   004772d7 f   libcmt:_filbuf.obj
 0001:000763b3       __getbuf                   004773b3 f   libcmt:_getbuf.obj
 0001:000763f7       _atol                      004773f7 f   libcmt:atox.obj
 0001:00076482       _atoi                      00477482 f   libcmt:atox.obj
 0001:0007648d       ___tzset                   0047748d f   libcmt:tzset.obj
 0001:00076742       __isindst                  00477742 f   libcmt:tzset.obj
 0001:00076a4f       ___crtMessageBoxA          00477a4f f   libcmt:crtmbox.obj
 0001:00076ad8       __setmode                  00477ad8 f   libcmt:setmode.obj
 0001:00076ad8       _setmode                   00477ad8 f   libcmt:setmode.obj
 0001:00076b31       __setmode_lk               00477b31 f   libcmt:setmode.obj
 0001:00076b92       __isatty                   00477b92 f   libcmt:isatty.obj
 0001:00076bbb       _wctomb                    00477bbb f   libcmt:wctomb.obj
 0001:00076c14       __wctomb_lk                00477c14 f   libcmt:wctomb.obj
 0001:00076c7d       ?_ValidateRead@@YAHPBXI@Z  00477c7d f   libcmt:validate.obj
 0001:00076c99       ?_ValidateWrite@@YAHPAXI@Z 00477c99 f   libcmt:validate.obj
 0001:00076cb5       ?_ValidateExecute@@YAHP6GHXZ@Z 00477cb5 f   libcmt:validate.obj
 0001:00076ccd       _abort                     00477ccd f   libcmt:abort.obj
 0001:00076ce4       __statusfp                 00477ce4 f   libcmt:ieee87.obj
 0001:00076cf7       __control87                00477cf7 f   libcmt:ieee87.obj
 0001:00076d2c       __controlfp                00477d2c f   libcmt:ieee87.obj
 0001:00076e92       __ZeroTail                 00477e92 f   libcmt:intrncvt.obj
 0001:00076edb       __IncMan                   00477edb f   libcmt:intrncvt.obj
 0001:00076f31       __RoundMan                 00477f31 f   libcmt:intrncvt.obj
 0001:00076fbd       __CopyMan                  00477fbd f   libcmt:intrncvt.obj
 0001:00076fd8       __FillZeroMan              00477fd8 f   libcmt:intrncvt.obj
 0001:00076fe4       __IsZeroMan                00477fe4 f   libcmt:intrncvt.obj
 0001:00076fff       __ShrMan                   00477fff f   libcmt:intrncvt.obj
 0001:0007708c       __ld12cvt                  0047808c f   libcmt:intrncvt.obj
 0001:000771f8       __ld12tod                  004781f8 f   libcmt:intrncvt.obj
 0001:0007720e       __ld12tof                  0047820e f   libcmt:intrncvt.obj
 0001:00077224       __atodbl                   00478224 f   libcmt:intrncvt.obj
 0001:00077251       __atoflt                   00478251 f   libcmt:intrncvt.obj
 0001:0007727e       __fptostr                  0047827e f   libcmt:_fptostr.obj
 0001:000772f5       __fltout2                  004782f5 f   libcmt:cfout.obj
 0001:00077351       ___dtold                   00478351 f   libcmt:cfout.obj
 0001:00077407       __fptrap                   00478407 f   libcmt:crt0fp.obj
 0001:00077410       __matherr                  00478410 f   libcmt:matherr.obj
 0001:00077410       ___init_dummy              00478410 f   libcmt:matherr.obj
 0001:00077410       ___init_collate            00478410 f   libcmt:matherr.obj
 0001:00077420       __trandisp1                00478420 f   libcmt:87disp.obj
 0001:00077487       __trandisp2                00478487 f   libcmt:87disp.obj
 0001:00077513       __rttospopde               00478513 f   libcmt:87disp.obj
 0001:00077518       __rttospop                 00478518 f   libcmt:87disp.obj
 0001:0007751a       __rtnospop                 0047851a f   libcmt:87disp.obj
 0001:0007751c       __rttosnpop                0047851c f   libcmt:87disp.obj
 0001:0007751d       __rtnospopde               0047851d f   libcmt:87disp.obj
 0001:00077524       __rtzeropop                00478524 f   libcmt:87disp.obj
 0001:00077526       __rtzeronpop               00478526 f   libcmt:87disp.obj
 0001:0007752b       __rtonepop                 0047852b f   libcmt:87disp.obj
 0001:0007752d       __rtonenpop                0047852d f   libcmt:87disp.obj
 0001:00077532       __tosnan1                  00478532 f   libcmt:87disp.obj
 0001:0007755d       __nosnan2                  0047855d f   libcmt:87disp.obj
 0001:0007755f       __tosnan2                  0047855f f   libcmt:87disp.obj
 0001:00077587       __nan2                     00478587 f   libcmt:87disp.obj
 0001:000775c6       __rtindfpop                004785c6 f   libcmt:87disp.obj
 0001:000775c8       __rtindfnpop               004785c8 f   libcmt:87disp.obj
 0001:000775d9       __rttosnpopde              004785d9 f   libcmt:87disp.obj
 0001:000775e3       __rtchsifneg               004785e3 f   libcmt:87disp.obj
 0001:000775f0       __startTwoArgErrorHandling 004785f0 f   libcmt:genexcep.obj
 0001:00077607       __startOneArgErrorHandling 00478607 f   libcmt:genexcep.obj
 0001:00077650       __twoToTOS                 00478650 f   libcmt:common.obj
 0001:00077665       __load_CW                  00478665 f   libcmt:common.obj
 0001:0007767c       __convertTOStoQNaN         0047867c f   libcmt:common.obj
 0001:00077695       __fload_withFB             00478695 f   libcmt:common.obj
 0001:000776d8       __checkTOS_withFB          004786d8 f   libcmt:common.obj
 0001:000776ee       __fast_exit                004786ee f   libcmt:common.obj
 0001:000776fb       __math_exit                004786fb f   libcmt:common.obj
 0001:00077725       __check_overflow_exit      00478725 f   libcmt:common.obj
 0001:00077739       __check_range_exit         00478739 f   libcmt:common.obj
 0001:000777dc       _mbtowc                    004787dc f   libcmt:mbtowc.obj
 0001:00077839       __mbtowc_lk                00478839 f   libcmt:mbtowc.obj
 0001:00077902       ___crtGetStringTypeW       00478902 f   libcmt:w_str.obj
 0001:00077ac7       ___getlocaleinfo           00478ac7 f   libcmt:inithelp.obj
 0001:00077c00       __strcmpi                  00478c00 f   libcmt:stricmp.obj
 0001:00077c00       __stricmp                  00478c00 f   libcmt:stricmp.obj
 0001:00077cd0       __sopen                    00478cd0 f   libcmt:open.obj
 0001:00077f9f       __flswbuf                  00478f9f f   libcmt:_flswbuf.obj
 0001:000780c6       ___strgtold12              004790c6 f   libcmt:strgtold.obj
 0001:00078597       _XMMI2_FP_Emulation        00479597 f   libcmt:xmmi2_fp_emul.obj
 0001:00079a64       _XMMI_FP_Emulation         0047aa64 f   libcmt:xmmi_fp_emul.obj
 0001:0007a81c       _getenv                    0047b81c f   libcmt:getenv.obj
 0001:0007a83d       __getenv_lk                0047b83d f   libcmt:getenv.obj
 0001:0007a8ba       ___addl                    0047b8ba f   libcmt:mantold.obj
 0001:0007a8db       ___add_12                  0047b8db f   libcmt:mantold.obj
 0001:0007a939       ___shl_12                  0047b939 f   libcmt:mantold.obj
 0001:0007a967       ___shr_12                  0047b967 f   libcmt:mantold.obj
 0001:0007a994       ___mtold12                 0047b994 f   libcmt:mantold.obj
 0001:0007aa5b       _$I10_OUTPUT               0047ba5b f   libcmt:x10fout.obj
 0001:0007acee       __87except                 0047bcee f   libcmt:87except.obj
 0001:0007adbe       ___crtGetLocaleInfoW       0047bdbe f   libcmt:w_loc.obj
 0001:0007aed1       ___crtGetLocaleInfoA       0047bed1 f   libcmt:a_loc.obj
 0001:0007afef       ___ld12mul                 0047bfef f   libcmt:tenpow.obj
 0001:0007b20f       ___multtenpow12            0047c20f f   libcmt:tenpow.obj
 0001:0007b28b       __mbsnbicoll               0047c28b f   libcmt:mbsnbico.obj
 0001:0007b2ca       ___wtomb_environ           0047c2ca f   libcmt:wtombenv.obj
 0001:0007b338       ___crtCompareStringA       0047c338 f   libcmt:a_cmp.obj
 0001:0007b5b5       ___crtsetenv               0047c5b5 f   libcmt:setenv.obj
 0001:0007b7fb       __mbschr                   0047c7fb f   libcmt:mbschr.obj
 0001:0007b892       _strdup                    0047c892 f   libcmt:strdup.obj
 0001:0007b892       __strdup                   0047c892 f   libcmt:strdup.obj
 0001:0007b8be       _VerQueryValueW@16         0047c8be f   Version:VERSION.dll
 0001:0007b8c4       _GetFileVersionInfoW@16    0047c8c4 f   Version:VERSION.dll
 0001:0007b8ca       _GetFileVersionInfoSizeW@8 0047c8ca f   Version:VERSION.dll
 0001:0007b8d0       ___WSAFDIsSet@8            0047c8d0 f   ws2_32:WS2_32.dll
 0001:0007b8e0       _CRYPTO_set_mem_functions  0047c8e0 f   libcrypto:libcrypto-lib-mem.obj
 0001:0007b920       _CRYPTO_malloc             0047c920 f   libcrypto:libcrypto-lib-mem.obj
 0001:0007b9b0       _CRYPTO_zalloc             0047c9b0 f   libcrypto:libcrypto-lib-mem.obj
 0001:0007b9f0       _CRYPTO_aligned_alloc      0047c9f0 f   libcrypto:libcrypto-lib-mem.obj
 0001:0007ba60       _CRYPTO_realloc            0047ca60 f   libcrypto:libcrypto-lib-mem.obj
 0001:0007bb20       _CRYPTO_clear_realloc      0047cb20 f   libcrypto:libcrypto-lib-mem.obj
 0001:0007bbd0       _CRYPTO_free               0047cbd0 f   libcrypto:libcrypto-lib-mem.obj
 0001:0007bc00       _CRYPTO_clear_free         0047cc00 f   libcrypto:libcrypto-lib-mem.obj
 0001:0007bc40       _sha512_block_data_order   0047cc40     libcrypto:libcrypto-lib-sha512-586.obj
 0001:0007e5a0       _ASN1_TIME_it              0047f5a0 f   libcrypto:libcrypto-lib-a_time.obj
 0001:0007e5b0       _ASN1_TIME_new             0047f5b0 f   libcrypto:libcrypto-lib-a_time.obj
 0001:0007e5c0       _ASN1_TIME_free            0047f5c0 f   libcrypto:libcrypto-lib-a_time.obj
 0001:0007e5e0       _ossl_asn1_time_to_tm      0047f5e0 f   libcrypto:libcrypto-lib-a_time.obj
 0001:0007ea60       _ossl_asn1_time_from_tm    0047fa60 f   libcrypto:libcrypto-lib-a_time.obj
 0001:0007eb90       _ASN1_TIME_adj             0047fb90 f   libcrypto:libcrypto-lib-a_time.obj
 0001:0007ec20       _ASN1_TIME_check           0047fc20 f   libcrypto:libcrypto-lib-a_time.obj
 0001:0007ec50       _ASN1_TIME_to_generalizedtime 0047fc50 f   libcrypto:libcrypto-lib-a_time.obj
 0001:0007ecb0       _ASN1_TIME_set_string      0047fcb0 f   libcrypto:libcrypto-lib-a_time.obj
 0001:0007ece0       _ASN1_TIME_set_string_X509 0047fce0 f   libcrypto:libcrypto-lib-a_time.obj
 0001:0007eda0       _ASN1_TIME_to_tm           0047fda0 f   libcrypto:libcrypto-lib-a_time.obj
 0001:0007edf0       _ASN1_TIME_diff            0047fdf0 f   libcrypto:libcrypto-lib-a_time.obj
 0001:0007ee50       _ASN1_TIME_print           0047fe50 f   libcrypto:libcrypto-lib-a_time.obj
 0001:0007ee70       _ASN1_TIME_print_ex        0047fe70 f   libcrypto:libcrypto-lib-a_time.obj
 0001:0007eea0       _ossl_asn1_time_print_ex   0047fea0 f   libcrypto:libcrypto-lib-a_time.obj
 0001:0007f050       _ASN1_TIME_compare         00480050 f   libcrypto:libcrypto-lib-a_time.obj
 0001:0007f0a0       _X509_REVOKED_it           004800a0 f   libcrypto:libcrypto-lib-x_crl.obj
 0001:0007f0e0       _X509_CRL_INFO_it          004800e0 f   libcrypto:libcrypto-lib-x_crl.obj
 0001:0007f820       _X509_CRL_it               00480820 f   libcrypto:libcrypto-lib-x_crl.obj
 0001:0007f830       _d2i_X509_CRL              00480830 f   libcrypto:libcrypto-lib-x_crl.obj
 0001:0007f850       _X509_CRL_free             00480850 f   libcrypto:libcrypto-lib-x_crl.obj
 0001:0007f890       _X509_CRL_verify           00480890 f   libcrypto:libcrypto-lib-x_crl.obj
 0001:0007f8b0       _X509_CRL_get0_by_cert     004808b0 f   libcrypto:libcrypto-lib-x_crl.obj
 0001:0007fae0       _ossl_x509_crl_set0_libctx 00480ae0 f   libcrypto:libcrypto-lib-x_crl.obj
 0001:0007fb50       _X509_LOOKUP_new           00480b50 f   libcrypto:libcrypto-lib-x509_lu.obj
 0001:0007fba0       _X509_LOOKUP_free          00480ba0 f   libcrypto:libcrypto-lib-x509_lu.obj
 0001:0007fbe0       _X509_STORE_lock           00480be0 f   libcrypto:libcrypto-lib-x509_lu.obj
 0001:0007fbe0       _ossl_x509_store_read_lock 00480be0 f   libcrypto:libcrypto-lib-x509_lu.obj
 0001:0007fc00       _X509_STORE_unlock         00480c00 f   libcrypto:libcrypto-lib-x509_lu.obj
 0001:0007fc20       _X509_LOOKUP_shutdown      00480c20 f   libcrypto:libcrypto-lib-x509_lu.obj
 0001:0007fc50       _X509_LOOKUP_ctrl_ex       00480c50 f   libcrypto:libcrypto-lib-x509_lu.obj
 0001:0007fcb0       _X509_LOOKUP_ctrl          00480cb0 f   libcrypto:libcrypto-lib-x509_lu.obj
 0001:0007fce0       _X509_LOOKUP_by_subject_ex 00480ce0 f   libcrypto:libcrypto-lib-x509_lu.obj
 0001:0007fd40       _X509_LOOKUP_set_method_data 00480d40 f   libcrypto:libcrypto-lib-x509_lu.obj
 0001:0007fd60       _EVP_KEYMGMT_get0_name     00480d60 f   libcrypto:libcrypto-lib-x509_lu.obj
 0001:0007fd60       _EVP_SIGNATURE_get0_provider 00480d60 f   libcrypto:libcrypto-lib-x509_lu.obj
 0001:0007fd60       _EVP_MD_CTX_get_pkey_ctx   00480d60 f   libcrypto:libcrypto-lib-x509_lu.obj
 0001:0007fd60       _SSL_CIPHER_get_id         00480d60 f   libcrypto:libcrypto-lib-x509_lu.obj
 0001:0007fd60       _DH_get0_q                 00480d60 f   libcrypto:libcrypto-lib-x509_lu.obj
 0001:0007fd60       _DSA_get0_q                00480d60 f   libcrypto:libcrypto-lib-x509_lu.obj
 0001:0007fd60       _RSA_get_method            00480d60 f   libcrypto:libcrypto-lib-x509_lu.obj
 0001:0007fd60       _EC_GROUP_get0_cofactor    00480d60 f   libcrypto:libcrypto-lib-x509_lu.obj
 0001:0007fd60       _EVP_KEYEXCH_get0_provider 00480d60 f   libcrypto:libcrypto-lib-x509_lu.obj
 0001:0007fd60       _EVP_MD_get_flags          00480d60 f   libcrypto:libcrypto-lib-x509_lu.obj
 0001:0007fd60       _CONF_imodule_get_value    00480d60 f   libcrypto:libcrypto-lib-x509_lu.obj
 0001:0007fd60       _X509_LOOKUP_get_method_data 00480d60 f   libcrypto:libcrypto-lib-x509_lu.obj
 0001:0007fd60       _EVP_ASYM_CIPHER_get0_provider 00480d60 f   libcrypto:libcrypto-lib-x509_lu.obj
 0001:0007fd60       _X509_CRL_get_issuer       00480d60 f   libcrypto:libcrypto-lib-x509_lu.obj
 0001:0007fd60       _EC_KEY_get0_public_key    00480d60 f   libcrypto:libcrypto-lib-x509_lu.obj
 0001:0007fd60       _EVP_KEM_get0_provider     00480d60 f   libcrypto:libcrypto-lib-x509_lu.obj
 0001:0007fd70       _X509_STORE_new            00480d70 f   libcrypto:libcrypto-lib-x509_lu.obj
 0001:0007ffe0       _X509_STORE_free           00480fe0 f   libcrypto:libcrypto-lib-x509_lu.obj
 0001:00080090       _X509_STORE_up_ref         00481090 f   libcrypto:libcrypto-lib-x509_lu.obj
 0001:000800b0       _X509_STORE_add_lookup     004810b0 f   libcrypto:libcrypto-lib-x509_lu.obj
 0001:00080190       _ossl_x509_store_ht_get_by_name 00481190 f   libcrypto:libcrypto-lib-x509_lu.obj
 0001:00080230       _ossl_x509_store_ctx_get_by_subject 00481230 f   libcrypto:libcrypto-lib-x509_lu.obj
 0001:00080370       _X509_STORE_add_cert       00481370 f   libcrypto:libcrypto-lib-x509_lu.obj
 0001:00080640       _X509_STORE_add_crl        00481640 f   libcrypto:libcrypto-lib-x509_lu.obj
 0001:000806d0       _X509_OBJECT_up_ref_count  004816d0 f   libcrypto:libcrypto-lib-x509_lu.obj
 0001:00080710       _X509_OBJECT_new           00481710 f   libcrypto:libcrypto-lib-x509_lu.obj
 0001:00080730       _X509_OBJECT_set1_X509     00481730 f   libcrypto:libcrypto-lib-x509_lu.obj
 0001:000807a0       _X509_OBJECT_set1_X509_CRL 004817a0 f   libcrypto:libcrypto-lib-x509_lu.obj
 0001:000807e0       _X509_OBJECT_free          004817e0 f   libcrypto:libcrypto-lib-x509_lu.obj
 0001:00080810       _X509_OBJECT_idx_by_subject 00481810 f   libcrypto:libcrypto-lib-x509_lu.obj
 0001:00080890       _X509_OBJECT_retrieve_by_subject 00481890 f   libcrypto:libcrypto-lib-x509_lu.obj
 0001:000808c0       _X509_STORE_CTX_get1_certs 004818c0 f   libcrypto:libcrypto-lib-x509_lu.obj
 0001:00080a60       _X509_STORE_CTX_get1_crls  00481a60 f   libcrypto:libcrypto-lib-x509_lu.obj
 0001:00080bc0       _X509_OBJECT_retrieve_match 00481bc0 f   libcrypto:libcrypto-lib-x509_lu.obj
 0001:00080c80       _X509_CINF_it              00481c80 f   libcrypto:libcrypto-lib-x_x509.obj
 0001:00080c90       _i2d_X509_CINF             00481c90 f   libcrypto:libcrypto-lib-x_x509.obj
 0001:00080f10       _X509_it                   00481f10 f   libcrypto:libcrypto-lib-x_x509.obj
 0001:00080f20       _d2i_X509                  00481f20 f   libcrypto:libcrypto-lib-x_x509.obj
 0001:00080f40       _i2d_X509                  00481f40 f   libcrypto:libcrypto-lib-x_x509.obj
 0001:00080f60       _X509_free                 00481f60 f   libcrypto:libcrypto-lib-x_x509.obj
 0001:00080f80       _X509_dup                  00481f80 f   libcrypto:libcrypto-lib-x_x509.obj
 0001:00080fa0       _ossl_x509_set0_libctx     00481fa0 f   libcrypto:libcrypto-lib-x_x509.obj
 0001:00081010       _X509_new_ex               00482010 f   libcrypto:libcrypto-lib-x_x509.obj
 0001:00081060       _d2i_X509_AUX              00482060 f   libcrypto:libcrypto-lib-x_x509.obj
 0001:00081110       _i2d_re_X509_tbs           00482110 f   libcrypto:libcrypto-lib-x_x509.obj
 0001:00081130       _X509_get_signature_nid    00482130 f   libcrypto:libcrypto-lib-x_x509.obj
 0001:00081150       _BIO_new_ex                00482150 f   libcrypto:libcrypto-lib-bio_lib.obj
 0001:00081210       _BIO_new                   00482210 f   libcrypto:libcrypto-lib-bio_lib.obj
 0001:00081230       _BIO_free                  00482230 f   libcrypto:libcrypto-lib-bio_lib.obj
 0001:000812f0       _X509_REQ_get_subject_name 004822f0 f   libcrypto:libcrypto-lib-bio_lib.obj
 0001:000812f0       _X509_REVOKED_get0_revocationDate 004822f0 f   libcrypto:libcrypto-lib-bio_lib.obj
 0001:000812f0       _EC_KEY_get0_private_key   004822f0 f   libcrypto:libcrypto-lib-bio_lib.obj
 0001:000812f0       _DH_get0_g                 004822f0 f   libcrypto:libcrypto-lib-bio_lib.obj
 0001:000812f0       _X509_LOOKUP_get_store     004822f0 f   libcrypto:libcrypto-lib-bio_lib.obj
 0001:000812f0       _DSA_get0_g                004822f0 f   libcrypto:libcrypto-lib-bio_lib.obj
 0001:000812f0       _X509_CRL_get0_lastUpdate  004822f0 f   libcrypto:libcrypto-lib-bio_lib.obj
 0001:000812f0       _RSA_get0_n                004822f0 f   libcrypto:libcrypto-lib-bio_lib.obj
 0001:000812f0       _EC_GROUP_get_curve_name   004822f0 f   libcrypto:libcrypto-lib-bio_lib.obj
 0001:000812f0       _BIO_get_init              004822f0 f   libcrypto:libcrypto-lib-bio_lib.obj
 0001:000812f0       _ossl_quic_cfq_item_get_encoded 004822f0 f   libcrypto:libcrypto-lib-bio_lib.obj
 0001:00081300       _EC_KEY_set_enc_flags      00482300 f   libcrypto:libcrypto-lib-bio_lib.obj
 0001:00081300       _EC_GROUP_set_asn1_flag    00482300 f   libcrypto:libcrypto-lib-bio_lib.obj
 0001:00081300       _CONF_imodule_set_usr_data 00482300 f   libcrypto:libcrypto-lib-bio_lib.obj
 0001:00081300       _BIO_set_shutdown          00482300 f   libcrypto:libcrypto-lib-bio_lib.obj
 0001:00081310       _BIO_vfree                 00482310 f   libcrypto:libcrypto-lib-bio_lib.obj
 0001:00081330       _BIO_up_ref                00482330 f   libcrypto:libcrypto-lib-bio_lib.obj
 0001:00081350       _BIO_clear_flags           00482350 f   libcrypto:libcrypto-lib-bio_lib.obj
 0001:00081360       _BIO_test_flags            00482360 f   libcrypto:libcrypto-lib-bio_lib.obj
 0001:00081370       _BIO_set_flags             00482370 f   libcrypto:libcrypto-lib-bio_lib.obj
 0001:00081380       _BIO_read                  00482380 f   libcrypto:libcrypto-lib-bio_lib.obj
 0001:00081580       _BIO_read_ex               00482580 f   libcrypto:libcrypto-lib-bio_lib.obj
 0001:000815b0       _BIO_write                 004825b0 f   libcrypto:libcrypto-lib-bio_lib.obj
 0001:00081710       _BIO_write_ex              00482710 f   libcrypto:libcrypto-lib-bio_lib.obj
 0001:00081750       _BIO_sendmmsg              00482750 f   libcrypto:libcrypto-lib-bio_lib.obj
 0001:000818d0       _BIO_recvmmsg              004828d0 f   libcrypto:libcrypto-lib-bio_lib.obj
 0001:00081a50       _BIO_get_rpoll_descriptor  00482a50 f   libcrypto:libcrypto-lib-bio_lib.obj
 0001:00081a70       _BIO_get_wpoll_descriptor  00482a70 f   libcrypto:libcrypto-lib-bio_lib.obj
 0001:00081a90       _BIO_puts                  00482a90 f   libcrypto:libcrypto-lib-bio_lib.obj
 0001:00081c20       _BIO_gets                  00482c20 f   libcrypto:libcrypto-lib-bio_lib.obj
 0001:00081da0       _BIO_indent                00482da0 f   libcrypto:libcrypto-lib-bio_lib.obj
 0001:00081df0       _BIO_int_ctrl              00482df0 f   libcrypto:libcrypto-lib-bio_lib.obj
 0001:00081e20       _BIO_ctrl                  00482e20 f   libcrypto:libcrypto-lib-bio_lib.obj
 0001:00081ee0       _BIO_eof                   00482ee0 f   libcrypto:libcrypto-lib-bio_lib.obj
 0001:00081f10       _BIO_callback_ctrl         00482f10 f   libcrypto:libcrypto-lib-bio_lib.obj
 0001:00081fc0       _BIO_push                  00482fc0 f   libcrypto:libcrypto-lib-bio_lib.obj
 0001:00082010       _BIO_pop                   00483010 f   libcrypto:libcrypto-lib-bio_lib.obj
 0001:00082060       _BIO_set_retry_reason      00483060 f   libcrypto:libcrypto-lib-bio_lib.obj
 0001:00082060       _EC_GROUP_set_point_conversion_form 00483060 f   libcrypto:libcrypto-lib-bio_lib.obj
 0001:00082060       _ossl_quic_rstream_set_cleanse 00483060 f   libcrypto:libcrypto-lib-bio_lib.obj
 0001:00082070       _BIO_find_type             00483070 f   libcrypto:libcrypto-lib-bio_lib.obj
 0001:000820e0       _BIO_next                  004830e0 f   libcrypto:libcrypto-lib-bio_lib.obj
 0001:00082100       _BIO_set_next              00483100 f   libcrypto:libcrypto-lib-bio_lib.obj
 0001:00082110       _BIO_free_all              00483110 f   libcrypto:libcrypto-lib-bio_lib.obj
 0001:00082150       _BIO_copy_next_retry       00483150 f   libcrypto:libcrypto-lib-bio_lib.obj
 0001:00082180       _bio_cleanup               00483180 f   libcrypto:libcrypto-lib-bio_lib.obj
 0001:000821a0       _BIO_err_is_non_fatal      004831a0 f   libcrypto:libcrypto-lib-bio_lib.obj
 0001:000821f0       _PEM_read_bio_X509         004831f0 f   libcrypto:libcrypto-lib-pem_x509.obj
 0001:00082220       _BIO_s_mem                 00483220 f   libcrypto:libcrypto-lib-bss_mem.obj
 0001:00082230       _BIO_s_secmem              00483230 f   libcrypto:libcrypto-lib-bss_mem.obj
 0001:00082240       _BIO_new_mem_buf           00483240 f   libcrypto:libcrypto-lib-bss_mem.obj
 0001:00082a50       _ossl_obj_cleanup_int      00483a50 f   libcrypto:libcrypto-lib-obj_dat.obj
 0001:00082b40       _OBJ_new_nid               00483b40 f   libcrypto:libcrypto-lib-obj_dat.obj
 0001:00082b60       _OBJ_nid2obj               00483b60 f   libcrypto:libcrypto-lib-obj_dat.obj
 0001:00082f00       _OBJ_nid2sn                00483f00 f   libcrypto:libcrypto-lib-obj_dat.obj
 0001:00082f20       _OBJ_nid2ln                00483f20 f   libcrypto:libcrypto-lib-obj_dat.obj
 0001:00082f40       _OBJ_txt2obj               00483f40 f   libcrypto:libcrypto-lib-obj_dat.obj
 0001:00083070       _OBJ_obj2txt               00484070 f   libcrypto:libcrypto-lib-obj_dat.obj
 0001:00083390       _OBJ_txt2nid               00484390 f   libcrypto:libcrypto-lib-obj_dat.obj
 0001:000833d0       _OBJ_ln2nid                004843d0 f   libcrypto:libcrypto-lib-obj_dat.obj
 0001:00083560       _OBJ_sn2nid                00484560 f   libcrypto:libcrypto-lib-obj_dat.obj
 0001:000836f0       _OBJ_bsearch_              004846f0 f   libcrypto:libcrypto-lib-obj_dat.obj
 0001:00083720       _OBJ_bsearch_ex_           00484720 f   libcrypto:libcrypto-lib-obj_dat.obj
 0001:00083750       _OBJ_create                00484750 f   libcrypto:libcrypto-lib-obj_dat.obj
 0001:00083a80       _OBJ_length                00484a80 f   libcrypto:libcrypto-lib-obj_dat.obj
 0001:00083a80       _ossl_ffc_named_group_get_keylength 00484a80 f   libcrypto:libcrypto-lib-obj_dat.obj
 0001:00083a80       _OSSL_ENCODER_INSTANCE_get_output_structure 00484a80 f   libcrypto:libcrypto-lib-obj_dat.obj
 0001:00083a80       _EVP_CIPHER_get_iv_length  00484a80 f   libcrypto:libcrypto-lib-obj_dat.obj
 0001:00083aa0       _OSSL_DECODER_CTX_get_construct 00484aa0 f   libcrypto:libcrypto-lib-obj_dat.obj
 0001:00083aa0       _ossl_sa_num               00484aa0 f   libcrypto:libcrypto-lib-obj_dat.obj
 0001:00083aa0       _EVP_CIPHER_get_flags      00484aa0 f   libcrypto:libcrypto-lib-obj_dat.obj
 0001:00083aa0       _OBJ_get0_data             00484aa0 f   libcrypto:libcrypto-lib-obj_dat.obj
 0001:00083f30       _OBJ_obj2nid               00484f30 f   libcrypto:libcrypto-lib-obj_dat.obj
 0001:00083f50       _X509_NAME_entry_count     00484f50 f   libcrypto:libcrypto-lib-x509name.obj
 0001:00083f80       _X509_NAME_get_index_by_NID 00484f80 f   libcrypto:libcrypto-lib-x509name.obj
 0001:00083fb0       _X509_NAME_get_index_by_OBJ 00484fb0 f   libcrypto:libcrypto-lib-x509name.obj
 0001:00084010       _X509_NAME_get_entry       00485010 f   libcrypto:libcrypto-lib-x509name.obj
 0001:00084050       _X509_NAME_delete_entry    00485050 f   libcrypto:libcrypto-lib-x509name.obj
 0001:00084110       _X509_NAME_add_entry_by_txt 00485110 f   libcrypto:libcrypto-lib-x509name.obj
 0001:00084160       _X509_NAME_add_entry       00485160 f   libcrypto:libcrypto-lib-x509name.obj
 0001:00084280       _X509_NAME_ENTRY_create_by_txt 00485280 f   libcrypto:libcrypto-lib-x509name.obj
 0001:00084300       _X509_NAME_ENTRY_create_by_OBJ 00485300 f   libcrypto:libcrypto-lib-x509name.obj
 0001:00084380       _X509_NAME_ENTRY_set_object 00485380 f   libcrypto:libcrypto-lib-x509name.obj
 0001:000843f0       _X509_NAME_ENTRY_set_data  004853f0 f   libcrypto:libcrypto-lib-x509name.obj
 0001:000844a0       _X509_NAME_print_ex        004854a0 f   libcrypto:libcrypto-lib-a_strex.obj
 0001:00084f60       _ASN1_STRING_print_ex      00485f60 f   libcrypto:libcrypto-lib-a_strex.obj
 0001:00084f80       _ASN1_STRING_to_UTF8       00485f80 f   libcrypto:libcrypto-lib-a_strex.obj
 0001:00085000       _X509_subject_name_cmp     00486000 f   libcrypto:libcrypto-lib-x509_cmp.obj
 0001:00085020       _X509_CRL_cmp              00486020 f   libcrypto:libcrypto-lib-x509_cmp.obj
 0001:00085040       _X509_CRL_match            00486040 f   libcrypto:libcrypto-lib-x509_cmp.obj
 0001:00085090       _EC_GROUP_get_point_conversion_form 00486090 f   libcrypto:libcrypto-lib-x509_cmp.obj
 0001:00085090       _BIO_get_retry_reason      00486090 f   libcrypto:libcrypto-lib-x509_cmp.obj
 0001:00085090       _RSA_get0_p                00486090 f   libcrypto:libcrypto-lib-x509_cmp.obj
 0001:00085090       _X509_get_issuer_name      00486090 f   libcrypto:libcrypto-lib-x509_cmp.obj
 0001:00085090       _ossl_quic_port_get_net_wbio 00486090 f   libcrypto:libcrypto-lib-x509_cmp.obj
 0001:000850a0       _RSA_get0_dmq1             004860a0 f   libcrypto:libcrypto-lib-x509_cmp.obj
 0001:000850a0       _ossl_quic_cfq_item_get_encoded_len 004860a0 f   libcrypto:libcrypto-lib-x509_cmp.obj
 0001:000850a0       _X509_get_subject_name     004860a0 f   libcrypto:libcrypto-lib-x509_cmp.obj
 0001:000850b0       _X509_get_serialNumber     004860b0 f   libcrypto:libcrypto-lib-x509_cmp.obj
 0001:000850b0       _X509_get0_serialNumber    004860b0 f   libcrypto:libcrypto-lib-x509_cmp.obj
 0001:000850c0       _X509_cmp                  004860c0 f   libcrypto:libcrypto-lib-x509_cmp.obj
 0001:000851a0       _ossl_x509_add_cert_new    004861a0 f   libcrypto:libcrypto-lib-x509_cmp.obj
 0001:00085210       _X509_add_cert             00486210 f   libcrypto:libcrypto-lib-x509_cmp.obj
 0001:00085350       _X509_add_certs            00486350 f   libcrypto:libcrypto-lib-x509_cmp.obj
 0001:000853a0       _ossl_x509_add_certs_new   004863a0 f   libcrypto:libcrypto-lib-x509_cmp.obj
 0001:00085420       _X509_NAME_cmp             00486420 f   libcrypto:libcrypto-lib-x509_cmp.obj
 0001:000854e0       _X509_NAME_hash_ex         004864e0 f   libcrypto:libcrypto-lib-x509_cmp.obj
 0001:000855a0       _X509_find_by_subject      004865a0 f   libcrypto:libcrypto-lib-x509_cmp.obj
 0001:00085600       _X509_get0_pubkey          00486600 f   libcrypto:libcrypto-lib-x509_cmp.obj
 0001:00085620       _X509_check_private_key    00486620 f   libcrypto:libcrypto-lib-x509_cmp.obj
 0001:00085670       _ossl_x509_check_private_key 00486670 f   libcrypto:libcrypto-lib-x509_cmp.obj
 0001:00085760       _X509_chain_check_suiteb   00486760 f   libcrypto:libcrypto-lib-x509_cmp.obj
 0001:000859c0       _X509_CRL_check_suiteb     004869c0 f   libcrypto:libcrypto-lib-x509_cmp.obj
 0001:000859f0       _X509_chain_up_ref         004869f0 f   libcrypto:libcrypto-lib-x509_cmp.obj
 0001:00085a70       _i2a_ASN1_INTEGER          00486a70 f   libcrypto:libcrypto-lib-f_int.obj
 0001:00085b50       _OCSP_SIGNATURE_it         00486b50 f   libcrypto:libcrypto-lib-ocsp_asn.obj
 0001:00085b60       _OCSP_CERTID_it            00486b60 f   libcrypto:libcrypto-lib-ocsp_asn.obj
 0001:00085b70       _OCSP_CERTID_new           00486b70 f   libcrypto:libcrypto-lib-ocsp_asn.obj
 0001:00085b80       _OCSP_CERTID_free          00486b80 f   libcrypto:libcrypto-lib-ocsp_asn.obj
 0001:00085ba0       _OCSP_ONEREQ_it            00486ba0 f   libcrypto:libcrypto-lib-ocsp_asn.obj
 0001:00085bb0       _OCSP_REQINFO_it           00486bb0 f   libcrypto:libcrypto-lib-ocsp_asn.obj
 0001:00085bc0       _OCSP_RESPBYTES_it         00486bc0 f   libcrypto:libcrypto-lib-ocsp_asn.obj
 0001:00085bd0       _OCSP_RESPONSE_it          00486bd0 f   libcrypto:libcrypto-lib-ocsp_asn.obj
 0001:00085be0       _d2i_OCSP_RESPONSE         00486be0 f   libcrypto:libcrypto-lib-ocsp_asn.obj
 0001:00085c00       _i2d_OCSP_RESPONSE         00486c00 f   libcrypto:libcrypto-lib-ocsp_asn.obj
 0001:00085c20       _OCSP_RESPONSE_free        00486c20 f   libcrypto:libcrypto-lib-ocsp_asn.obj
 0001:00085c40       _OCSP_RESPID_it            00486c40 f   libcrypto:libcrypto-lib-ocsp_asn.obj
 0001:00085c50       _d2i_OCSP_RESPID           00486c50 f   libcrypto:libcrypto-lib-ocsp_asn.obj
 0001:00085c70       _i2d_OCSP_RESPID           00486c70 f   libcrypto:libcrypto-lib-ocsp_asn.obj
 0001:00085c90       _OCSP_RESPID_free          00486c90 f   libcrypto:libcrypto-lib-ocsp_asn.obj
 0001:00085cb0       _OCSP_REVOKEDINFO_it       00486cb0 f   libcrypto:libcrypto-lib-ocsp_asn.obj
 0001:00085cc0       _OCSP_CERTSTATUS_it        00486cc0 f   libcrypto:libcrypto-lib-ocsp_asn.obj
 0001:00085cd0       _OCSP_SINGLERESP_it        00486cd0 f   libcrypto:libcrypto-lib-ocsp_asn.obj
 0001:00085ce0       _OCSP_RESPDATA_it          00486ce0 f   libcrypto:libcrypto-lib-ocsp_asn.obj
 0001:00085cf0       _OCSP_BASICRESP_it         00486cf0 f   libcrypto:libcrypto-lib-ocsp_asn.obj
 0001:00085d00       _OCSP_BASICRESP_free       00486d00 f   libcrypto:libcrypto-lib-ocsp_asn.obj
 0001:00085d20       _OCSP_CRLID_it             00486d20 f   libcrypto:libcrypto-lib-ocsp_asn.obj
 0001:00085d30       _OCSP_SERVICELOC_it        00486d30 f   libcrypto:libcrypto-lib-ocsp_asn.obj
 0001:00085d40       _OCSP_response_status      00486d40 f   libcrypto:libcrypto-lib-ocsp_cl.obj
 0001:00085d60       _OCSP_response_get1_basic  00486d60 f   libcrypto:libcrypto-lib-ocsp_cl.obj
 0001:00085df0       _OCSP_resp_count           00486df0 f   libcrypto:libcrypto-lib-ocsp_cl.obj
 0001:00085e10       _OCSP_resp_get0            00486e10 f   libcrypto:libcrypto-lib-ocsp_cl.obj
 0001:00085e30       _OCSP_resp_find            00486e30 f   libcrypto:libcrypto-lib-ocsp_cl.obj
 0001:00085e90       _OCSP_single_get0_status   00486e90 f   libcrypto:libcrypto-lib-ocsp_cl.obj
 0001:00085f00       _OCSP_resp_find_status     00486f00 f   libcrypto:libcrypto-lib-ocsp_cl.obj
 0001:00085f50       _OCSP_check_validity       00486f50 f   libcrypto:libcrypto-lib-ocsp_cl.obj
 0001:00086180       _OSSL_ERR_STATE_free       00487180 f   libcrypto:libcrypto-lib-err.obj
 0001:00086230       _err_cleanup               00487230 f   libcrypto:libcrypto-lib-err.obj
 0001:00086260       _ossl_err_load_ERR_strings 00487260 f   libcrypto:libcrypto-lib-err.obj
 0001:00086410       _ERR_load_strings          00487410 f   libcrypto:libcrypto-lib-err.obj
 0001:00086470       _ERR_load_strings_const    00487470 f   libcrypto:libcrypto-lib-err.obj
 0001:000864a0       _ERR_unload_strings        004874a0 f   libcrypto:libcrypto-lib-err.obj
 0001:00086520       _ERR_clear_error           00487520 f   libcrypto:libcrypto-lib-err.obj
 0001:000865e0       _ERR_get_error             004875e0 f   libcrypto:libcrypto-lib-err.obj
 0001:00086600       _ERR_get_error_all         00487600 f   libcrypto:libcrypto-lib-err.obj
 0001:00086630       _ERR_peek_error            00487630 f   libcrypto:libcrypto-lib-err.obj
 0001:00086650       _ERR_peek_last_error       00487650 f   libcrypto:libcrypto-lib-err.obj
 0001:00086930       _ossl_err_string_int       00487930 f   libcrypto:libcrypto-lib-err.obj
 0001:00086a60       _ERR_error_string_n        00487a60 f   libcrypto:libcrypto-lib-err.obj
 0001:00086a80       _ERR_lib_error_string      00487a80 f   libcrypto:libcrypto-lib-err.obj
 0001:00086b40       _ERR_reason_error_string   00487b40 f   libcrypto:libcrypto-lib-err.obj
 0001:00086be0       _ossl_err_get_state_int    00487be0 f   libcrypto:libcrypto-lib-err.obj
 0001:00086d00       _err_shelve_state          00487d00 f   libcrypto:libcrypto-lib-err.obj
 0001:00086d60       _err_unshelve_state        00487d60 f   libcrypto:libcrypto-lib-err.obj
 0001:00086d80       _ERR_get_next_error_library 00487d80 f   libcrypto:libcrypto-lib-err.obj
 0001:00086eb0       _ERR_add_error_data        00487eb0 f   libcrypto:libcrypto-lib-err.obj
 0001:00086ed0       _ERR_add_error_vdata       00487ed0 f   libcrypto:libcrypto-lib-err.obj
 0001:00087010       _err_clear_last_constant_time 00488010 f   libcrypto:libcrypto-lib-err.obj
 0001:00087070       _OCSP_basic_verify         00488070 f   libcrypto:libcrypto-lib-ocsp_vfy.obj
 0001:00087960       _OCSP_id_get0_info         00488960 f   libcrypto:libcrypto-lib-ocsp_srv.obj
 0001:000879b0       _OCSP_basic_add1_cert      004889b0 f   libcrypto:libcrypto-lib-ocsp_srv.obj
 0001:000879d0       _OPENSSL_sk_set_cmp_func   004889d0 f   libcrypto:libcrypto-lib-stack.obj
 0001:00087a00       _OPENSSL_sk_deep_copy      00488a00 f   libcrypto:libcrypto-lib-stack.obj
 0001:00087b10       _OPENSSL_sk_dup            00488b10 f   libcrypto:libcrypto-lib-stack.obj
 0001:00087b30       _OPENSSL_sk_new_null       00488b30 f   libcrypto:libcrypto-lib-stack.obj
 0001:00087b40       _OPENSSL_sk_new            00488b40 f   libcrypto:libcrypto-lib-stack.obj
 0001:00087b60       _OPENSSL_sk_new_reserve    00488b60 f   libcrypto:libcrypto-lib-stack.obj
 0001:00087ee0       _OPENSSL_sk_reserve        00488ee0 f   libcrypto:libcrypto-lib-stack.obj
 0001:00087f40       _OPENSSL_sk_set_thunks     00488f40 f   libcrypto:libcrypto-lib-stack.obj
 0001:00087f60       _OPENSSL_sk_set_cmp_thunks 00488f60 f   libcrypto:libcrypto-lib-stack.obj
 0001:00087f80       _OPENSSL_sk_insert         00488f80 f   libcrypto:libcrypto-lib-stack.obj
 0001:000880d0       _OPENSSL_sk_delete_ptr     004890d0 f   libcrypto:libcrypto-lib-stack.obj
 0001:00088160       _OPENSSL_sk_delete         00489160 f   libcrypto:libcrypto-lib-stack.obj
 0001:000881e0       _OPENSSL_sk_find           004891e0 f   libcrypto:libcrypto-lib-stack.obj
 0001:00088390       _OPENSSL_sk_find_all       00489390 f   libcrypto:libcrypto-lib-stack.obj
 0001:000883b0       _OPENSSL_sk_push           004893b0 f   libcrypto:libcrypto-lib-stack.obj
 0001:000883d0       _OPENSSL_sk_unshift        004893d0 f   libcrypto:libcrypto-lib-stack.obj
 0001:000883f0       _OPENSSL_sk_shift          004893f0 f   libcrypto:libcrypto-lib-stack.obj
 0001:00088460       _OPENSSL_sk_pop            00489460 f   libcrypto:libcrypto-lib-stack.obj
 0001:000884a0       _OPENSSL_sk_pop_free       004894a0 f   libcrypto:libcrypto-lib-stack.obj
 0001:000884f0       _OPENSSL_sk_free           004894f0 f   libcrypto:libcrypto-lib-stack.obj
 0001:00088530       _OPENSSL_sk_num            00489530 f   libcrypto:libcrypto-lib-stack.obj
 0001:00088550       _OPENSSL_sk_value          00489550 f   libcrypto:libcrypto-lib-stack.obj
 0001:00088580       _OPENSSL_sk_set            00489580 f   libcrypto:libcrypto-lib-stack.obj
 0001:00088620       _OPENSSL_sk_sort           00489620 f   libcrypto:libcrypto-lib-stack.obj
 0001:00088660       _OPENSSL_sk_is_sorted      00489660 f   libcrypto:libcrypto-lib-stack.obj
 0001:00088680       _X509_self_signed          00489680 f   libcrypto:libcrypto-lib-x509_vfy.obj
 0001:00088710       _X509_verify_cert          00489710 f   libcrypto:libcrypto-lib-x509_vfy.obj
 0001:00088b20       _X509_STORE_CTX_get1_issuer 00489b20 f   libcrypto:libcrypto-lib-x509_vfy.obj
 0001:00089870       _ossl_x509_check_crl_time  0048a870 f   libcrypto:libcrypto-lib-x509_vfy.obj
 0001:00089ad0       _ossl_x509_check_cert_time 0048aad0 f   libcrypto:libcrypto-lib-x509_vfy.obj
 0001:00089db0       _X509_gmtime_adj           0048adb0 f   libcrypto:libcrypto-lib-x509_vfy.obj
 0001:00089dd0       _X509_time_adj             0048add0 f   libcrypto:libcrypto-lib-x509_vfy.obj
 0001:00089df0       _X509_time_adj_ex          0048adf0 f   libcrypto:libcrypto-lib-x509_vfy.obj
 0001:00089e70       _X509_get_pubkey_parameters 0048ae70 f   libcrypto:libcrypto-lib-x509_vfy.obj
 0001:0008a050       _X509_STORE_CTX_set_ex_data 0048b050 f   libcrypto:libcrypto-lib-x509_vfy.obj
 0001:0008a070       _ossl_dh_get_method        0048b070 f   libcrypto:libcrypto-lib-x509_vfy.obj
 0001:0008a070       _X509_STORE_CTX_get_error  0048b070 f   libcrypto:libcrypto-lib-x509_vfy.obj
 0001:0008a070       _ossl_quic_txpim_pkt_get_num_chunks 0048b070 f   libcrypto:libcrypto-lib-x509_vfy.obj
 0001:0008a070       _ossl_dsa_get0_libctx      0048b070 f   libcrypto:libcrypto-lib-x509_vfy.obj
 0001:0008a070       _ossl_provider_get_parent  0048b070 f   libcrypto:libcrypto-lib-x509_vfy.obj
 0001:0008a080       _X509_STORE_CTX_get0_chain 0048b080 f   libcrypto:libcrypto-lib-x509_vfy.obj
 0001:0008a090       _X509_STORE_CTX_get1_chain 0048b090 f   libcrypto:libcrypto-lib-x509_vfy.obj
 0001:0008a0b0       _BIO_set_init              0048b0b0 f   libcrypto:libcrypto-lib-x509_vfy.obj
 0001:0008a0b0       _X509_STORE_CTX_set_ocsp_resp 0048b0b0 f   libcrypto:libcrypto-lib-x509_vfy.obj
 0001:0008a0c0       _X509_STORE_CTX_set_purpose 0048b0c0 f   libcrypto:libcrypto-lib-x509_vfy.obj
 0001:0008a0e0       _X509_STORE_CTX_set_trust  0048b0e0 f   libcrypto:libcrypto-lib-x509_vfy.obj
 0001:0008a100       _X509_STORE_CTX_purpose_inherit 0048b100 f   libcrypto:libcrypto-lib-x509_vfy.obj
 0001:0008a210       _X509_STORE_CTX_new_ex     0048b210 f   libcrypto:libcrypto-lib-x509_vfy.obj
 0001:0008a280       _X509_STORE_CTX_new        0048b280 f   libcrypto:libcrypto-lib-x509_vfy.obj
 0001:0008a290       _X509_STORE_CTX_free       0048b290 f   libcrypto:libcrypto-lib-x509_vfy.obj
 0001:0008a2d0       _X509_STORE_CTX_init_rpk   0048b2d0 f   libcrypto:libcrypto-lib-x509_vfy.obj
 0001:0008a300       _X509_STORE_CTX_init       0048b300 f   libcrypto:libcrypto-lib-x509_vfy.obj
 0001:0008b950       _X509_STORE_CTX_cleanup    0048c950 f   libcrypto:libcrypto-lib-x509_vfy.obj
 0001:0008b9c0       _X509_STORE_CTX_set_flags  0048c9c0 f   libcrypto:libcrypto-lib-x509_vfy.obj
 0001:0008b9e0       _X509_STORE_CTX_set_default 0048c9e0 f   libcrypto:libcrypto-lib-x509_vfy.obj
 0001:0008ba40       _SSL_CTX_get_cert_store    0048ca40 f   libcrypto:libcrypto-lib-x509_vfy.obj
 0001:0008ba40       _ossl_provider_name        0048ca40 f   libcrypto:libcrypto-lib-x509_vfy.obj
 0001:0008ba40       _EC_GROUP_get_asn1_flag    0048ca40 f   libcrypto:libcrypto-lib-x509_vfy.obj
 0001:0008ba40       _RSA_get0_e                0048ca40 f   libcrypto:libcrypto-lib-x509_vfy.obj
 0001:0008ba40       _X509_STORE_CTX_get0_param 0048ca40 f   libcrypto:libcrypto-lib-x509_vfy.obj
 0001:0008ba40       _CONF_imodule_get_usr_data 0048ca40 f   libcrypto:libcrypto-lib-x509_vfy.obj
 0001:0008ba40       _ossl_quic_port_get_channel_ctx 0048ca40 f   libcrypto:libcrypto-lib-x509_vfy.obj
 0001:0008ba40       _BIO_get_shutdown          0048ca40 f   libcrypto:libcrypto-lib-x509_vfy.obj
 0001:0008ba40       _EC_KEY_get_enc_flags      0048ca40 f   libcrypto:libcrypto-lib-x509_vfy.obj
 0001:0008ba40       _EVP_KEYMGMT_get0_provider 0048ca40 f   libcrypto:libcrypto-lib-x509_vfy.obj
 0001:0008ba40       _X509_CRL_get0_nextUpdate  0048ca40 f   libcrypto:libcrypto-lib-x509_vfy.obj
 0001:0008ba50       _X509_STORE_CTX_set0_param 0048ca50 f   libcrypto:libcrypto-lib-x509_vfy.obj
 0001:0008ba70       _X509_STORE_CTX_set0_dane  0048ca70 f   libcrypto:libcrypto-lib-x509_vfy.obj
 0001:0008cca0       _X509_check_purpose        0048dca0 f   libcrypto:libcrypto-lib-v3_purp.obj
 0001:0008cd00       _X509_PURPOSE_get0         0048dd00 f   libcrypto:libcrypto-lib-v3_purp.obj
 0001:0008cd40       _X509_PURPOSE_get_by_id    0048dd40 f   libcrypto:libcrypto-lib-v3_purp.obj
 0001:0008cda0       _BN_GENCB_get_arg          0048dda0 f   libcrypto:libcrypto-lib-v3_purp.obj
 0001:0008cda0       _UI_get0_output_string     0048dda0 f   libcrypto:libcrypto-lib-v3_purp.obj
 0001:0008cda0       _SSL_get_SSL_CTX           0048dda0 f   libcrypto:libcrypto-lib-v3_purp.obj
 0001:0008cda0       _ossl_ml_dsa_key_params    0048dda0 f   libcrypto:libcrypto-lib-v3_purp.obj
 0001:0008cda0       _ossl_rand_pool_length     0048dda0 f   libcrypto:libcrypto-lib-v3_purp.obj
 0001:0008cda0       _EC_GROUP_get0_generator   0048dda0 f   libcrypto:libcrypto-lib-v3_purp.obj
 0001:0008cda0       _bn_get_top                0048dda0 f   libcrypto:libcrypto-lib-v3_purp.obj
 0001:0008cda0       _EVP_CIPHER_CTX_is_encrypting 0048dda0 f   libcrypto:libcrypto-lib-v3_purp.obj
 0001:0008cda0       _ossl_rsa_get0_libctx      0048dda0 f   libcrypto:libcrypto-lib-v3_purp.obj
 0001:0008cda0       _X509_PURPOSE_get_trust    0048dda0 f   libcrypto:libcrypto-lib-v3_purp.obj
 0001:0008cda0       _ossl_quic_sstream_get_buffer_size 0048dda0 f   libcrypto:libcrypto-lib-v3_purp.obj
 0001:0008cdb0       _X509_supported_extension  0048ddb0 f   libcrypto:libcrypto-lib-v3_purp.obj
 0001:0008ce30       _ossl_x509v3_cache_extensions 0048de30 f   libcrypto:libcrypto-lib-v3_purp.obj
 0001:0008d900       _X509_check_ca             0048e900 f   libcrypto:libcrypto-lib-v3_purp.obj
 0001:0008dd60       _X509_check_issued         0048ed60 f   libcrypto:libcrypto-lib-v3_purp.obj
 0001:0008dd90       _ossl_x509_likely_issued   0048ed90 f   libcrypto:libcrypto-lib-v3_purp.obj
 0001:0008de80       _ossl_x509_signing_allowed 0048ee80 f   libcrypto:libcrypto-lib-v3_purp.obj
 0001:0008ded0       _X509_check_akid           0048eed0 f   libcrypto:libcrypto-lib-v3_purp.obj
 0001:0008dfa0       _X509_get_extension_flags  0048efa0 f   libcrypto:libcrypto-lib-v3_purp.obj
 0001:0008dfc0       _X509_get_key_usage        0048efc0 f   libcrypto:libcrypto-lib-v3_purp.obj
 0001:0008e000       _X509_get_extended_key_usage 0048f000 f   libcrypto:libcrypto-lib-v3_purp.obj
 0001:0008e040       _X509_set_issuer_name      0048f040 f   libcrypto:libcrypto-lib-x509_set.obj
 0001:0008e070       _X509_up_ref               0048f070 f   libcrypto:libcrypto-lib-x509_set.obj
 0001:0008e090       _X509_get_version          0048f090 f   libcrypto:libcrypto-lib-x509_set.obj
 0001:0008e0b0       _EC_GROUP_get0_seed        0048f0b0 f   libcrypto:libcrypto-lib-x509_set.obj
 0001:0008e0b0       _RSA_get0_q                0048f0b0 f   libcrypto:libcrypto-lib-x509_set.obj
 0001:0008e0b0       _EC_KEY_get_flags          0048f0b0 f   libcrypto:libcrypto-lib-x509_set.obj
 0001:0008e0b0       _X509_get0_notBefore       0048f0b0 f   libcrypto:libcrypto-lib-x509_set.obj
 0001:0008e0b0       _X509_VERIFY_PARAM_get_depth 0048f0b0 f   libcrypto:libcrypto-lib-x509_set.obj
 0001:0008e0c0       _X509_get0_notAfter        0048f0c0 f   libcrypto:libcrypto-lib-x509_set.obj
 0001:0008e0c0       _EVP_CIPHER_get0_provider  0048f0c0 f   libcrypto:libcrypto-lib-x509_set.obj
 0001:0008e0c0       _EC_GROUP_get_seed_len     0048f0c0 f   libcrypto:libcrypto-lib-x509_set.obj
 0001:0008e0c0       _RSA_get0_dmp1             0048f0c0 f   libcrypto:libcrypto-lib-x509_set.obj
 0001:0008e0c0       _BIO_get_data              0048f0c0 f   libcrypto:libcrypto-lib-x509_set.obj
 0001:0008e0c0       _EVP_MD_get0_provider      0048f0c0 f   libcrypto:libcrypto-lib-x509_set.obj
 0001:0008e0d0       _X509_get0_extensions      0048f0d0 f   libcrypto:libcrypto-lib-x509_set.obj
 0001:0008e0d0       _OPENSSL_LH_error          0048f0d0 f   libcrypto:libcrypto-lib-x509_set.obj
 0001:0008e0e0       _X509_SIG_INFO_get         0048f0e0 f   libcrypto:libcrypto-lib-x509_set.obj
 0001:0008e120       _X509_SIG_INFO_set         0048f120 f   libcrypto:libcrypto-lib-x509_set.obj
 0001:0008e140       _X509_get_signature_info   0048f140 f   libcrypto:libcrypto-lib-x509_set.obj
 0001:0008e170       _ossl_x509_init_sig_info   0048f170 f   libcrypto:libcrypto-lib-x509_set.obj
 0001:0008e430       _BIO_s_socket              0048f430 f   libcrypto:libcrypto-lib-bss_sock.obj
 0001:0008e440       _BIO_new_socket            0048f440 f   libcrypto:libcrypto-lib-bss_sock.obj
 0001:0008e8a0       _BIO_sock_should_retry     0048f8a0 f   libcrypto:libcrypto-lib-bss_sock.obj
 0001:0008e8d0       _BIO_sock_non_fatal_error  0048f8d0 f   libcrypto:libcrypto-lib-bss_sock.obj
 0001:0008e910       _CRYPTO_THREAD_get_local_ex 0048f910 f   libcrypto:libcrypto-lib-threads_common.obj
 0001:0008ea10       _CRYPTO_THREAD_set_local_ex 0048fa10 f   libcrypto:libcrypto-lib-threads_common.obj
 0001:0008eaf0       _CRYPTO_THREAD_clean_local 0048faf0 f   libcrypto:libcrypto-lib-threads_common.obj
 0001:0008eb20       _CRYPTO_THREAD_clean_local_for_ssp 0048fb20 f   libcrypto:libcrypto-lib-threads_common.obj
 0001:0008eb40       _ossl_cleanup_destructor   0048fb40 f   libcrypto:libcrypto-lib-init.obj
 0001:0008ec10       _OPENSSL_init_crypto       0048fc10 f   libcrypto:libcrypto-lib-init.obj
 0001:0008f260       _OPENSSL_cleanup           00490260 f   libcrypto:libcrypto-lib-init.obj
 0001:0008f270       _ossl_init_thread          00490270 f   libcrypto:libcrypto-lib-initthread.obj
 0001:0008f420       _ossl_cleanup_thread       00490420 f   libcrypto:libcrypto-lib-initthread.obj
 0001:0008f450       _OPENSSL_thread_stop       00490450 f   libcrypto:libcrypto-lib-initthread.obj
 0001:0008f5e0       _ossl_ctx_thread_stop      004905e0 f   libcrypto:libcrypto-lib-initthread.obj
 0001:0008f6c0       _ossl_init_thread_start    004906c0 f   libcrypto:libcrypto-lib-initthread.obj
 0001:0008f890       _ossl_init_thread_deregister 00490890 f   libcrypto:libcrypto-lib-initthread.obj
 0001:0008f8b0       _X509_verify               004908b0 f   libcrypto:libcrypto-lib-x_all.obj
 0001:0008f910       _d2i_X509_bio              00490910 f   libcrypto:libcrypto-lib-x_all.obj
 0001:0008f930       _d2i_X509_CRL_bio          00490930 f   libcrypto:libcrypto-lib-x_all.obj
 0001:0008f950       _X509_pubkey_digest        00490950 f   libcrypto:libcrypto-lib-x_all.obj
 0001:0008f990       _X509_digest               00490990 f   libcrypto:libcrypto-lib-x_all.obj
 0001:0008fa10       _X509_CRL_digest           00490a10 f   libcrypto:libcrypto-lib-x_all.obj
 0001:0008fac0       _X509_NAME_digest          00490ac0 f   libcrypto:libcrypto-lib-x_all.obj
 0001:0008faf0       _i2d_PKCS8_bio             00490af0 f   libcrypto:libcrypto-lib-x_all.obj
 0001:0008fb10       _i2d_X509_PUBKEY_bio       00490b10 f   libcrypto:libcrypto-lib-x_all.obj
 0001:0008fb30       _i2d_PKCS8_PRIV_KEY_INFO_bio 00490b30 f   libcrypto:libcrypto-lib-x_all.obj
 0001:0008fb50       _d2i_PrivateKey_ex_bio     00490b50 f   libcrypto:libcrypto-lib-x_all.obj
 0001:0008fbb0       _EVP_sha1                  00490bb0 f   libcrypto:libcrypto-lib-legacy_sha.obj
 0001:0008fbc0       _EVP_sha224                00490bc0 f   libcrypto:libcrypto-lib-legacy_sha.obj
 0001:0008fbd0       _EVP_sha256                00490bd0 f   libcrypto:libcrypto-lib-legacy_sha.obj
 0001:0008fbe0       _EVP_sha512_224            00490be0 f   libcrypto:libcrypto-lib-legacy_sha.obj
 0001:0008fbf0       _EVP_sha512_256            00490bf0 f   libcrypto:libcrypto-lib-legacy_sha.obj
 0001:0008fc00       _EVP_sha384                00490c00 f   libcrypto:libcrypto-lib-legacy_sha.obj
 0001:0008fc10       _EVP_sha512                00490c10 f   libcrypto:libcrypto-lib-legacy_sha.obj
 0001:0008fc20       _EVP_sha3_224              00490c20 f   libcrypto:libcrypto-lib-legacy_sha.obj
 0001:0008fc30       _EVP_sha3_256              00490c30 f   libcrypto:libcrypto-lib-legacy_sha.obj
 0001:0008fc40       _EVP_sha3_384              00490c40 f   libcrypto:libcrypto-lib-legacy_sha.obj
 0001:0008fc50       _EVP_sha3_512              00490c50 f   libcrypto:libcrypto-lib-legacy_sha.obj
 0001:0008fc60       _EVP_shake128              00490c60 f   libcrypto:libcrypto-lib-legacy_sha.obj
 0001:0008fc70       _EVP_shake256              00490c70 f   libcrypto:libcrypto-lib-legacy_sha.obj
 0001:0008fc80       _ASN1_OCTET_STRING_it      00490c80 f   libcrypto:libcrypto-lib-tasn_typ.obj
 0001:0008fc90       _d2i_ASN1_OCTET_STRING     00490c90 f   libcrypto:libcrypto-lib-tasn_typ.obj
 0001:0008fcb0       _i2d_ASN1_OCTET_STRING     00490cb0 f   libcrypto:libcrypto-lib-tasn_typ.obj
 0001:0008fcd0       _ASN1_INTEGER_it           00490cd0 f   libcrypto:libcrypto-lib-tasn_typ.obj
 0001:0008fce0       _d2i_ASN1_INTEGER          00490ce0 f   libcrypto:libcrypto-lib-tasn_typ.obj
 0001:0008fd00       _i2d_ASN1_INTEGER          00490d00 f   libcrypto:libcrypto-lib-tasn_typ.obj
 0001:0008fd20       _ASN1_INTEGER_new          00490d20 f   libcrypto:libcrypto-lib-tasn_typ.obj
 0001:0008fd30       _ASN1_ENUMERATED_it        00490d30 f   libcrypto:libcrypto-lib-tasn_typ.obj
 0001:0008fd40       _d2i_ASN1_ENUMERATED       00490d40 f   libcrypto:libcrypto-lib-tasn_typ.obj
 0001:0008fd60       _ASN1_BIT_STRING_it        00490d60 f   libcrypto:libcrypto-lib-tasn_typ.obj
 0001:0008fd70       _ASN1_BIT_STRING_new       00490d70 f   libcrypto:libcrypto-lib-tasn_typ.obj
 0001:0008fd80       _ASN1_UTF8STRING_it        00490d80 f   libcrypto:libcrypto-lib-tasn_typ.obj
 0001:0008fd90       _ASN1_UTF8STRING_new       00490d90 f   libcrypto:libcrypto-lib-tasn_typ.obj
 0001:0008fda0       _ASN1_PRINTABLESTRING_it   00490da0 f   libcrypto:libcrypto-lib-tasn_typ.obj
 0001:0008fdb0       _ASN1_IA5STRING_it         00490db0 f   libcrypto:libcrypto-lib-tasn_typ.obj
 0001:0008fdc0       _ASN1_IA5STRING_new        00490dc0 f   libcrypto:libcrypto-lib-tasn_typ.obj
 0001:0008fdd0       _ASN1_GENERALIZEDTIME_it   00490dd0 f   libcrypto:libcrypto-lib-tasn_typ.obj
 0001:0008fde0       _ASN1_GENERALIZEDTIME_new  00490de0 f   libcrypto:libcrypto-lib-tasn_typ.obj
 0001:0008fdf0       _ASN1_BIT_STRING_free      00490df0 f   libcrypto:libcrypto-lib-tasn_typ.obj
 0001:0008fdf0       _ASN1_UTF8STRING_free      00490df0 f   libcrypto:libcrypto-lib-tasn_typ.obj
 0001:0008fdf0       _ASN1_GENERALIZEDTIME_free 00490df0 f   libcrypto:libcrypto-lib-tasn_typ.obj
 0001:0008fdf0       _ASN1_OCTET_STRING_free    00490df0 f   libcrypto:libcrypto-lib-tasn_typ.obj
 0001:0008fdf0       _ASN1_INTEGER_free         00490df0 f   libcrypto:libcrypto-lib-tasn_typ.obj
 0001:0008fdf0       _ASN1_IA5STRING_free       00490df0 f   libcrypto:libcrypto-lib-tasn_typ.obj
 0001:0008fdf0       _ASN1_ENUMERATED_free      00490df0 f   libcrypto:libcrypto-lib-tasn_typ.obj
 0001:0008fe10       _ASN1_NULL_it              00490e10 f   libcrypto:libcrypto-lib-tasn_typ.obj
 0001:0008fe20       _ASN1_NULL_new             00490e20 f   libcrypto:libcrypto-lib-tasn_typ.obj
 0001:0008fe30       _ASN1_OBJECT_it            00490e30 f   libcrypto:libcrypto-lib-tasn_typ.obj
 0001:0008fe40       _ASN1_ANY_it               00490e40 f   libcrypto:libcrypto-lib-tasn_typ.obj
 0001:0008fe50       _ASN1_SEQUENCE_it          00490e50 f   libcrypto:libcrypto-lib-tasn_typ.obj
 0001:0008fe60       _d2i_ASN1_TYPE             00490e60 f   libcrypto:libcrypto-lib-tasn_typ.obj
 0001:0008fe80       _i2d_ASN1_TYPE             00490e80 f   libcrypto:libcrypto-lib-tasn_typ.obj
 0001:0008fea0       _ASN1_TYPE_new             00490ea0 f   libcrypto:libcrypto-lib-tasn_typ.obj
 0001:0008feb0       _ASN1_TYPE_free            00490eb0 f   libcrypto:libcrypto-lib-tasn_typ.obj
 0001:0008fed0       _ASN1_PRINTABLE_it         00490ed0 f   libcrypto:libcrypto-lib-tasn_typ.obj
 0001:0008fee0       _DISPLAYTEXT_it            00490ee0 f   libcrypto:libcrypto-lib-tasn_typ.obj
 0001:0008fef0       _DIRECTORYSTRING_it        00490ef0 f   libcrypto:libcrypto-lib-tasn_typ.obj
 0001:0008ff00       _ASN1_TBOOLEAN_it          00490f00 f   libcrypto:libcrypto-lib-tasn_typ.obj
 0001:0008ff10       _ASN1_FBOOLEAN_it          00490f10 f   libcrypto:libcrypto-lib-tasn_typ.obj
 0001:0008ff20       _ASN1_OCTET_STRING_NDEF_it 00490f20 f   libcrypto:libcrypto-lib-tasn_typ.obj
 0001:0008ff30       _ASN1_SEQUENCE_ANY_it      00490f30 f   libcrypto:libcrypto-lib-tasn_typ.obj
 0001:0008ff40       _ASN1_SET_ANY_it           00490f40 f   libcrypto:libcrypto-lib-tasn_typ.obj
 0001:0008ff50       _d2i_ASN1_SEQUENCE_ANY     00490f50 f   libcrypto:libcrypto-lib-tasn_typ.obj
 0001:0008ff70       _i2d_ASN1_SEQUENCE_ANY     00490f70 f   libcrypto:libcrypto-lib-tasn_typ.obj
 0001:0008ff90       _i2d_ASN1_SET_ANY          00490f90 f   libcrypto:libcrypto-lib-tasn_typ.obj
 0001:0008ffb0       _ASN1_get_object           00490fb0 f   libcrypto:libcrypto-lib-asn1_lib.obj
 0001:000901d0       _ASN1_put_object           004911d0 f   libcrypto:libcrypto-lib-asn1_lib.obj
 0001:000902a0       _ASN1_put_eoc              004912a0 f   libcrypto:libcrypto-lib-asn1_lib.obj
 0001:00090320       _ASN1_object_size          00491320 f   libcrypto:libcrypto-lib-asn1_lib.obj
 0001:00090380       _ossl_asn1_bit_string_set_unused_bits 00491380 f   libcrypto:libcrypto-lib-asn1_lib.obj
 0001:000903a0       _ASN1_STRING_copy          004913a0 f   libcrypto:libcrypto-lib-asn1_lib.obj
 0001:00090400       _ASN1_STRING_dup           00491400 f   libcrypto:libcrypto-lib-asn1_lib.obj
 0001:00090450       _ASN1_STRING_set           00491450 f   libcrypto:libcrypto-lib-asn1_lib.obj
 0001:00090530       _ASN1_STRING_set0          00491530 f   libcrypto:libcrypto-lib-asn1_lib.obj
 0001:00090560       _ASN1_STRING_new           00491560 f   libcrypto:libcrypto-lib-asn1_lib.obj
 0001:00090560       _ASN1_OCTET_STRING_new     00491560 f   libcrypto:libcrypto-lib-asn1_lib.obj
 0001:00090570       _ASN1_STRING_type_new      00491570 f   libcrypto:libcrypto-lib-asn1_lib.obj
 0001:000905a0       _ossl_asn1_string_embed_free 004915a0 f   libcrypto:libcrypto-lib-asn1_lib.obj
 0001:000905f0       _ASN1_STRING_free          004915f0 f   libcrypto:libcrypto-lib-asn1_lib.obj
 0001:00090610       _ASN1_STRING_clear_free    00491610 f   libcrypto:libcrypto-lib-asn1_lib.obj
 0001:00090640       _ASN1_STRING_cmp           00491640 f   libcrypto:libcrypto-lib-asn1_lib.obj
 0001:00090680       _EVP_KDF_get0_provider     00491680 f   libcrypto:libcrypto-lib-asn1_lib.obj
 0001:00090680       _UI_get_method             00491680 f   libcrypto:libcrypto-lib-asn1_lib.obj
 0001:00090680       _EVP_MAC_get0_provider     00491680 f   libcrypto:libcrypto-lib-asn1_lib.obj
 0001:00090680       _ossl_rcu_uptr_deref       00491680 f   libcrypto:libcrypto-lib-asn1_lib.obj
 0001:00090680       _EC_KEY_get_method         00491680 f   libcrypto:libcrypto-lib-asn1_lib.obj
 0001:00090680       _COMP_CTX_get_method       00491680 f   libcrypto:libcrypto-lib-asn1_lib.obj
 0001:00090680       _ossl_rand_pool_buffer     00491680 f   libcrypto:libcrypto-lib-asn1_lib.obj
 0001:00090680       _UI_get_string_type        00491680 f   libcrypto:libcrypto-lib-asn1_lib.obj
 0001:00090680       _EVP_MD_get_type           00491680 f   libcrypto:libcrypto-lib-asn1_lib.obj
 0001:00090680       _ossl_prov_digest_md       00491680 f   libcrypto:libcrypto-lib-asn1_lib.obj
 0001:00090680       _EVP_RAND_get0_provider    00491680 f   libcrypto:libcrypto-lib-asn1_lib.obj
 0001:00090680       _EVP_ENCODE_CTX_num        00491680 f   libcrypto:libcrypto-lib-asn1_lib.obj
 0001:00090680       _ASN1_STRING_length        00491680 f   libcrypto:libcrypto-lib-asn1_lib.obj
 0001:00090680       _EVP_PKEY_get_id           00491680 f   libcrypto:libcrypto-lib-asn1_lib.obj
 0001:00090680       _ossl_quic_port_get0_engine 00491680 f   libcrypto:libcrypto-lib-asn1_lib.obj
 0001:00090680       _pqueue_peek               00491680 f   libcrypto:libcrypto-lib-asn1_lib.obj
 0001:00090680       _CMAC_CTX_get0_cipher_ctx  00491680 f   libcrypto:libcrypto-lib-asn1_lib.obj
 0001:00090680       _ossl_prov_cipher_cipher   00491680 f   libcrypto:libcrypto-lib-asn1_lib.obj
 0001:00090680       _OSSL_STORE_INFO_get_type  00491680 f   libcrypto:libcrypto-lib-asn1_lib.obj
 0001:00090680       _OCSP_SINGLERESP_get0_id   00491680 f   libcrypto:libcrypto-lib-asn1_lib.obj
 0001:00090680       _ssl_hmac_get0_EVP_MAC_CTX 00491680 f   libcrypto:libcrypto-lib-asn1_lib.obj
 0001:00090680       _bn_get_words              00491680 f   libcrypto:libcrypto-lib-asn1_lib.obj
 0001:00090680       _EVP_MAC_CTX_get0_mac      00491680 f   libcrypto:libcrypto-lib-asn1_lib.obj
 0001:00090690       _OSSL_ENCODER_get0_name    00491690 f   libcrypto:libcrypto-lib-asn1_lib.obj
 0001:00090690       _X509_NAME_ENTRY_set       00491690 f   libcrypto:libcrypto-lib-asn1_lib.obj
 0001:00090690       _CTLOG_get0_name           00491690 f   libcrypto:libcrypto-lib-asn1_lib.obj
 0001:00090690       _OSSL_DECODER_get0_name    00491690 f   libcrypto:libcrypto-lib-asn1_lib.obj
 0001:00090690       _UI_get_input_flags        00491690 f   libcrypto:libcrypto-lib-asn1_lib.obj
 0001:00090690       _UI_get0_user_data         00491690 f   libcrypto:libcrypto-lib-asn1_lib.obj
 0001:00090690       _DSA_get0_p                00491690 f   libcrypto:libcrypto-lib-asn1_lib.obj
 0001:00090690       _evp_keymgmt_get_legacy_alg 00491690 f   libcrypto:libcrypto-lib-asn1_lib.obj
 0001:00090690       _EC_KEY_get0_group         00491690 f   libcrypto:libcrypto-lib-asn1_lib.obj
 0001:00090690       _EC_GROUP_get0_order       00491690 f   libcrypto:libcrypto-lib-asn1_lib.obj
 0001:00090690       _EVP_CIPHER_get_key_length 00491690 f   libcrypto:libcrypto-lib-asn1_lib.obj
 0001:00090690       _DH_get0_p                 00491690 f   libcrypto:libcrypto-lib-asn1_lib.obj
 0001:00090690       _ossl_quic_engine_get0_mutex 00491690 f   libcrypto:libcrypto-lib-asn1_lib.obj
 0001:00090690       _evp_pkey_get0_asn1        00491690 f   libcrypto:libcrypto-lib-asn1_lib.obj
 0001:00090690       _ASN1_STRING_get0_data     00491690 f   libcrypto:libcrypto-lib-asn1_lib.obj
 0001:00090690       _EVP_MAC_get0_name         00491690 f   libcrypto:libcrypto-lib-asn1_lib.obj
 0001:000906a0       _evp_md_ctx_clear_digest   004916a0 f   libcrypto:libcrypto-lib-digest.obj
 0001:00090710       _EVP_MD_CTX_reset          00491710 f   libcrypto:libcrypto-lib-digest.obj
 0001:00090790       _evp_md_ctx_new_ex         00491790 f   libcrypto:libcrypto-lib-digest.obj
 0001:00090830       _EVP_MD_CTX_new            00491830 f   libcrypto:libcrypto-lib-digest.obj
 0001:00090850       _EVP_MD_CTX_free           00491850 f   libcrypto:libcrypto-lib-digest.obj
 0001:00090880       _evp_md_ctx_free_algctx    00491880 f   libcrypto:libcrypto-lib-digest.obj
 0001:000908e0       _EVP_DigestInit_ex2        004918e0 f   libcrypto:libcrypto-lib-digest.obj
 0001:00090b20       _EVP_DigestInit            00491b20 f   libcrypto:libcrypto-lib-digest.obj
 0001:00090b40       _EVP_DigestInit_ex         00491b40 f   libcrypto:libcrypto-lib-digest.obj
 0001:00090b70       _EVP_DigestUpdate          00491b70 f   libcrypto:libcrypto-lib-digest.obj
 0001:00090c70       _EVP_DigestFinal           00491c70 f   libcrypto:libcrypto-lib-digest.obj
 0001:00090ca0       _EVP_DigestFinal_ex        00491ca0 f   libcrypto:libcrypto-lib-digest.obj
 0001:00090d90       _EVP_DigestFinalXOF        00491d90 f   libcrypto:libcrypto-lib-digest.obj
 0001:00090ed0       _EVP_DigestSqueeze         00491ed0 f   libcrypto:libcrypto-lib-digest.obj
 0001:00090f90       _EVP_MD_CTX_dup            00491f90 f   libcrypto:libcrypto-lib-digest.obj
 0001:00090fd0       _EVP_MD_CTX_copy           00491fd0 f   libcrypto:libcrypto-lib-digest.obj
 0001:00090ff0       _EVP_MD_CTX_copy_ex        00491ff0 f   libcrypto:libcrypto-lib-digest.obj
 0001:000911e0       _EVP_Digest                004921e0 f   libcrypto:libcrypto-lib-digest.obj
 0001:00091270       _EVP_Q_digest              00492270 f   libcrypto:libcrypto-lib-digest.obj
 0001:000912d0       _EVP_MD_CTX_set_params     004922d0 f   libcrypto:libcrypto-lib-digest.obj
 0001:00091330       _EVP_MD_settable_ctx_params 00492330 f   libcrypto:libcrypto-lib-digest.obj
 0001:00091360       _EVP_MD_CTX_get_params     00492360 f   libcrypto:libcrypto-lib-digest.obj
 0001:000913c0       _EVP_MD_gettable_ctx_params 004923c0 f   libcrypto:libcrypto-lib-digest.obj
 0001:000913f0       _EVP_MD_CTX_gettable_params 004923f0 f   libcrypto:libcrypto-lib-digest.obj
 0001:00091470       _EVP_MD_CTX_ctrl           00492470 f   libcrypto:libcrypto-lib-digest.obj
 0001:000915d0       _evp_md_new                004925d0 f   libcrypto:libcrypto-lib-digest.obj
 0001:000915f0       _EVP_MD_fetch              004925f0 f   libcrypto:libcrypto-lib-digest.obj
 0001:00091ae0       _EVP_MD_up_ref             00492ae0 f   libcrypto:libcrypto-lib-digest.obj
 0001:00091b00       _EVP_MD_free               00492b00 f   libcrypto:libcrypto-lib-digest.obj
 0001:00091b60       _evp_digest_fetch_from_prov 00492b60 f   libcrypto:libcrypto-lib-digest.obj
 0001:00091b90       _ossl_hmac2mdnid           00492b90 f   libcrypto:libcrypto-lib-digest.obj
 0001:00091bc0       _EVP_CIPHER_param_to_asn1  00492bc0 f   libcrypto:libcrypto-lib-evp_lib.obj
 0001:00091be0       _EVP_CIPHER_asn1_to_param  00492be0 f   libcrypto:libcrypto-lib-evp_lib.obj
 0001:00091c00       _EVP_CIPHER_get_asn1_iv    00492c00 f   libcrypto:libcrypto-lib-evp_lib.obj
 0001:00091c90       _EVP_CIPHER_set_asn1_iv    00492c90 f   libcrypto:libcrypto-lib-evp_lib.obj
 0001:00091ce0       _evp_cipher_param_to_asn1_ex 00492ce0 f   libcrypto:libcrypto-lib-evp_lib.obj
 0001:00091e40       _evp_cipher_asn1_to_param_ex 00492e40 f   libcrypto:libcrypto-lib-evp_lib.obj
 0001:00091f80       _evp_cipher_get_asn1_aead_params 00492f80 f   libcrypto:libcrypto-lib-evp_lib.obj
 0001:00091ff0       _evp_cipher_set_asn1_aead_params 00492ff0 f   libcrypto:libcrypto-lib-evp_lib.obj
 0001:00092020       _EVP_CIPHER_get_type       00493020 f   libcrypto:libcrypto-lib-evp_lib.obj
 0001:00092160       _evp_cipher_cache_constants 00493160 f   libcrypto:libcrypto-lib-evp_lib.obj
 0001:000923b0       _EVP_CIPHER_CTX_get_block_size 004933b0 f   libcrypto:libcrypto-lib-evp_lib.obj
 0001:000923d0       _EVP_Cipher                004933d0 f   libcrypto:libcrypto-lib-evp_lib.obj
 0001:000924c0       _EVP_CIPHER_CTX_get_iv_length 004934c0 f   libcrypto:libcrypto-lib-evp_lib.obj
 0001:000925e0       _EVP_CIPHER_CTX_get_tag_length 004935e0 f   libcrypto:libcrypto-lib-evp_lib.obj
 0001:00092660       _EVP_CIPHER_CTX_original_iv 00493660 f   libcrypto:libcrypto-lib-evp_lib.obj
 0001:000926e0       _EVP_CIPHER_CTX_get_key_length 004936e0 f   libcrypto:libcrypto-lib-evp_lib.obj
 0001:000927b0       _EVP_CIPHER_is_a           004937b0 f   libcrypto:libcrypto-lib-evp_lib.obj
 0001:00092800       _EVP_CIPHER_get0_name      00493800 f   libcrypto:libcrypto-lib-evp_lib.obj
 0001:00092820       _EVP_CIPHER_get_mode       00493820 f   libcrypto:libcrypto-lib-evp_lib.obj
 0001:00092840       _EVP_MD_is_a               00493840 f   libcrypto:libcrypto-lib-evp_lib.obj
 0001:00092890       _EVP_MD_get0_name          00493890 f   libcrypto:libcrypto-lib-evp_lib.obj
 0001:000928c0       _EVP_MD_get_block_size     004938c0 f   libcrypto:libcrypto-lib-evp_lib.obj
 0001:00092900       _EVP_MD_get_size           00493900 f   libcrypto:libcrypto-lib-evp_lib.obj
 0001:00092940       _EVP_MD_xof                00493940 f   libcrypto:libcrypto-lib-evp_lib.obj
 0001:00092970       _EVP_MD_CTX_get_size_ex    00493970 f   libcrypto:libcrypto-lib-evp_lib.obj
 0001:00092a30       _EVP_MD_CTX_set_pkey_ctx   00493a30 f   libcrypto:libcrypto-lib-evp_lib.obj
 0001:00092a80       _EVP_MD_CTX_set_flags      00493a80 f   libcrypto:libcrypto-lib-evp_lib.obj
 0001:00092a90       _EVP_MD_CTX_clear_flags    00493a90 f   libcrypto:libcrypto-lib-evp_lib.obj
 0001:00092aa0       _EVP_MD_CTX_test_flags     00493aa0 f   libcrypto:libcrypto-lib-evp_lib.obj
 0001:00092ab0       _EVP_PKEY_CTX_set_group_name 00493ab0 f   libcrypto:libcrypto-lib-evp_lib.obj
 0001:00092b60       _EVP_PKEY_Q_keygen         00493b60 f   libcrypto:libcrypto-lib-evp_lib.obj
 0001:00092c90       _EVP_CIPHER_CTX_set_algor_params 00493c90 f   libcrypto:libcrypto-lib-evp_lib.obj
 0001:00092d50       _EVP_CIPHER_CTX_get_algor_params 00493d50 f   libcrypto:libcrypto-lib-evp_lib.obj
 0001:00092ee0       _HMAC_Init_ex              00493ee0 f   libcrypto:libcrypto-lib-hmac.obj
 0001:00093100       _HMAC_Update               00494100 f   libcrypto:libcrypto-lib-hmac.obj
 0001:00093130       _HMAC_Final                00494130 f   libcrypto:libcrypto-lib-hmac.obj
 0001:000931c0       _HMAC_size                 004941c0 f   libcrypto:libcrypto-lib-hmac.obj
 0001:000931e0       _HMAC_CTX_new              004941e0 f   libcrypto:libcrypto-lib-hmac.obj
 0001:00093220       _HMAC_CTX_free             00494220 f   libcrypto:libcrypto-lib-hmac.obj
 0001:000932a0       _HMAC_CTX_reset            004942a0 f   libcrypto:libcrypto-lib-hmac.obj
 0001:00093330       _HMAC_CTX_copy             00494330 f   libcrypto:libcrypto-lib-hmac.obj
 0001:000933a0       _EVP_md5                   004943a0 f   libcrypto:libcrypto-lib-legacy_md5.obj
 0001:000933b0       _EVP_CIPHER_CTX_reset      004943b0 f   libcrypto:libcrypto-lib-evp_enc.obj
 0001:00093420       _EVP_CIPHER_CTX_new        00494420 f   libcrypto:libcrypto-lib-evp_enc.obj
 0001:00093450       _EVP_CIPHER_CTX_free       00494450 f   libcrypto:libcrypto-lib-evp_enc.obj
 0001:00093480       _EVP_CipherInit_ex2        00494480 f   libcrypto:libcrypto-lib-evp_enc.obj
 0001:000938e0       _EVP_CipherInit_ex         004948e0 f   libcrypto:libcrypto-lib-evp_enc.obj
 0001:00093910       _EVP_CipherUpdate          00494910 f   libcrypto:libcrypto-lib-evp_enc.obj
 0001:00093950       _EVP_CipherFinal_ex        00494950 f   libcrypto:libcrypto-lib-evp_enc.obj
 0001:00093980       _EVP_EncryptInit_ex        00494980 f   libcrypto:libcrypto-lib-evp_enc.obj
 0001:000939b0       _EVP_EncryptInit_ex2       004949b0 f   libcrypto:libcrypto-lib-evp_enc.obj
 0001:000939e0       _EVP_DecryptInit_ex        004949e0 f   libcrypto:libcrypto-lib-evp_enc.obj
 0001:00093a10       _EVP_EncryptUpdate         00494a10 f   libcrypto:libcrypto-lib-evp_enc.obj
 0001:00093ba0       _EVP_EncryptFinal          00494ba0 f   libcrypto:libcrypto-lib-evp_enc.obj
 0001:00093bc0       _EVP_EncryptFinal_ex       00494bc0 f   libcrypto:libcrypto-lib-evp_enc.obj
 0001:00093d20       _EVP_DecryptUpdate         00494d20 f   libcrypto:libcrypto-lib-evp_enc.obj
 0001:00093ed0       _EVP_DecryptFinal          00494ed0 f   libcrypto:libcrypto-lib-evp_enc.obj
 0001:00093ef0       _EVP_DecryptFinal_ex       00494ef0 f   libcrypto:libcrypto-lib-evp_enc.obj
 0001:00094050       _EVP_CIPHER_CTX_set_key_length 00495050 f   libcrypto:libcrypto-lib-evp_enc.obj
 0001:00094190       _EVP_CIPHER_CTX_set_padding 00495190 f   libcrypto:libcrypto-lib-evp_enc.obj
 0001:00094240       _EVP_CIPHER_CTX_ctrl       00495240 f   libcrypto:libcrypto-lib-evp_enc.obj
 0001:00094950       _EVP_CIPHER_get_params     00495950 f   libcrypto:libcrypto-lib-evp_enc.obj
 0001:00094970       _EVP_CIPHER_CTX_set_params 00495970 f   libcrypto:libcrypto-lib-evp_enc.obj
 0001:00094a10       _EVP_CIPHER_CTX_get_params 00495a10 f   libcrypto:libcrypto-lib-evp_enc.obj
 0001:00094a40       _EVP_CIPHER_settable_ctx_params 00495a40 f   libcrypto:libcrypto-lib-evp_enc.obj
 0001:00094a70       _EVP_CIPHER_gettable_ctx_params 00495a70 f   libcrypto:libcrypto-lib-evp_enc.obj
 0001:00094aa0       _EVP_CIPHER_CTX_rand_key   00495aa0 f   libcrypto:libcrypto-lib-evp_enc.obj
 0001:00094b20       _EVP_CIPHER_CTX_copy       00495b20 f   libcrypto:libcrypto-lib-evp_enc.obj
 0001:00094c60       _evp_cipher_new            00495c60 f   libcrypto:libcrypto-lib-evp_enc.obj
 0001:00094c80       _EVP_CIPHER_fetch          00495c80 f   libcrypto:libcrypto-lib-evp_enc.obj
 0001:00095130       _evp_cipher_fetch_from_prov 00496130 f   libcrypto:libcrypto-lib-evp_enc.obj
 0001:00095160       _EVP_CIPHER_can_pipeline   00496160 f   libcrypto:libcrypto-lib-evp_enc.obj
 0001:000951a0       _EVP_CIPHER_up_ref         004961a0 f   libcrypto:libcrypto-lib-evp_enc.obj
 0001:000951c0       _evp_cipher_free_int       004961c0 f   libcrypto:libcrypto-lib-evp_enc.obj
 0001:00095200       _EVP_CIPHER_free           00496200 f   libcrypto:libcrypto-lib-evp_enc.obj
 0001:00095230       _EVP_MAC_CTX_new           00496230 f   libcrypto:libcrypto-lib-mac_lib.obj
 0001:000952c0       _EVP_MAC_CTX_free          004962c0 f   libcrypto:libcrypto-lib-mac_lib.obj
 0001:00095300       _EVP_MAC_CTX_dup           00496300 f   libcrypto:libcrypto-lib-mac_lib.obj
 0001:000953b0       _EVP_MAC_CTX_get_mac_size  004963b0 f   libcrypto:libcrypto-lib-mac_lib.obj
 0001:00095480       _EVP_MAC_init              00496480 f   libcrypto:libcrypto-lib-mac_lib.obj
 0001:000954e0       _EVP_MAC_update            004964e0 f   libcrypto:libcrypto-lib-mac_lib.obj
 0001:00095500       _EVP_MAC_final             00496500 f   libcrypto:libcrypto-lib-mac_lib.obj
 0001:000956e0       _EVP_MAC_CTX_set_params    004966e0 f   libcrypto:libcrypto-lib-mac_lib.obj
 0001:00095710       _EVP_MAC_is_a              00496710 f   libcrypto:libcrypto-lib-mac_lib.obj
 0001:00095740       _EVP_Q_mac                 00496740 f   libcrypto:libcrypto-lib-mac_lib.obj
 0001:00095970       _OSSL_PARAM_locate         00496970 f   libcrypto:libcrypto-lib-params.obj
 0001:000959e0       _OSSL_PARAM_locate_const   004969e0 f   libcrypto:libcrypto-lib-params.obj
 0001:00095a00       _OSSL_PARAM_modified       00496a00 f   libcrypto:libcrypto-lib-params.obj
 0001:00095a20       _OSSL_PARAM_construct_int  00496a20 f   libcrypto:libcrypto-lib-params.obj
 0001:00095ab0       _OSSL_PARAM_construct_uint 00496ab0 f   libcrypto:libcrypto-lib-params.obj
 0001:00095af0       _OSSL_PARAM_get_int32      00496af0 f   libcrypto:libcrypto-lib-params.obj
 0001:00095fc0       _OSSL_PARAM_set_int32      00496fc0 f   libcrypto:libcrypto-lib-params.obj
 0001:000962a0       _OSSL_PARAM_get_uint32     004972a0 f   libcrypto:libcrypto-lib-params.obj
 0001:00096650       _OSSL_PARAM_set_uint32     00497650 f   libcrypto:libcrypto-lib-params.obj
 0001:00096920       _OSSL_PARAM_construct_uint32 00497920 f   libcrypto:libcrypto-lib-params.obj
 0001:00096960       _OSSL_PARAM_get_uint64     00497960 f   libcrypto:libcrypto-lib-params.obj
 0001:00096bc0       _OSSL_PARAM_construct_uint64 00497bc0 f   libcrypto:libcrypto-lib-params.obj
 0001:00096c00       _OSSL_PARAM_get_size_t     00497c00 f   libcrypto:libcrypto-lib-params.obj
 0001:00096c00       _OSSL_PARAM_get_uint       00497c00 f   libcrypto:libcrypto-lib-params.obj
 0001:00096c20       _OSSL_PARAM_set_size_t     00497c20 f   libcrypto:libcrypto-lib-params.obj
 0001:00096c20       _OSSL_PARAM_set_uint       00497c20 f   libcrypto:libcrypto-lib-params.obj
 0001:00096c40       _OSSL_PARAM_construct_size_t 00497c40 f   libcrypto:libcrypto-lib-params.obj
 0001:00096c80       _OSSL_PARAM_get_int        00497c80 f   libcrypto:libcrypto-lib-params.obj
 0001:00096c80       _OSSL_PARAM_get_long       00497c80 f   libcrypto:libcrypto-lib-params.obj
 0001:00096c80       _OSSL_PARAM_get_time_t     00497c80 f   libcrypto:libcrypto-lib-params.obj
 0001:00096ca0       _OSSL_PARAM_set_long       00497ca0 f   libcrypto:libcrypto-lib-params.obj
 0001:00096ca0       _OSSL_PARAM_set_int        00497ca0 f   libcrypto:libcrypto-lib-params.obj
 0001:00096ca0       _OSSL_PARAM_set_time_t     00497ca0 f   libcrypto:libcrypto-lib-params.obj
 0001:00096cc0       _OSSL_PARAM_construct_time_t 00497cc0 f   libcrypto:libcrypto-lib-params.obj
 0001:00096d00       _OSSL_PARAM_get_BN         00497d00 f   libcrypto:libcrypto-lib-params.obj
 0001:00096df0       _OSSL_PARAM_set_BN         00497df0 f   libcrypto:libcrypto-lib-params.obj
 0001:00096fb0       _OSSL_PARAM_construct_BN   00497fb0 f   libcrypto:libcrypto-lib-params.obj
 0001:00096ff0       _OSSL_PARAM_get_utf8_string 00497ff0 f   libcrypto:libcrypto-lib-params.obj
 0001:000971d0       _OSSL_PARAM_get_octet_string 004981d0 f   libcrypto:libcrypto-lib-params.obj
 0001:000971f0       _OSSL_PARAM_set_utf8_string 004981f0 f   libcrypto:libcrypto-lib-params.obj
 0001:00097320       _OSSL_PARAM_set_octet_string 00498320 f   libcrypto:libcrypto-lib-params.obj
 0001:00097380       _OSSL_PARAM_construct_utf8_string 00498380 f   libcrypto:libcrypto-lib-params.obj
 0001:000973e0       _OSSL_PARAM_construct_octet_string 004983e0 f   libcrypto:libcrypto-lib-params.obj
 0001:00097420       _OSSL_PARAM_get_utf8_ptr   00498420 f   libcrypto:libcrypto-lib-params.obj
 0001:00097500       _OSSL_PARAM_get_octet_ptr  00498500 f   libcrypto:libcrypto-lib-params.obj
 0001:00097520       _OSSL_PARAM_set_utf8_ptr   00498520 f   libcrypto:libcrypto-lib-params.obj
 0001:00097600       _OSSL_PARAM_set_octet_ptr  00498600 f   libcrypto:libcrypto-lib-params.obj
 0001:00097660       _OSSL_PARAM_construct_utf8_ptr 00498660 f   libcrypto:libcrypto-lib-params.obj
 0001:000976a0       _OSSL_PARAM_construct_octet_ptr 004986a0 f   libcrypto:libcrypto-lib-params.obj
 0001:000976e0       _ossl_param_get1_octet_string_from_param 004986e0 f   libcrypto:libcrypto-lib-params.obj
 0001:00097760       _ossl_param_get1_concat_octet_string 00498760 f   libcrypto:libcrypto-lib-params.obj
 0001:00097920       _OSSL_PARAM_construct_end  00498920 f   libcrypto:libcrypto-lib-params.obj
 0001:00097960       _OSSL_PARAM_get_utf8_string_ptr 00498960 f   libcrypto:libcrypto-lib-params.obj
 0001:00097a30       _OSSL_PARAM_get_octet_string_ptr 00498a30 f   libcrypto:libcrypto-lib-params.obj
 0001:00097a50       _OSSL_PARAM_set_octet_string_or_ptr 00498a50 f   libcrypto:libcrypto-lib-params.obj
 0001:00097af0       _EVP_MAC_fetch             00498af0 f   libcrypto:libcrypto-lib-mac_meth.obj
 0001:00097e00       _EVP_MAC_up_ref            00498e00 f   libcrypto:libcrypto-lib-mac_meth.obj
 0001:00097e20       _EVP_MAC_free              00498e20 f   libcrypto:libcrypto-lib-mac_meth.obj
 0001:00097e40       _EVP_MAC_settable_ctx_params 00498e40 f   libcrypto:libcrypto-lib-mac_meth.obj
 0001:00097e70       _ossl_pkcs5_pbkdf2_hmac_ex 00498e70 f   libcrypto:libcrypto-lib-p5_crpt2.obj
 0001:00097ff0       _PKCS5_PBKDF2_HMAC         00498ff0 f   libcrypto:libcrypto-lib-p5_crpt2.obj
 0001:00098030       _PKCS5_PBKDF2_HMAC_SHA1    00499030 f   libcrypto:libcrypto-lib-p5_crpt2.obj
 0001:00098090       _PKCS5_v2_PBE_keyivgen_ex  00499090 f   libcrypto:libcrypto-lib-p5_crpt2.obj
 0001:00098270       _PKCS5_v2_PBE_keyivgen     00499270 f   libcrypto:libcrypto-lib-p5_crpt2.obj
 0001:000982a0       _PKCS5_v2_PBKDF2_keyivgen_ex 004992a0 f   libcrypto:libcrypto-lib-p5_crpt2.obj
 0001:00098550       _PKCS5_v2_PBKDF2_keyivgen  00499550 f   libcrypto:libcrypto-lib-p5_crpt2.obj
 0001:00098580       _EVP_aes_128_cbc           00499580 f   libcrypto:libcrypto-lib-e_aes.obj
 0001:00098590       _EVP_aes_128_ecb           00499590 f   libcrypto:libcrypto-lib-e_aes.obj
 0001:000985a0       _EVP_aes_128_ofb           004995a0 f   libcrypto:libcrypto-lib-e_aes.obj
 0001:000985b0       _EVP_aes_128_cfb128        004995b0 f   libcrypto:libcrypto-lib-e_aes.obj
 0001:000985c0       _EVP_aes_128_cfb1          004995c0 f   libcrypto:libcrypto-lib-e_aes.obj
 0001:000985d0       _EVP_aes_128_cfb8          004995d0 f   libcrypto:libcrypto-lib-e_aes.obj
 0001:000985e0       _EVP_aes_128_ctr           004995e0 f   libcrypto:libcrypto-lib-e_aes.obj
 0001:000985f0       _EVP_aes_192_cbc           004995f0 f   libcrypto:libcrypto-lib-e_aes.obj
 0001:00098600       _EVP_aes_192_ecb           00499600 f   libcrypto:libcrypto-lib-e_aes.obj
 0001:00098610       _EVP_aes_192_ofb           00499610 f   libcrypto:libcrypto-lib-e_aes.obj
 0001:00098620       _EVP_aes_192_cfb128        00499620 f   libcrypto:libcrypto-lib-e_aes.obj
 0001:00098630       _EVP_aes_192_cfb1          00499630 f   libcrypto:libcrypto-lib-e_aes.obj
 0001:00098640       _EVP_aes_192_cfb8          00499640 f   libcrypto:libcrypto-lib-e_aes.obj
 0001:00098650       _EVP_aes_192_ctr           00499650 f   libcrypto:libcrypto-lib-e_aes.obj
 0001:00098660       _EVP_aes_256_cbc           00499660 f   libcrypto:libcrypto-lib-e_aes.obj
 0001:00098670       _EVP_aes_256_ecb           00499670 f   libcrypto:libcrypto-lib-e_aes.obj
 0001:00098680       _EVP_aes_256_ofb           00499680 f   libcrypto:libcrypto-lib-e_aes.obj
 0001:00098690       _EVP_aes_256_cfb128        00499690 f   libcrypto:libcrypto-lib-e_aes.obj
 0001:000986a0       _EVP_aes_256_cfb1          004996a0 f   libcrypto:libcrypto-lib-e_aes.obj
 0001:000986b0       _EVP_aes_256_cfb8          004996b0 f   libcrypto:libcrypto-lib-e_aes.obj
 0001:000986c0       _EVP_aes_256_ctr           004996c0 f   libcrypto:libcrypto-lib-e_aes.obj
 0001:000986d0       _EVP_aes_128_gcm           004996d0 f   libcrypto:libcrypto-lib-e_aes.obj
 0001:000986e0       _EVP_aes_192_gcm           004996e0 f   libcrypto:libcrypto-lib-e_aes.obj
 0001:000986f0       _EVP_aes_256_gcm           004996f0 f   libcrypto:libcrypto-lib-e_aes.obj
 0001:00098700       _EVP_aes_128_xts           00499700 f   libcrypto:libcrypto-lib-e_aes.obj
 0001:00098710       _EVP_aes_256_xts           00499710 f   libcrypto:libcrypto-lib-e_aes.obj
 0001:00098720       _EVP_aes_128_ccm           00499720 f   libcrypto:libcrypto-lib-e_aes.obj
 0001:00098730       _EVP_aes_192_ccm           00499730 f   libcrypto:libcrypto-lib-e_aes.obj
 0001:00098740       _EVP_aes_256_ccm           00499740 f   libcrypto:libcrypto-lib-e_aes.obj
 0001:00098750       _EVP_aes_128_wrap          00499750 f   libcrypto:libcrypto-lib-e_aes.obj
 0001:00098760       _EVP_aes_192_wrap          00499760 f   libcrypto:libcrypto-lib-e_aes.obj
 0001:00098770       _EVP_aes_256_wrap          00499770 f   libcrypto:libcrypto-lib-e_aes.obj
 0001:00098780       _EVP_aes_128_wrap_pad      00499780 f   libcrypto:libcrypto-lib-e_aes.obj
 0001:00098790       _EVP_aes_192_wrap_pad      00499790 f   libcrypto:libcrypto-lib-e_aes.obj
 0001:000987a0       _EVP_aes_256_wrap_pad      004997a0 f   libcrypto:libcrypto-lib-e_aes.obj
 0001:000987b0       _EVP_aes_128_ocb           004997b0 f   libcrypto:libcrypto-lib-e_aes.obj
 0001:000987c0       _EVP_aes_192_ocb           004997c0 f   libcrypto:libcrypto-lib-e_aes.obj
 0001:000987d0       _EVP_aes_256_ocb           004997d0 f   libcrypto:libcrypto-lib-e_aes.obj
 0001:000987e0       _ossl_rand_cleanup_int     004997e0 f   libcrypto:libcrypto-lib-rand_lib.obj
 0001:00098800       _RAND_priv_bytes_ex        00499800 f   libcrypto:libcrypto-lib-rand_lib.obj
 0001:00098890       _RAND_bytes_ex             00499890 f   libcrypto:libcrypto-lib-rand_lib.obj
 0001:00098900       _RAND_bytes                00499900 f   libcrypto:libcrypto-lib-rand_lib.obj
 0001:00098930       _ossl_rand_ctx_new         00499930 f   libcrypto:libcrypto-lib-rand_lib.obj
 0001:000989c0       _ossl_rand_ctx_free        004999c0 f   libcrypto:libcrypto-lib-rand_lib.obj
 0001:00098a90       _ossl_rand_get0_seed_noncreating 00499a90 f   libcrypto:libcrypto-lib-rand_lib.obj
 0001:00099230       _RAND_get0_private         0049a230 f   libcrypto:libcrypto-lib-rand_lib.obj
 0001:00099260       _ossl_random_add_conf_module 0049a260 f   libcrypto:libcrypto-lib-rand_lib.obj
 0001:000995b0       _RAND_set1_random_provider 0049a5b0 f   libcrypto:libcrypto-lib-rand_lib.obj
 0001:00099620       _ossl_rand_check_random_provider_on_load 0049a620 f   libcrypto:libcrypto-lib-rand_lib.obj
 0001:000996a0       _ossl_rand_check_random_provider_on_unload 0049a6a0 f   libcrypto:libcrypto-lib-rand_lib.obj
 0001:000996d0       _ERR_new                   0049a6d0 f   libcrypto:libcrypto-lib-err_blocks.obj
 0001:000997b0       _ERR_set_debug             0049a7b0 f   libcrypto:libcrypto-lib-err_blocks.obj
 0001:000998e0       _ERR_set_error             0049a8e0 f   libcrypto:libcrypto-lib-err_blocks.obj
 0001:00099900       _ERR_vset_error            0049a900 f   libcrypto:libcrypto-lib-err_blocks.obj
 0001:00099ab0       _ossl_malloc_align         0049aab0 f   libcrypto:libcrypto-lib-aligned_alloc.obj
 0001:00099b80       _OPENSSL_ia32_cpuid        0049ab80     libcrypto:libcrypto-lib-x86cpuid.obj
 0001:00099db0       _OPENSSL_rdtsc             0049adb0     libcrypto:libcrypto-lib-x86cpuid.obj
 0001:00099dd0       _OPENSSL_instrument_halt   0049add0     libcrypto:libcrypto-lib-x86cpuid.obj
 0001:00099e10       _OPENSSL_far_spin          0049ae10     libcrypto:libcrypto-lib-x86cpuid.obj
 0001:00099e60       _OPENSSL_atomic_add        0049ae60     libcrypto:libcrypto-lib-x86cpuid.obj
 0001:00099e80       _OPENSSL_cleanse           0049ae80     libcrypto:libcrypto-lib-x86cpuid.obj
 0001:00099ef0       _CRYPTO_memcmp             0049aef0     libcrypto:libcrypto-lib-x86cpuid.obj
 0001:00099f30       _OPENSSL_instrument_bus    0049af30     libcrypto:libcrypto-lib-x86cpuid.obj
 0001:00099fa0       _OPENSSL_instrument_bus2   0049afa0     libcrypto:libcrypto-lib-x86cpuid.obj
 0001:0009a030       _OPENSSL_ia32_rdrand_bytes 0049b030     libcrypto:libcrypto-lib-x86cpuid.obj
 0001:0009a0b0       _OPENSSL_ia32_rdseed_bytes 0049b0b0     libcrypto:libcrypto-lib-x86cpuid.obj
 0001:0009a130       _ASN1_tag2bit              0049b130 f   libcrypto:libcrypto-lib-tasn_dec.obj
 0001:0009a150       _ASN1_item_ex_d2i          0049b150 f   libcrypto:libcrypto-lib-tasn_dec.obj
 0001:0009a220       _ASN1_item_d2i_ex          0049b220 f   libcrypto:libcrypto-lib-tasn_dec.obj
 0001:0009a280       _ASN1_item_d2i             0049b280 f   libcrypto:libcrypto-lib-tasn_dec.obj
 0001:0009a2b0       _asn1_item_embed_d2i       0049b2b0 f   libcrypto:libcrypto-lib-tasn_dec.obj
 0001:0009be60       _ASN1_item_i2d             0049ce60 f   libcrypto:libcrypto-lib-tasn_enc.obj
 0001:0009bf20       _ASN1_item_ex_i2d          0049cf20 f   libcrypto:libcrypto-lib-tasn_enc.obj
 0001:0009caf0       _ASN1_item_new             0049daf0 f   libcrypto:libcrypto-lib-tasn_new.obj
 0001:0009cb30       _ASN1_item_new_ex          0049db30 f   libcrypto:libcrypto-lib-tasn_new.obj
 0001:0009cb70       _ossl_asn1_item_ex_new_intern 0049db70 f   libcrypto:libcrypto-lib-tasn_new.obj
 0001:0009cb90       _ASN1_item_ex_new          0049db90 f   libcrypto:libcrypto-lib-tasn_new.obj
 0001:0009d1e0       _ASN1_item_free            0049e1e0 f   libcrypto:libcrypto-lib-tasn_fre.obj
 0001:0009d200       _ASN1_item_ex_free         0049e200 f   libcrypto:libcrypto-lib-tasn_fre.obj
 0001:0009d220       _ossl_asn1_item_embed_free 0049e220 f   libcrypto:libcrypto-lib-tasn_fre.obj
 0001:0009d460       _ossl_asn1_template_free   0049e460 f   libcrypto:libcrypto-lib-tasn_fre.obj
 0001:0009d500       _ossl_asn1_primitive_free  0049e500 f   libcrypto:libcrypto-lib-tasn_fre.obj
 0001:0009d630       _ASN1_item_dup             0049e630 f   libcrypto:libcrypto-lib-a_dup.obj
 0001:0009d7a0       _OPENSSL_tm_to_posix       0049e7a0 f   libcrypto:libcrypto-lib-a_time_posix.obj
 0001:0009db30       _OPENSSL_posix_to_tm       0049eb30 f   libcrypto:libcrypto-lib-a_time_posix.obj
 0001:0009de70       _ossl_asn1_time_time_t_to_tm 0049ee70 f   libcrypto:libcrypto-lib-a_time_posix.obj
 0001:0009de90       _OPENSSL_gmtime            0049ee90 f   libcrypto:libcrypto-lib-a_time_posix.obj
 0001:0009deb0       _OPENSSL_gmtime_adj        0049eeb0 f   libcrypto:libcrypto-lib-a_time_posix.obj
 0001:0009df80       _OPENSSL_gmtime_diff       0049ef80 f   libcrypto:libcrypto-lib-a_time_posix.obj
 0001:0009e020       _ossl_ctype_check          0049f020 f   libcrypto:libcrypto-lib-ctype.obj
 0001:0009e050       _ossl_isdigit              0049f050 f   libcrypto:libcrypto-lib-ctype.obj
 0001:0009e050       _ossl_ascii_isdigit        0049f050 f   libcrypto:libcrypto-lib-ctype.obj
 0001:0009e070       _ossl_isupper              0049f070 f   libcrypto:libcrypto-lib-ctype.obj
 0001:0009e090       _ossl_tolower              0049f090 f   libcrypto:libcrypto-lib-ctype.obj
 0001:0009e0b0       _BIO_printf                0049f0b0 f   libcrypto:libcrypto-lib-bio_print.obj
 0001:0009e250       _BIO_vprintf               0049f250 f   libcrypto:libcrypto-lib-bio_print.obj
 0001:0009e3b0       _BIO_snprintf              0049f3b0 f   libcrypto:libcrypto-lib-bio_print.obj
 0001:0009e400       _BIO_vsnprintf             0049f400 f   libcrypto:libcrypto-lib-bio_print.obj
 0001:0009e450       _ossl_asn1_utctime_to_tm   0049f450 f   libcrypto:libcrypto-lib-a_utctm.obj
 0001:0009e470       _ASN1_UTCTIME_check        0049f470 f   libcrypto:libcrypto-lib-a_utctm.obj
 0001:0009e490       _ASN1_UTCTIME_set_string   0049f490 f   libcrypto:libcrypto-lib-a_utctm.obj
 0001:0009e510       _ASN1_UTCTIME_adj          0049f510 f   libcrypto:libcrypto-lib-a_utctm.obj
 0001:0009e570       _ASN1_UTCTIME_print        0049f570 f   libcrypto:libcrypto-lib-a_utctm.obj
 0001:0009e590       _ASN1_GENERALIZEDTIME_check 0049f590 f   libcrypto:libcrypto-lib-a_gentm.obj
 0001:0009e5d0       _ASN1_GENERALIZEDTIME_set_string 0049f5d0 f   libcrypto:libcrypto-lib-a_gentm.obj
 0001:0009e650       _ASN1_GENERALIZEDTIME_adj  0049f650 f   libcrypto:libcrypto-lib-a_gentm.obj
 0001:0009e6b0       _ASN1_GENERALIZEDTIME_print 0049f6b0 f   libcrypto:libcrypto-lib-a_gentm.obj
 0001:0009e6d0       _X509_NAME_ENTRY_it        0049f6d0 f   libcrypto:libcrypto-lib-x_name.obj
 0001:0009e6e0       _X509_NAME_ENTRY_new       0049f6e0 f   libcrypto:libcrypto-lib-x_name.obj
 0001:0009e6f0       _X509_NAME_ENTRY_free      0049f6f0 f   libcrypto:libcrypto-lib-x_name.obj
 0001:0009e710       _X509_NAME_ENTRY_dup       0049f710 f   libcrypto:libcrypto-lib-x_name.obj
 0001:0009e740       _X509_NAME_it              0049f740 f   libcrypto:libcrypto-lib-x_name.obj
 0001:0009e750       _d2i_X509_NAME             0049f750 f   libcrypto:libcrypto-lib-x_name.obj
 0001:0009e770       _i2d_X509_NAME             0049f770 f   libcrypto:libcrypto-lib-x_name.obj
 0001:0009e790       _X509_NAME_new             0049f790 f   libcrypto:libcrypto-lib-x_name.obj
 0001:0009e7a0       _X509_NAME_free            0049f7a0 f   libcrypto:libcrypto-lib-x_name.obj
 0001:0009e7c0       _X509_NAME_dup             0049f7c0 f   libcrypto:libcrypto-lib-x_name.obj
 0001:0009f1e0       _X509_NAME_set             004a01e0 f   libcrypto:libcrypto-lib-x_name.obj
 0001:0009f230       _X509_NAME_print           004a0230 f   libcrypto:libcrypto-lib-x_name.obj
 0001:0009f350       _X509_ALGOR_it             004a0350 f   libcrypto:libcrypto-lib-x_algor.obj
 0001:0009f360       _d2i_X509_ALGOR            004a0360 f   libcrypto:libcrypto-lib-x_algor.obj
 0001:0009f380       _X509_ALGOR_new            004a0380 f   libcrypto:libcrypto-lib-x_algor.obj
 0001:0009f390       _X509_ALGOR_free           004a0390 f   libcrypto:libcrypto-lib-x_algor.obj
 0001:0009f3b0       _X509_ALGOR_set0           004a03b0 f   libcrypto:libcrypto-lib-x_algor.obj
 0001:0009f430       _ossl_X509_ALGOR_from_nid  004a0430 f   libcrypto:libcrypto-lib-x_algor.obj
 0001:0009f490       _X509_ALGOR_get0           004a0490 f   libcrypto:libcrypto-lib-x_algor.obj
 0001:0009f4d0       _X509_ALGOR_set_md         004a04d0 f   libcrypto:libcrypto-lib-x_algor.obj
 0001:0009f540       _X509_ALGOR_cmp            004a0540 f   libcrypto:libcrypto-lib-x_algor.obj
 0001:0009f580       _ossl_x509_algor_new_from_md 004a0580 f   libcrypto:libcrypto-lib-x_algor.obj
 0001:0009f5e0       _ossl_x509_algor_get_md    004a05e0 f   libcrypto:libcrypto-lib-x_algor.obj
 0001:0009f640       _ossl_x509_algor_mgf1_decode 004a0640 f   libcrypto:libcrypto-lib-x_algor.obj
 0001:0009f680       _ossl_x509_algor_md_to_mgf1 004a0680 f   libcrypto:libcrypto-lib-x_algor.obj
 0001:0009f740       _X509_EXTENSION_it         004a0740 f   libcrypto:libcrypto-lib-x_exten.obj
 0001:0009f750       _X509_EXTENSIONS_it        004a0750 f   libcrypto:libcrypto-lib-x_exten.obj
 0001:0009f760       _X509_EXTENSION_free       004a0760 f   libcrypto:libcrypto-lib-x_exten.obj
 0001:0009f780       _d2i_X509_EXTENSIONS       004a0780 f   libcrypto:libcrypto-lib-x_exten.obj
 0001:0009f7a0       _i2d_X509_EXTENSIONS       004a07a0 f   libcrypto:libcrypto-lib-x_exten.obj
 0001:0009f7c0       _X509_EXTENSION_dup        004a07c0 f   libcrypto:libcrypto-lib-x_exten.obj
 0001:0009f7e0       _X509v3_get_ext_count      004a07e0 f   libcrypto:libcrypto-lib-x509_v3.obj
 0001:0009f810       _X509v3_get_ext_by_OBJ     004a0810 f   libcrypto:libcrypto-lib-x509_v3.obj
 0001:0009f810       _X509at_get_attr_by_OBJ    004a0810 f   libcrypto:libcrypto-lib-x509_v3.obj
 0001:0009f870       _X509v3_get_ext            004a0870 f   libcrypto:libcrypto-lib-x509_v3.obj
 0001:0009f8b0       _X509v3_delete_ext         004a08b0 f   libcrypto:libcrypto-lib-x509_v3.obj
 0001:0009f8d0       _X509v3_delete_extension   004a08d0 f   libcrypto:libcrypto-lib-x509_v3.obj
 0001:0009f920       _X509v3_add_ext            004a0920 f   libcrypto:libcrypto-lib-x509_v3.obj
 0001:0009fa80       _X509_EXTENSION_set_data   004a0a80 f   libcrypto:libcrypto-lib-x509_v3.obj
 0001:0009fab0       _X509_EXTENSION_get_data   004a0ab0 f   libcrypto:libcrypto-lib-x509_v3.obj
 0001:0009fad0       _X509_EXTENSION_get_critical 004a0ad0 f   libcrypto:libcrypto-lib-x509_v3.obj
 0001:0009faf0       _X509_CRL_get_ext_by_NID   004a0af0 f   libcrypto:libcrypto-lib-x509_ext.obj
 0001:0009fb10       _X509_CRL_get_ext          004a0b10 f   libcrypto:libcrypto-lib-x509_ext.obj
 0001:0009fb30       _X509_CRL_get_ext_d2i      004a0b30 f   libcrypto:libcrypto-lib-x509_ext.obj
 0001:0009fb50       _X509_get_ext_count        004a0b50 f   libcrypto:libcrypto-lib-x509_ext.obj
 0001:0009fb70       _X509_get_ext_by_NID       004a0b70 f   libcrypto:libcrypto-lib-x509_ext.obj
 0001:0009fb90       _X509_get_ext              004a0b90 f   libcrypto:libcrypto-lib-x509_ext.obj
 0001:0009fbb0       _X509_delete_ext           004a0bb0 f   libcrypto:libcrypto-lib-x509_ext.obj
 0001:0009fbe0       _X509_add_ext              004a0be0 f   libcrypto:libcrypto-lib-x509_ext.obj
 0001:0009fc30       _X509_get_ext_d2i          004a0c30 f   libcrypto:libcrypto-lib-x509_ext.obj
 0001:0009fc50       _X509_REVOKED_get_ext_d2i  004a0c50 f   libcrypto:libcrypto-lib-x509_ext.obj
 0001:0009fc70       _OTHERNAME_it              004a0c70 f   libcrypto:libcrypto-lib-v3_genn.obj
 0001:0009fc80       _OTHERNAME_new             004a0c80 f   libcrypto:libcrypto-lib-v3_genn.obj
 0001:0009fc90       _OTHERNAME_free            004a0c90 f   libcrypto:libcrypto-lib-v3_genn.obj
 0001:0009fcb0       _EDIPARTYNAME_it           004a0cb0 f   libcrypto:libcrypto-lib-v3_genn.obj
 0001:0009fcc0       _GENERAL_NAME_it           004a0cc0 f   libcrypto:libcrypto-lib-v3_genn.obj
 0001:0009fcd0       _GENERAL_NAME_new          004a0cd0 f   libcrypto:libcrypto-lib-v3_genn.obj
 0001:0009fce0       _GENERAL_NAME_free         004a0ce0 f   libcrypto:libcrypto-lib-v3_genn.obj
 0001:0009fd00       _GENERAL_NAMES_it          004a0d00 f   libcrypto:libcrypto-lib-v3_genn.obj
 0001:0009fd10       _GENERAL_NAMES_new         004a0d10 f   libcrypto:libcrypto-lib-v3_genn.obj
 0001:0009fd20       _GENERAL_NAMES_free        004a0d20 f   libcrypto:libcrypto-lib-v3_genn.obj
 0001:0009fd40       _GENERAL_NAME_cmp          004a0d40 f   libcrypto:libcrypto-lib-v3_genn.obj
 0001:0009fea0       _OTHERNAME_cmp             004a0ea0 f   libcrypto:libcrypto-lib-v3_genn.obj
 0001:000a0660       _DIST_POINT_NAME_it        004a1660 f   libcrypto:libcrypto-lib-v3_crld.obj
 0001:000a0670       _DIST_POINT_NAME_new       004a1670 f   libcrypto:libcrypto-lib-v3_crld.obj
 0001:000a0680       _DIST_POINT_it             004a1680 f   libcrypto:libcrypto-lib-v3_crld.obj
 0001:000a0690       _DIST_POINT_new            004a1690 f   libcrypto:libcrypto-lib-v3_crld.obj
 0001:000a06a0       _DIST_POINT_free           004a16a0 f   libcrypto:libcrypto-lib-v3_crld.obj
 0001:000a06c0       _CRL_DIST_POINTS_it        004a16c0 f   libcrypto:libcrypto-lib-v3_crld.obj
 0001:000a06d0       _CRL_DIST_POINTS_free      004a16d0 f   libcrypto:libcrypto-lib-v3_crld.obj
 0001:000a06f0       _ISSUING_DIST_POINT_it     004a16f0 f   libcrypto:libcrypto-lib-v3_crld.obj
 0001:000a0700       _ISSUING_DIST_POINT_new    004a1700 f   libcrypto:libcrypto-lib-v3_crld.obj
 0001:000a0710       _ISSUING_DIST_POINT_free   004a1710 f   libcrypto:libcrypto-lib-v3_crld.obj
 0001:000a0d70       _DIST_POINT_set_dpname     004a1d70 f   libcrypto:libcrypto-lib-v3_crld.obj
 0001:000a0e30       _OSSL_AA_DIST_POINT_it     004a1e30 f   libcrypto:libcrypto-lib-v3_crld.obj
 0001:000a0e40       _OSSL_AA_DIST_POINT_new    004a1e40 f   libcrypto:libcrypto-lib-v3_crld.obj
 0001:000a0e50       _OSSL_AA_DIST_POINT_free   004a1e50 f   libcrypto:libcrypto-lib-v3_crld.obj
 0001:000a1410       _AUTHORITY_KEYID_it        004a2410 f   libcrypto:libcrypto-lib-v3_akeya.obj
 0001:000a1420       _AUTHORITY_KEYID_new       004a2420 f   libcrypto:libcrypto-lib-v3_akeya.obj
 0001:000a1430       _AUTHORITY_KEYID_free      004a2430 f   libcrypto:libcrypto-lib-v3_akeya.obj
 0001:000a1450       _ASN1_INTEGER_cmp          004a2450 f   libcrypto:libcrypto-lib-a_int.obj
 0001:000a1490       _ossl_i2c_ASN1_INTEGER     004a2490 f   libcrypto:libcrypto-lib-a_int.obj
 0001:000a1630       _ossl_c2i_ASN1_INTEGER     004a2630 f   libcrypto:libcrypto-lib-a_int.obj
 0001:000a1850       _ASN1_INTEGER_get_int64    004a2850 f   libcrypto:libcrypto-lib-a_int.obj
 0001:000a1ad0       _ASN1_INTEGER_set_int64    004a2ad0 f   libcrypto:libcrypto-lib-a_int.obj
 0001:000a1b90       _ASN1_INTEGER_get_uint64   004a2b90 f   libcrypto:libcrypto-lib-a_int.obj
 0001:000a1c70       _ASN1_INTEGER_set          004a2c70 f   libcrypto:libcrypto-lib-a_int.obj
 0001:000a1c90       _ASN1_INTEGER_get          004a2c90 f   libcrypto:libcrypto-lib-a_int.obj
 0001:000a1cf0       _BN_to_ASN1_INTEGER        004a2cf0 f   libcrypto:libcrypto-lib-a_int.obj
 0001:000a1e30       _ASN1_INTEGER_to_BN        004a2e30 f   libcrypto:libcrypto-lib-a_int.obj
 0001:000a1f00       _ASN1_ENUMERATED_get_int64 004a2f00 f   libcrypto:libcrypto-lib-a_int.obj
 0001:000a1f20       _ASN1_ENUMERATED_get       004a2f20 f   libcrypto:libcrypto-lib-a_int.obj
 0001:000a1f90       _ASN1_ENUMERATED_to_BN     004a2f90 f   libcrypto:libcrypto-lib-a_int.obj
 0001:000a1fb0       _ossl_c2i_uint64_int       004a2fb0 f   libcrypto:libcrypto-lib-a_int.obj
 0001:000a2050       _ossl_i2c_uint64_int       004a3050 f   libcrypto:libcrypto-lib-a_int.obj
 0001:000a2090       _X509V3_EXT_get_nid        004a3090 f   libcrypto:libcrypto-lib-v3_lib.obj
 0001:000a2150       _X509V3_EXT_get            004a3150 f   libcrypto:libcrypto-lib-v3_lib.obj
 0001:000a2180       _ossl_ignored_x509_extension 004a3180 f   libcrypto:libcrypto-lib-v3_lib.obj
 0001:000a2220       _X509V3_EXT_d2i            004a3220 f   libcrypto:libcrypto-lib-v3_lib.obj
 0001:000a2290       _X509V3_get_d2i            004a3290 f   libcrypto:libcrypto-lib-v3_lib.obj
 0001:000a23a0       _X509_CRL_up_ref           004a33a0 f   libcrypto:libcrypto-lib-x509cset.obj
 0001:000a23c0       _ossl_sframe_list_is_head_locked 004a33c0 f   libcrypto:libcrypto-lib-x509cset.obj
 0001:000a23c0       _EC_KEY_get_conv_form      004a33c0 f   libcrypto:libcrypto-lib-x509cset.obj
 0001:000a23c0       _X509_CRL_get_REVOKED      004a33c0 f   libcrypto:libcrypto-lib-x509cset.obj
 0001:000a23c0       _NCONF_get0_libctx         004a33c0 f   libcrypto:libcrypto-lib-x509cset.obj
 0001:000a23c0       _ossl_quic_channel_get0_tls 004a33c0 f   libcrypto:libcrypto-lib-x509cset.obj
 0001:000a23c0       _RSA_get0_d                004a33c0 f   libcrypto:libcrypto-lib-x509cset.obj
 0001:000a23c0       _ossl_quic_port_get_net_rbio 004a33c0 f   libcrypto:libcrypto-lib-x509cset.obj
 0001:000a23d0       _ASN1_item_verify_ex       004a33d0 f   libcrypto:libcrypto-lib-a_verify.obj
 0001:000a2870       _ossl_rcu_lock_new         004a3870 f   libcrypto:libcrypto-lib-threads_win.obj
 0001:000a29c0       _ossl_rcu_lock_free        004a39c0 f   libcrypto:libcrypto-lib-threads_win.obj
 0001:000a2a30       _ossl_rcu_read_lock        004a3a30 f   libcrypto:libcrypto-lib-threads_win.obj
 0001:000a2c30       _ossl_rcu_write_lock       004a3c30 f   libcrypto:libcrypto-lib-threads_win.obj
 0001:000a2c50       _ossl_rcu_write_unlock     004a3c50 f   libcrypto:libcrypto-lib-threads_win.obj
 0001:000a2c70       _ossl_rcu_read_unlock      004a3c70 f   libcrypto:libcrypto-lib-threads_win.obj
 0001:000a2d10       _ossl_synchronize_rcu      004a3d10 f   libcrypto:libcrypto-lib-threads_win.obj
 0001:000a2eb0       _ossl_rcu_call             004a3eb0 f   libcrypto:libcrypto-lib-threads_win.obj
 0001:000a2ef0       _ossl_rcu_assign_uptr      004a3ef0 f   libcrypto:libcrypto-lib-threads_win.obj
 0001:000a2f10       _CRYPTO_THREAD_lock_new    004a3f10 f   libcrypto:libcrypto-lib-threads_win.obj
 0001:000a2f60       _CRYPTO_THREAD_read_lock   004a3f60 f   libcrypto:libcrypto-lib-threads_win.obj
 0001:000a2f60       _CRYPTO_THREAD_write_lock  004a3f60 f   libcrypto:libcrypto-lib-threads_win.obj
 0001:000a2f80       _CRYPTO_THREAD_unlock      004a3f80 f   libcrypto:libcrypto-lib-threads_win.obj
 0001:000a2fa0       _CRYPTO_THREAD_lock_free   004a3fa0 f   libcrypto:libcrypto-lib-threads_win.obj
 0001:000a2fd0       _CRYPTO_THREAD_run_once    004a3fd0 f   libcrypto:libcrypto-lib-threads_win.obj
 0001:000a3030       _CRYPTO_THREAD_init_local  004a4030 f   libcrypto:libcrypto-lib-threads_win.obj
 0001:000a30d0       _CRYPTO_THREAD_get_local   004a40d0 f   libcrypto:libcrypto-lib-threads_win.obj
 0001:000a3100       _CRYPTO_THREAD_set_local   004a4100 f   libcrypto:libcrypto-lib-threads_win.obj
 0001:000a3310       _CRYPTO_THREAD_cleanup_local 004a4310 f   libcrypto:libcrypto-lib-threads_win.obj
 0001:000a33d0       _CRYPTO_THREAD_get_current_id 004a43d0 f   libcrypto:libcrypto-lib-threads_win.obj
 0001:000a33e0       _CRYPTO_atomic_add         004a43e0 f   libcrypto:libcrypto-lib-threads_win.obj
 0001:000a3410       _CRYPTO_atomic_add64       004a4410 f   libcrypto:libcrypto-lib-threads_win.obj
 0001:000a34d0       _CRYPTO_atomic_or          004a44d0 f   libcrypto:libcrypto-lib-threads_win.obj
 0001:000a3550       _CRYPTO_atomic_load        004a4550 f   libcrypto:libcrypto-lib-threads_win.obj
 0001:000a3580       _CRYPTO_atomic_store       004a4580 f   libcrypto:libcrypto-lib-threads_win.obj
 0001:000a35e0       _CRYPTO_atomic_load_int    004a45e0 f   libcrypto:libcrypto-lib-threads_win.obj
 0001:000a3630       _CRYPTO_strdup             004a4630 f   libcrypto:libcrypto-lib-o_str.obj
 0001:000a3680       _CRYPTO_strndup            004a4680 f   libcrypto:libcrypto-lib-o_str.obj
 0001:000a36e0       _CRYPTO_memdup             004a46e0 f   libcrypto:libcrypto-lib-o_str.obj
 0001:000a3730       _OPENSSL_strnlen           004a4730 f   libcrypto:libcrypto-lib-o_str.obj
 0001:000a3760       _OPENSSL_strlcpy           004a4760 f   libcrypto:libcrypto-lib-o_str.obj
 0001:000a37a0       _OPENSSL_strlcat           004a47a0 f   libcrypto:libcrypto-lib-o_str.obj
 0001:000a37d0       _OPENSSL_strtoul           004a47d0 f   libcrypto:libcrypto-lib-o_str.obj
 0001:000a3850       _OPENSSL_hexchar2int       004a4850 f   libcrypto:libcrypto-lib-o_str.obj
 0001:000a3960       _OPENSSL_hexstr2buf_ex     004a4960 f   libcrypto:libcrypto-lib-o_str.obj
 0001:000a3ae0       _ossl_hexstr2buf_sep       004a4ae0 f   libcrypto:libcrypto-lib-o_str.obj
 0001:000a3bb0       _OPENSSL_hexstr2buf        004a4bb0 f   libcrypto:libcrypto-lib-o_str.obj
 0001:000a3ce0       _ossl_buf2hexstr_sep       004a4ce0 f   libcrypto:libcrypto-lib-o_str.obj
 0001:000a3db0       _OPENSSL_buf2hexstr        004a4db0 f   libcrypto:libcrypto-lib-o_str.obj
 0001:000a3dd0       _openssl_strerror_r        004a4dd0 f   libcrypto:libcrypto-lib-o_str.obj
 0001:000a3e10       _OPENSSL_strcasecmp        004a4e10 f   libcrypto:libcrypto-lib-o_str.obj
 0001:000a3e70       _OPENSSL_strncasecmp       004a4e70 f   libcrypto:libcrypto-lib-o_str.obj
 0001:000a3ee0       _ossl_to_hex               004a4ee0 f   libcrypto:libcrypto-lib-o_str.obj
 0001:000a3f10       _ossl_ht_new               004a4f10 f   libcrypto:libcrypto-lib-hashtable.obj
 0001:000a4140       _ossl_ht_write_lock        004a5140 f   libcrypto:libcrypto-lib-hashtable.obj
 0001:000a4170       _ossl_ht_write_unlock      004a5170 f   libcrypto:libcrypto-lib-hashtable.obj
 0001:000a41b0       _ossl_ht_flush             004a51b0 f   libcrypto:libcrypto-lib-hashtable.obj
 0001:000a4350       _ossl_ht_free              004a5350 f   libcrypto:libcrypto-lib-hashtable.obj
 0001:000a43d0       _ossl_ht_count             004a53d0 f   libcrypto:libcrypto-lib-hashtable.obj
 0001:000a43d0       _ossl_ec_key_get_libctx    004a53d0 f   libcrypto:libcrypto-lib-hashtable.obj
 0001:000a43d0       _ossl_siv128_finish        004a53d0 f   libcrypto:libcrypto-lib-hashtable.obj
 0001:000a43d0       _RSA_get0_iqmp             004a53d0 f   libcrypto:libcrypto-lib-hashtable.obj
 0001:000a43d0       _X509_get_X509_PUBKEY      004a53d0 f   libcrypto:libcrypto-lib-hashtable.obj
 0001:000a43d0       _SipHash_hash_size         004a53d0 f   libcrypto:libcrypto-lib-hashtable.obj
 0001:000a43d0       _CTLOG_get0_public_key     004a53d0 f   libcrypto:libcrypto-lib-hashtable.obj
 0001:000a4400       _ossl_ht_insert            004a5400 f   libcrypto:libcrypto-lib-hashtable.obj
 0001:000a4b00       _ossl_ht_get               004a5b00 f   libcrypto:libcrypto-lib-hashtable.obj
 0001:000a4cb0       _ossl_ht_delete            004a5cb0 f   libcrypto:libcrypto-lib-hashtable.obj
 0001:000a4e70       _ossl_ht_deref_value       004a5e70 f   libcrypto:libcrypto-lib-hashtable.obj
 0001:000a4ea0       _ossl_ht_inner_value       004a5ea0 f   libcrypto:libcrypto-lib-hashtable.obj
 0001:000a4ee0       _X509_VERIFY_PARAM_new     004a5ee0 f   libcrypto:libcrypto-lib-x509_vpm.obj
 0001:000a4f10       _X509_VERIFY_PARAM_free    004a5f10 f   libcrypto:libcrypto-lib-x509_vpm.obj
 0001:000a4fe0       _X509_VERIFY_PARAM_inherit 004a5fe0 f   libcrypto:libcrypto-lib-x509_vpm.obj
 0001:000a5330       _X509_VERIFY_PARAM_set1    004a6330 f   libcrypto:libcrypto-lib-x509_vpm.obj
 0001:000a5390       _X509_VERIFY_PARAM_set_flags 004a6390 f   libcrypto:libcrypto-lib-x509_vpm.obj
 0001:000a53c0       _X509_VERIFY_PARAM_clear_flags 004a63c0 f   libcrypto:libcrypto-lib-x509_vpm.obj
 0001:000a53e0       _ossl_ffc_params_set_gindex 004a63e0 f   libcrypto:libcrypto-lib-x509_vpm.obj
 0001:000a53e0       _X509_STORE_CTX_set_verify_cb 004a63e0 f   libcrypto:libcrypto-lib-x509_vpm.obj
 0001:000a53e0       _X509_VERIFY_PARAM_set_depth 004a63e0 f   libcrypto:libcrypto-lib-x509_vpm.obj
 0001:000a53f0       _X509_VERIFY_PARAM_set_auth_level 004a63f0 f   libcrypto:libcrypto-lib-x509_vpm.obj
 0001:000a53f0       _ossl_ffc_params_set_h     004a63f0 f   libcrypto:libcrypto-lib-x509_vpm.obj
 0001:000a53f0       _BIO_set_data              004a63f0 f   libcrypto:libcrypto-lib-x509_vpm.obj
 0001:000a5400       _X509_VERIFY_PARAM_set1_policies 004a6400 f   libcrypto:libcrypto-lib-x509_vpm.obj
 0001:000a54f0       _X509_VERIFY_PARAM_set1_host 004a64f0 f   libcrypto:libcrypto-lib-x509_vpm.obj
 0001:000a5540       _X509_VERIFY_PARAM_add1_host 004a6540 f   libcrypto:libcrypto-lib-x509_vpm.obj
 0001:000a58e0       _X509_VERIFY_PARAM_set1_ip 004a68e0 f   libcrypto:libcrypto-lib-x509_vpm.obj
 0001:000a5920       _X509_VERIFY_PARAM_add1_ip 004a6920 f   libcrypto:libcrypto-lib-x509_vpm.obj
 0001:000a5a40       _X509_VERIFY_PARAM_set_hostflags 004a6a40 f   libcrypto:libcrypto-lib-x509_vpm.obj
 0001:000a5a40       _SSL_CTX_sess_set_remove_cb 004a6a40 f   libcrypto:libcrypto-lib-x509_vpm.obj
 0001:000a5a50       _X509_VERIFY_PARAM_move_peername 004a6a50 f   libcrypto:libcrypto-lib-x509_vpm.obj
 0001:000a5aa0       _X509_VERIFY_PARAM_set1_ip_asc 004a6aa0 f   libcrypto:libcrypto-lib-x509_vpm.obj
 0001:000a5af0       _X509_VERIFY_PARAM_lookup  004a6af0 f   libcrypto:libcrypto-lib-x509_vpm.obj
 0001:000a5ba0       _ossl_do_ex_data_init      004a6ba0 f   libcrypto:libcrypto-lib-ex_data.obj
 0001:000a5bd0       _ossl_crypto_cleanup_all_ex_data_int 004a6bd0 f   libcrypto:libcrypto-lib-ex_data.obj
 0001:000a5cd0       _ossl_crypto_get_ex_new_index_ex 004a6cd0 f   libcrypto:libcrypto-lib-ex_data.obj
 0001:000a5e40       _CRYPTO_get_ex_new_index   004a6e40 f   libcrypto:libcrypto-lib-ex_data.obj
 0001:000a5e70       _ossl_crypto_new_ex_data_ex 004a6e70 f   libcrypto:libcrypto-lib-ex_data.obj
 0001:000a5fc0       _CRYPTO_new_ex_data        004a6fc0 f   libcrypto:libcrypto-lib-ex_data.obj
 0001:000a5fe0       _CRYPTO_dup_ex_data        004a6fe0 f   libcrypto:libcrypto-lib-ex_data.obj
 0001:000a61a0       _CRYPTO_free_ex_data       004a71a0 f   libcrypto:libcrypto-lib-ex_data.obj
 0001:000a6350       _CRYPTO_set_ex_data        004a7350 f   libcrypto:libcrypto-lib-ex_data.obj
 0001:000a6440       _CRYPTO_get_ex_data        004a7440 f   libcrypto:libcrypto-lib-ex_data.obj
 0001:000a6480       _ossl_fnv1a_hash           004a7480 f   libcrypto:libcrypto-lib-hashfunc.obj
 0001:000a64d0       _OSSL_STACK_OF_X509_free   004a74d0 f   libcrypto:libcrypto-lib-t_x509.obj
 0001:000a64f0       _X509_signature_dump       004a74f0 f   libcrypto:libcrypto-lib-t_x509.obj
 0001:000a65b0       _ossl_serial_number_print  004a75b0 f   libcrypto:libcrypto-lib-t_x509.obj
 0001:000a66f0       _ossl_d2i_X509_PUBKEY_INTERNAL 004a76f0 f   libcrypto:libcrypto-lib-x_pubkey.obj
 0001:000a6750       _ossl_X509_PUBKEY_INTERNAL_free 004a7750 f   libcrypto:libcrypto-lib-x_pubkey.obj
 0001:000a6c10       _X509_PUBKEY_it            004a7c10 f   libcrypto:libcrypto-lib-x_pubkey.obj
 0001:000a6c20       _d2i_X509_PUBKEY           004a7c20 f   libcrypto:libcrypto-lib-x_pubkey.obj
 0001:000a6c40       _i2d_X509_PUBKEY           004a7c40 f   libcrypto:libcrypto-lib-x_pubkey.obj
 0001:000a6c60       _X509_PUBKEY_new           004a7c60 f   libcrypto:libcrypto-lib-x_pubkey.obj
 0001:000a6c70       _X509_PUBKEY_free          004a7c70 f   libcrypto:libcrypto-lib-x_pubkey.obj
 0001:000a6c90       _X509_PUBKEY_set           004a7c90 f   libcrypto:libcrypto-lib-x_pubkey.obj
 0001:000a6f90       _X509_PUBKEY_get0          004a7f90 f   libcrypto:libcrypto-lib-x_pubkey.obj
 0001:000a7000       _X509_PUBKEY_get           004a8000 f   libcrypto:libcrypto-lib-x_pubkey.obj
 0001:000a7060       _ossl_d2i_PUBKEY_legacy    004a8060 f   libcrypto:libcrypto-lib-x_pubkey.obj
 0001:000a7180       _d2i_PUBKEY_ex             004a8180 f   libcrypto:libcrypto-lib-x_pubkey.obj
 0001:000a71b0       _d2i_PUBKEY                004a81b0 f   libcrypto:libcrypto-lib-x_pubkey.obj
 0001:000a71d0       _i2d_PUBKEY                004a81d0 f   libcrypto:libcrypto-lib-x_pubkey.obj
 0001:000a7320       _d2i_RSA_PUBKEY            004a8320 f   libcrypto:libcrypto-lib-x_pubkey.obj
 0001:000a7390       _ossl_d2i_DH_PUBKEY        004a8390 f   libcrypto:libcrypto-lib-x_pubkey.obj
 0001:000a7410       _ossl_d2i_DHx_PUBKEY       004a8410 f   libcrypto:libcrypto-lib-x_pubkey.obj
 0001:000a7490       _d2i_DSA_PUBKEY            004a8490 f   libcrypto:libcrypto-lib-x_pubkey.obj
 0001:000a7500       _ossl_d2i_DSA_PUBKEY       004a8500 f   libcrypto:libcrypto-lib-x_pubkey.obj
 0001:000a7590       _d2i_EC_PUBKEY             004a8590 f   libcrypto:libcrypto-lib-x_pubkey.obj
 0001:000a7620       _ossl_d2i_ED25519_PUBKEY   004a8620 f   libcrypto:libcrypto-lib-x_pubkey.obj
 0001:000a7690       _ossl_d2i_ED448_PUBKEY     004a8690 f   libcrypto:libcrypto-lib-x_pubkey.obj
 0001:000a7710       _ossl_d2i_X25519_PUBKEY    004a8710 f   libcrypto:libcrypto-lib-x_pubkey.obj
 0001:000a7790       _ossl_d2i_X448_PUBKEY      004a8790 f   libcrypto:libcrypto-lib-x_pubkey.obj
 0001:000a7810       _X509_PUBKEY_set0_public_key 004a8810 f   libcrypto:libcrypto-lib-x_pubkey.obj
 0001:000a7840       _X509_PUBKEY_set0_param    004a8840 f   libcrypto:libcrypto-lib-x_pubkey.obj
 0001:000a7890       _X509_PUBKEY_get0_param    004a8890 f   libcrypto:libcrypto-lib-x_pubkey.obj
 0001:000a78d0       _X509_get0_pubkey_bitstr   004a88d0 f   libcrypto:libcrypto-lib-x_pubkey.obj
 0001:000a78f0       _ossl_x509_PUBKEY_get0_libctx 004a88f0 f   libcrypto:libcrypto-lib-x_pubkey.obj
 0001:000a7920       _X509_VAL_it               004a8920 f   libcrypto:libcrypto-lib-x_val.obj
 0001:000a7930       _ASRange_it                004a8930 f   libcrypto:libcrypto-lib-v3_asid.obj
 0001:000a7940       _ASIdOrRange_it            004a8940 f   libcrypto:libcrypto-lib-v3_asid.obj
 0001:000a7950       _ASIdentifierChoice_it     004a8950 f   libcrypto:libcrypto-lib-v3_asid.obj
 0001:000a7960       _ASIdentifiers_it          004a8960 f   libcrypto:libcrypto-lib-v3_asid.obj
 0001:000a7970       _ASRange_new               004a8970 f   libcrypto:libcrypto-lib-v3_asid.obj
 0001:000a7980       _ASIdOrRange_new           004a8980 f   libcrypto:libcrypto-lib-v3_asid.obj
 0001:000a7990       _ASIdOrRange_free          004a8990 f   libcrypto:libcrypto-lib-v3_asid.obj
 0001:000a79b0       _ASIdentifierChoice_new    004a89b0 f   libcrypto:libcrypto-lib-v3_asid.obj
 0001:000a79c0       _ASIdentifierChoice_free   004a89c0 f   libcrypto:libcrypto-lib-v3_asid.obj
 0001:000a79e0       _ASIdentifiers_new         004a89e0 f   libcrypto:libcrypto-lib-v3_asid.obj
 0001:000a79f0       _ASIdentifiers_free        004a89f0 f   libcrypto:libcrypto-lib-v3_asid.obj
 0001:000a7be0       _X509v3_asid_add_inherit   004a8be0 f   libcrypto:libcrypto-lib-v3_asid.obj
 0001:000a7c50       _X509v3_asid_add_id_or_range 004a8c50 f   libcrypto:libcrypto-lib-v3_asid.obj
 0001:000a7e20       _X509v3_asid_is_canonical  004a8e20 f   libcrypto:libcrypto-lib-v3_asid.obj
 0001:000a8120       _X509v3_asid_canonize      004a9120 f   libcrypto:libcrypto-lib-v3_asid.obj
 0001:000a8a60       _X509v3_asid_validate_path 004a9a60 f   libcrypto:libcrypto-lib-v3_asid.obj
 0001:000a8e90       _IPAddressRange_it         004a9e90 f   libcrypto:libcrypto-lib-v3_addr.obj
 0001:000a8ea0       _IPAddressOrRange_it       004a9ea0 f   libcrypto:libcrypto-lib-v3_addr.obj
 0001:000a8eb0       _IPAddressChoice_it        004a9eb0 f   libcrypto:libcrypto-lib-v3_addr.obj
 0001:000a8ec0       _IPAddressFamily_it        004a9ec0 f   libcrypto:libcrypto-lib-v3_addr.obj
 0001:000a8ee0       _IPAddressRange_new        004a9ee0 f   libcrypto:libcrypto-lib-v3_addr.obj
 0001:000a8ef0       _IPAddressOrRange_new      004a9ef0 f   libcrypto:libcrypto-lib-v3_addr.obj
 0001:000a8f00       _IPAddressOrRange_free     004a9f00 f   libcrypto:libcrypto-lib-v3_addr.obj
 0001:000a8f20       _IPAddressChoice_new       004a9f20 f   libcrypto:libcrypto-lib-v3_addr.obj
 0001:000a8f30       _IPAddressFamily_new       004a9f30 f   libcrypto:libcrypto-lib-v3_addr.obj
 0001:000a8f40       _IPAddressFamily_free      004a9f40 f   libcrypto:libcrypto-lib-v3_addr.obj
 0001:000a8f60       _X509v3_addr_get_afi       004a9f60 f   libcrypto:libcrypto-lib-v3_addr.obj
 0001:000a9550       _X509v3_addr_add_inherit   004aa550 f   libcrypto:libcrypto-lib-v3_addr.obj
 0001:000a96c0       _X509v3_addr_add_prefix    004aa6c0 f   libcrypto:libcrypto-lib-v3_addr.obj
 0001:000a9a20       _X509v3_addr_add_range     004aaa20 f   libcrypto:libcrypto-lib-v3_addr.obj
 0001:000a9e50       _X509v3_addr_is_canonical  004aae50 f   libcrypto:libcrypto-lib-v3_addr.obj
 0001:000aa180       _X509v3_addr_canonize      004ab180 f   libcrypto:libcrypto-lib-v3_addr.obj
 0001:000aabb0       _X509v3_addr_validate_path 004abbb0 f   libcrypto:libcrypto-lib-v3_addr.obj
 0001:000ab060       _GENERAL_SUBTREE_it        004ac060 f   libcrypto:libcrypto-lib-v3_ncons.obj
 0001:000ab070       _NAME_CONSTRAINTS_it       004ac070 f   libcrypto:libcrypto-lib-v3_ncons.obj
 0001:000ab080       _GENERAL_SUBTREE_new       004ac080 f   libcrypto:libcrypto-lib-v3_ncons.obj
 0001:000ab090       _GENERAL_SUBTREE_free      004ac090 f   libcrypto:libcrypto-lib-v3_ncons.obj
 0001:000ab0b0       _NAME_CONSTRAINTS_new      004ac0b0 f   libcrypto:libcrypto-lib-v3_ncons.obj
 0001:000ab0c0       _NAME_CONSTRAINTS_free     004ac0c0 f   libcrypto:libcrypto-lib-v3_ncons.obj
 0001:000ab4e0       _NAME_CONSTRAINTS_check    004ac4e0 f   libcrypto:libcrypto-lib-v3_ncons.obj
 0001:000ab6f0       _NAME_CONSTRAINTS_check_CN 004ac6f0 f   libcrypto:libcrypto-lib-v3_ncons.obj
 0001:000ac1d0       _ossl_policy_cache_free    004ad1d0 f   libcrypto:libcrypto-lib-pcy_cache.obj
 0001:000ac220       _ossl_policy_cache_set     004ad220 f   libcrypto:libcrypto-lib-pcy_cache.obj
 0001:000ac5f0       _ossl_policy_cache_find_data 004ad5f0 f   libcrypto:libcrypto-lib-pcy_cache.obj
 0001:000ac680       _X509_CERT_AUX_it          004ad680 f   libcrypto:libcrypto-lib-x_x509a.obj
 0001:000ac690       _d2i_X509_CERT_AUX         004ad690 f   libcrypto:libcrypto-lib-x_x509a.obj
 0001:000ac6b0       _X509_CERT_AUX_new         004ad6b0 f   libcrypto:libcrypto-lib-x_x509a.obj
 0001:000ac6c0       _X509_CERT_AUX_free        004ad6c0 f   libcrypto:libcrypto-lib-x_x509a.obj
 0001:000ac6e0       _X509_alias_set1           004ad6e0 f   libcrypto:libcrypto-lib-x_x509a.obj
 0001:000ac7b0       _X509_keyid_set1           004ad7b0 f   libcrypto:libcrypto-lib-x_x509a.obj
 0001:000ac840       _BIO_ADDR_free             004ad840 f   libcrypto:libcrypto-lib-bio_addr.obj
 0001:000ac860       _BIO_ADDR_copy             004ad860 f   libcrypto:libcrypto-lib-bio_addr.obj
 0001:000ac8a0       _BIO_ADDR_clear            004ad8a0 f   libcrypto:libcrypto-lib-bio_addr.obj
 0001:000ac8c0       _BIO_ADDR_make             004ad8c0 f   libcrypto:libcrypto-lib-bio_addr.obj
 0001:000ac920       _BIO_ADDR_family           004ad920 f   libcrypto:libcrypto-lib-bio_addr.obj
 0001:000ac930       _BIO_ADDR_rawaddress       004ad930 f   libcrypto:libcrypto-lib-bio_addr.obj
 0001:000ac990       _BIO_ADDR_rawport          004ad990 f   libcrypto:libcrypto-lib-bio_addr.obj
 0001:000ac9c0       _BIO_ADDR_hostname_string  004ad9c0 f   libcrypto:libcrypto-lib-bio_addr.obj
 0001:000acda0       _BIO_ADDR_service_string   004adda0 f   libcrypto:libcrypto-lib-bio_addr.obj
 0001:000acde0       _ossl_quic_reactor_get_poll_r 004adde0 f   libcrypto:libcrypto-lib-bio_addr.obj
 0001:000acde0       _BIO_ADDR_sockaddr_noconst 004adde0 f   libcrypto:libcrypto-lib-bio_addr.obj
 0001:000acde0       _BIO_ADDR_sockaddr         004adde0 f   libcrypto:libcrypto-lib-bio_addr.obj
 0001:000acdf0       _BIO_ADDR_sockaddr_size    004addf0 f   libcrypto:libcrypto-lib-bio_addr.obj
 0001:000ace10       _BIO_ADDRINFO_next         004ade10 f   libcrypto:libcrypto-lib-bio_addr.obj
 0001:000ace30       _BIO_ADDRINFO_socktype     004ade30 f   libcrypto:libcrypto-lib-bio_addr.obj
 0001:000ace50       _BIO_ADDRINFO_protocol     004ade50 f   libcrypto:libcrypto-lib-bio_addr.obj
 0001:000ace80       _BIO_ADDRINFO_address      004ade80 f   libcrypto:libcrypto-lib-bio_addr.obj
 0001:000acea0       _BIO_ADDRINFO_free         004adea0 f   libcrypto:libcrypto-lib-bio_addr.obj
 0001:000ad0a0       _BIO_parse_hostserv        004ae0a0 f   libcrypto:libcrypto-lib-bio_addr.obj
 0001:000ad2a0       _BIO_lookup                004ae2a0 f   libcrypto:libcrypto-lib-bio_addr.obj
 0001:000ad2d0       _BIO_lookup_ex             004ae2d0 f   libcrypto:libcrypto-lib-bio_addr.obj
 0001:000ad5f0       _BIO_sock_error            004ae5f0 f   libcrypto:libcrypto-lib-bio_sock.obj
 0001:000ad640       _BIO_sock_init             004ae640 f   libcrypto:libcrypto-lib-bio_sock.obj
 0001:000ad6e0       _bio_sock_cleanup_int      004ae6e0 f   libcrypto:libcrypto-lib-bio_sock.obj
 0001:000ad700       _BIO_socket_ioctl          004ae700 f   libcrypto:libcrypto-lib-bio_sock.obj
 0001:000ad760       _BIO_set_tcp_ndelay        004ae760 f   libcrypto:libcrypto-lib-bio_sock.obj
 0001:000ad780       _BIO_socket_nbio           004ae780 f   libcrypto:libcrypto-lib-bio_sock.obj
 0001:000ad7b0       _BIO_socket_wait           004ae7b0 f   libcrypto:libcrypto-lib-bio_sock.obj
 0001:000ad850       _ERR_set_mark              004ae850 f   libcrypto:libcrypto-lib-err_mark.obj
 0001:000ad890       _ERR_pop_to_mark           004ae890 f   libcrypto:libcrypto-lib-err_mark.obj
 0001:000ad9b0       _ERR_count_to_mark         004ae9b0 f   libcrypto:libcrypto-lib-err_mark.obj
 0001:000ada00       _ERR_clear_last_mark       004aea00 f   libcrypto:libcrypto-lib-err_mark.obj
 0001:000ada50       _PEM_ASN1_read_bio         004aea50 f   libcrypto:libcrypto-lib-pem_oth.obj
 0001:000adb00       _PEM_def_callback          004aeb00 f   libcrypto:libcrypto-lib-pem_lib.obj
 0001:000adbc0       _PEM_proc_type             004aebc0 f   libcrypto:libcrypto-lib-pem_lib.obj
 0001:000adc20       _PEM_dek_info              004aec20 f   libcrypto:libcrypto-lib-pem_lib.obj
 0001:000adcb0       _PEM_bytes_read_bio        004aecb0 f   libcrypto:libcrypto-lib-pem_lib.obj
 0001:000ae4d0       _PEM_bytes_read_bio_secmem 004af4d0 f   libcrypto:libcrypto-lib-pem_lib.obj
 0001:000ae500       _PEM_ASN1_write_bio        004af500 f   libcrypto:libcrypto-lib-pem_lib.obj
 0001:000ae8d0       _PEM_ASN1_write_bio_ctx    004af8d0 f   libcrypto:libcrypto-lib-pem_lib.obj
 0001:000ae910       _PEM_do_header             004af910 f   libcrypto:libcrypto-lib-pem_lib.obj
 0001:000aeaa0       _PEM_get_EVP_CIPHER_INFO   004afaa0 f   libcrypto:libcrypto-lib-pem_lib.obj
 0001:000aee70       _PEM_write_bio             004afe70 f   libcrypto:libcrypto-lib-pem_lib.obj
 0001:000af0c0       _PEM_read_bio_ex           004b00c0 f   libcrypto:libcrypto-lib-pem_lib.obj
 0001:000af8d0       _PEM_read_bio              004b08d0 f   libcrypto:libcrypto-lib-pem_lib.obj
 0001:000af900       _ossl_pem_check_suffix     004b0900 f   libcrypto:libcrypto-lib-pem_lib.obj
 0001:000af990       _BIO_meth_new              004b0990 f   libcrypto:libcrypto-lib-bio_meth.obj
 0001:000af9f0       _BIO_meth_free             004b09f0 f   libcrypto:libcrypto-lib-bio_meth.obj
 0001:000afa20       _bwrite_conv               004b0a20 f   libcrypto:libcrypto-lib-bio_meth.obj
 0001:000afa60       _BIO_meth_set_write_ex     004b0a60 f   libcrypto:libcrypto-lib-bio_meth.obj
 0001:000afa80       _bread_conv                004b0a80 f   libcrypto:libcrypto-lib-bio_meth.obj
 0001:000afb10       _BIO_meth_set_read_ex      004b0b10 f   libcrypto:libcrypto-lib-bio_meth.obj
 0001:000afb30       _BIO_meth_set_puts         004b0b30 f   libcrypto:libcrypto-lib-bio_meth.obj
 0001:000afb50       _BIO_meth_set_gets         004b0b50 f   libcrypto:libcrypto-lib-bio_meth.obj
 0001:000afb70       _BIO_meth_set_ctrl         004b0b70 f   libcrypto:libcrypto-lib-bio_meth.obj
 0001:000afb90       _BIO_meth_set_create       004b0b90 f   libcrypto:libcrypto-lib-bio_meth.obj
 0001:000afbb0       _BIO_meth_set_destroy      004b0bb0 f   libcrypto:libcrypto-lib-bio_meth.obj
 0001:000afbd0       _BUF_MEM_new_ex            004b0bd0 f   libcrypto:libcrypto-lib-buffer.obj
 0001:000afbf0       _BUF_MEM_new               004b0bf0 f   libcrypto:libcrypto-lib-buffer.obj
 0001:000afc10       _BUF_MEM_free              004b0c10 f   libcrypto:libcrypto-lib-buffer.obj
 0001:000afc70       _BUF_MEM_grow              004b0c70 f   libcrypto:libcrypto-lib-buffer.obj
 0001:000afdc0       _BUF_MEM_grow_clean        004b0dc0 f   libcrypto:libcrypto-lib-buffer.obj
 0001:000afeb0       _BUF_reverse               004b0eb0 f   libcrypto:libcrypto-lib-buffer.obj
 0001:000aff00       _OPENSSL_LH_set_thunks     004b0f00 f   libcrypto:libcrypto-lib-lhash.obj
 0001:000aff30       _OPENSSL_LH_new            004b0f30 f   libcrypto:libcrypto-lib-lhash.obj
 0001:000affd0       _OPENSSL_LH_free           004b0fd0 f   libcrypto:libcrypto-lib-lhash.obj
 0001:000b0010       _OPENSSL_LH_flush          004b1010 f   libcrypto:libcrypto-lib-lhash.obj
 0001:000b0070       _OPENSSL_LH_insert         004b1070 f   libcrypto:libcrypto-lib-lhash.obj
 0001:000b0110       _OPENSSL_LH_delete         004b1110 f   libcrypto:libcrypto-lib-lhash.obj
 0001:000b0180       _OPENSSL_LH_retrieve       004b1180 f   libcrypto:libcrypto-lib-lhash.obj
 0001:000b01c0       _OPENSSL_LH_doall          004b11c0 f   libcrypto:libcrypto-lib-lhash.obj
 0001:000b0260       _OPENSSL_LH_doall_arg      004b1260 f   libcrypto:libcrypto-lib-lhash.obj
 0001:000b0290       _OPENSSL_LH_doall_arg_thunk 004b1290 f   libcrypto:libcrypto-lib-lhash.obj
 0001:000b0500       _OPENSSL_LH_strhash        004b1500 f   libcrypto:libcrypto-lib-lhash.obj
 0001:000b0570       _ossl_lh_strcasehash       004b1570 f   libcrypto:libcrypto-lib-lhash.obj
 0001:000b05f0       _OPENSSL_LH_num_items      004b15f0 f   libcrypto:libcrypto-lib-lhash.obj
 0001:000b0610       _OPENSSL_LH_get_down_load  004b1610 f   libcrypto:libcrypto-lib-lhash.obj
 0001:000b0610       _ossl_ec_key_get0_propq    004b1610 f   libcrypto:libcrypto-lib-lhash.obj
 0001:000b0620       _OPENSSL_LH_set_down_load  004b1620 f   libcrypto:libcrypto-lib-lhash.obj
 0001:000b0630       _a2d_ASN1_OBJECT           004b1630 f   libcrypto:libcrypto-lib-a_object.obj
 0001:000b0a60       _i2t_ASN1_OBJECT           004b1a60 f   libcrypto:libcrypto-lib-a_object.obj
 0001:000b0a80       _i2a_ASN1_OBJECT           004b1a80 f   libcrypto:libcrypto-lib-a_object.obj
 0001:000b0bc0       _d2i_ASN1_OBJECT           004b1bc0 f   libcrypto:libcrypto-lib-a_object.obj
 0001:000b0c60       _ossl_c2i_ASN1_OBJECT      004b1c60 f   libcrypto:libcrypto-lib-a_object.obj
 0001:000b0eb0       _ossl_asn1_object_new      004b1eb0 f   libcrypto:libcrypto-lib-a_object.obj
 0001:000b0ee0       _ASN1_OBJECT_free          004b1ee0 f   libcrypto:libcrypto-lib-a_object.obj
 0001:000b0f70       _BN_value_one              004b1f70 f   libcrypto:libcrypto-lib-bn_lib.obj
 0001:000b0f80       _BN_num_bits_word          004b1f80 f   libcrypto:libcrypto-lib-bn_lib.obj
 0001:000b1010       _BN_num_bits               004b2010 f   libcrypto:libcrypto-lib-bn_lib.obj
 0001:000b10e0       _BN_clear_free             004b20e0 f   libcrypto:libcrypto-lib-bn_lib.obj
 0001:000b11c0       _BN_free                   004b21c0 f   libcrypto:libcrypto-lib-bn_lib.obj
 0001:000b1200       _bn_init                   004b2200 f   libcrypto:libcrypto-lib-bn_lib.obj
 0001:000b1220       _BN_new                    004b2220 f   libcrypto:libcrypto-lib-bn_lib.obj
 0001:000b1250       _BN_secure_new             004b2250 f   libcrypto:libcrypto-lib-bn_lib.obj
 0001:000b1260       _bn_expand2                004b2260 f   libcrypto:libcrypto-lib-bn_lib.obj
 0001:000b1380       _BN_dup                    004b2380 f   libcrypto:libcrypto-lib-bn_lib.obj
 0001:000b13e0       _BN_copy                   004b23e0 f   libcrypto:libcrypto-lib-bn_lib.obj
 0001:000b1440       _BN_clear                  004b2440 f   libcrypto:libcrypto-lib-bn_lib.obj
 0001:000b1480       _BN_get_word               004b2480 f   libcrypto:libcrypto-lib-bn_lib.obj
 0001:000b14a0       _BN_set_word               004b24a0 f   libcrypto:libcrypto-lib-bn_lib.obj
 0001:000b14f0       _BN_bin2bn                 004b24f0 f   libcrypto:libcrypto-lib-bn_lib.obj
 0001:000b16d0       _BN_bn2binpad              004b26d0 f   libcrypto:libcrypto-lib-bn_lib.obj
 0001:000b1890       _BN_bn2bin                 004b2890 f   libcrypto:libcrypto-lib-bn_lib.obj
 0001:000b18b0       _BN_lebin2bn               004b28b0 f   libcrypto:libcrypto-lib-bn_lib.obj
 0001:000b18d0       _BN_signed_lebin2bn        004b28d0 f   libcrypto:libcrypto-lib-bn_lib.obj
 0001:000b18f0       _BN_bn2lebinpad            004b28f0 f   libcrypto:libcrypto-lib-bn_lib.obj
 0001:000b1920       _BN_signed_bn2lebin        004b2920 f   libcrypto:libcrypto-lib-bn_lib.obj
 0001:000b1950       _BN_native2bn              004b2950 f   libcrypto:libcrypto-lib-bn_lib.obj
 0001:000b1970       _BN_signed_native2bn       004b2970 f   libcrypto:libcrypto-lib-bn_lib.obj
 0001:000b1990       _BN_bn2nativepad           004b2990 f   libcrypto:libcrypto-lib-bn_lib.obj
 0001:000b19b0       _BN_signed_bn2native       004b29b0 f   libcrypto:libcrypto-lib-bn_lib.obj
 0001:000b19d0       _BN_ucmp                   004b29d0 f   libcrypto:libcrypto-lib-bn_lib.obj
 0001:000b1ad0       _BN_cmp                    004b2ad0 f   libcrypto:libcrypto-lib-bn_lib.obj
 0001:000b1b70       _BN_set_bit                004b2b70 f   libcrypto:libcrypto-lib-bn_lib.obj
 0001:000b1c00       _BN_clear_bit              004b2c00 f   libcrypto:libcrypto-lib-bn_lib.obj
 0001:000b1c60       _BN_is_bit_set             004b2c60 f   libcrypto:libcrypto-lib-bn_lib.obj
 0001:000b1cb0       _ossl_bn_mask_bits_fixed_top 004b2cb0 f   libcrypto:libcrypto-lib-bn_lib.obj
 0001:000b1d20       _BN_mask_bits              004b2d20 f   libcrypto:libcrypto-lib-bn_lib.obj
 0001:000b1d50       _BN_set_negative           004b2d50 f   libcrypto:libcrypto-lib-bn_lib.obj
 0001:000b1d80       _bn_cmp_words              004b2d80 f   libcrypto:libcrypto-lib-bn_lib.obj
 0001:000b1dd0       _bn_cmp_part_words         004b2dd0 f   libcrypto:libcrypto-lib-bn_lib.obj
 0001:000b1e50       _BN_consttime_swap         004b2e50 f   libcrypto:libcrypto-lib-bn_lib.obj
 0001:000b1f00       _BN_security_bits          004b2f00 f   libcrypto:libcrypto-lib-bn_lib.obj
 0001:000b1f70       _BN_zero_ex                004b2f70 f   libcrypto:libcrypto-lib-bn_lib.obj
 0001:000b1f80       _BN_abs_is_word            004b2f80 f   libcrypto:libcrypto-lib-bn_lib.obj
 0001:000b1fb0       _BN_is_zero                004b2fb0 f   libcrypto:libcrypto-lib-bn_lib.obj
 0001:000b1fd0       _BN_is_one                 004b2fd0 f   libcrypto:libcrypto-lib-bn_lib.obj
 0001:000b2000       _BN_is_word                004b3000 f   libcrypto:libcrypto-lib-bn_lib.obj
 0001:000b2040       _ossl_bn_is_word_fixed_top 004b3040 f   libcrypto:libcrypto-lib-bn_lib.obj
 0001:000b20c0       _BN_is_odd                 004b30c0 f   libcrypto:libcrypto-lib-bn_lib.obj
 0001:000b20e0       _BN_is_negative            004b30e0 f   libcrypto:libcrypto-lib-bn_lib.obj
 0001:000b2100       _BN_to_montgomery          004b3100 f   libcrypto:libcrypto-lib-bn_lib.obj
 0001:000b2120       _BN_with_flags             004b3120 f   libcrypto:libcrypto-lib-bn_lib.obj
 0001:000b2160       _BN_GENCB_new              004b3160 f   libcrypto:libcrypto-lib-bn_lib.obj
 0001:000b2180       _BN_GENCB_free             004b3180 f   libcrypto:libcrypto-lib-bn_lib.obj
 0001:000b21a0       _BN_set_flags              004b31a0 f   libcrypto:libcrypto-lib-bn_lib.obj
 0001:000b21b0       _BN_get_flags              004b31b0 f   libcrypto:libcrypto-lib-bn_lib.obj
 0001:000b21c0       _BN_GENCB_set              004b31c0 f   libcrypto:libcrypto-lib-bn_lib.obj
 0001:000b21e0       _bn_wexpand                004b31e0 f   libcrypto:libcrypto-lib-bn_lib.obj
 0001:000b2200       _bn_correct_top_consttime  004b3200 f   libcrypto:libcrypto-lib-bn_lib.obj
 0001:000b22a0       _bn_correct_top            004b32a0 f   libcrypto:libcrypto-lib-bn_lib.obj
 0001:000b22e0       _BN_bn2hex                 004b32e0 f   libcrypto:libcrypto-lib-bn_conv.obj
 0001:000b23b0       _BN_bn2dec                 004b33b0 f   libcrypto:libcrypto-lib-bn_conv.obj
 0001:000b2590       _BN_hex2bn                 004b3590 f   libcrypto:libcrypto-lib-bn_conv.obj
 0001:000b2750       _BN_dec2bn                 004b3750 f   libcrypto:libcrypto-lib-bn_conv.obj
 0001:000b28c0       _BN_asc2bn                 004b38c0 f   libcrypto:libcrypto-lib-bn_conv.obj
 0001:000b2930       _BN_mod_word               004b3930 f   libcrypto:libcrypto-lib-bn_word.obj
 0001:000b2990       _BN_div_word               004b3990 f   libcrypto:libcrypto-lib-bn_word.obj
 0001:000b2a60       _BN_add_word               004b3a60 f   libcrypto:libcrypto-lib-bn_word.obj
 0001:000b2b20       _BN_sub_word               004b3b20 f   libcrypto:libcrypto-lib-bn_word.obj
 0001:000b2bf0       _BN_mul_word               004b3bf0 f   libcrypto:libcrypto-lib-bn_word.obj
 0001:000b2c60       _BN_lshift1                004b3c60 f   libcrypto:libcrypto-lib-bn_shift.obj
 0001:000b2d00       _BN_rshift1                004b3d00 f   libcrypto:libcrypto-lib-bn_shift.obj
 0001:000b2dd0       _BN_lshift                 004b3dd0 f   libcrypto:libcrypto-lib-bn_shift.obj
 0001:000b2e30       _bn_lshift_fixed_top       004b3e30 f   libcrypto:libcrypto-lib-bn_shift.obj
 0001:000b2f70       _BN_rshift                 004b3f70 f   libcrypto:libcrypto-lib-bn_shift.obj
 0001:000b2fd0       _bn_rshift_fixed_top       004b3fd0 f   libcrypto:libcrypto-lib-bn_shift.obj
 0001:000b30e0       _ossl_bsearch              004b40e0 f   libcrypto:libcrypto-lib-bsearch.obj
 0001:000b31c0       _OBJ_dup                   004b41c0 f   libcrypto:libcrypto-lib-obj_lib.obj
 0001:000b32a0       _OBJ_cmp                   004b42a0 f   libcrypto:libcrypto-lib-obj_lib.obj
 0001:000b32d0       _ASN1_PRINTABLE_type       004b42d0 f   libcrypto:libcrypto-lib-a_print.obj
 0001:000b3370       _ASN1_STRING_print         004b4370 f   libcrypto:libcrypto-lib-a_print.obj
 0001:000b3410       _ASN1_STRING_set_by_NID    004b4410 f   libcrypto:libcrypto-lib-a_strnid.obj
 0001:000b34b0       _ASN1_STRING_TABLE_get     004b44b0 f   libcrypto:libcrypto-lib-a_strnid.obj
 0001:000b35a0       _ASN1_STRING_TABLE_add     004b45a0 f   libcrypto:libcrypto-lib-a_strnid.obj
 0001:000b3750       _ASN1_STRING_TABLE_cleanup 004b4750 f   libcrypto:libcrypto-lib-a_strnid.obj
 0001:000b37b0       _ASN1_parse_dump           004b47b0 f   libcrypto:libcrypto-lib-asn1_parse.obj
 0001:000b4230       _ASN1_tag2str              004b5230 f   libcrypto:libcrypto-lib-asn1_parse.obj
 0001:000b4260       _UTF8_getc                 004b5260 f   libcrypto:libcrypto-lib-a_utf8.obj
 0001:000b4400       _UTF8_putc                 004b5400 f   libcrypto:libcrypto-lib-a_utf8.obj
 0001:000b4510       _BIO_new_file              004b5510 f   libcrypto:libcrypto-lib-bss_file.obj
 0001:000b4680       _BIO_s_file                004b5680 f   libcrypto:libcrypto-lib-bss_file.obj
 0001:000b4c60       _ASN1_mbstring_copy        004b5c60 f   libcrypto:libcrypto-lib-a_mbstr.obj
 0001:000b4c90       _ASN1_mbstring_ncopy       004b5c90 f   libcrypto:libcrypto-lib-a_mbstr.obj
 0001:000b5470       _X509_NAME_oneline         004b6470 f   libcrypto:libcrypto-lib-x509_obj.obj
 0001:000b5820       _EVP_PKEY_get_bits         004b6820 f   libcrypto:libcrypto-lib-p_lib.obj
 0001:000b5870       _EVP_PKEY_get_security_bits 004b6870 f   libcrypto:libcrypto-lib-p_lib.obj
 0001:000b58c0       _EVP_PKEY_copy_parameters  004b68c0 f   libcrypto:libcrypto-lib-p_lib.obj
 0001:000b5ab0       _EVP_PKEY_missing_parameters 004b6ab0 f   libcrypto:libcrypto-lib-p_lib.obj
 0001:000b5af0       _EVP_PKEY_parameters_eq    004b6af0 f   libcrypto:libcrypto-lib-p_lib.obj
 0001:000b5cb0       _EVP_PKEY_eq               004b6cb0 f   libcrypto:libcrypto-lib-p_lib.obj
 0001:000b5d70       _EVP_PKEY_new_raw_private_key_ex 004b6d70 f   libcrypto:libcrypto-lib-p_lib.obj
 0001:000b5fd0       _EVP_PKEY_new_raw_public_key_ex 004b6fd0 f   libcrypto:libcrypto-lib-p_lib.obj
 0001:000b6000       _EVP_PKEY_set_type         004b7000 f   libcrypto:libcrypto-lib-p_lib.obj
 0001:000b6020       _EVP_PKEY_set_type_str     004b7020 f   libcrypto:libcrypto-lib-p_lib.obj
 0001:000b6040       _EVP_PKEY_assign           004b7040 f   libcrypto:libcrypto-lib-p_lib.obj
 0001:000b6190       _EVP_PKEY_get0_DSA         004b7190 f   libcrypto:libcrypto-lib-p_lib.obj
 0001:000b6200       _EVP_PKEY_set1_DSA         004b7200 f   libcrypto:libcrypto-lib-p_lib.obj
 0001:000b6240       _EVP_PKEY_get1_DSA         004b7240 f   libcrypto:libcrypto-lib-p_lib.obj
 0001:000b6270       _ossl_evp_pkey_get1_X25519 004b7270 f   libcrypto:libcrypto-lib-p_lib.obj
 0001:000b6320       _ossl_evp_pkey_get1_X448   004b7320 f   libcrypto:libcrypto-lib-p_lib.obj
 0001:000b6340       _ossl_evp_pkey_get1_ED25519 004b7340 f   libcrypto:libcrypto-lib-p_lib.obj
 0001:000b6360       _ossl_evp_pkey_get1_ED448  004b7360 f   libcrypto:libcrypto-lib-p_lib.obj
 0001:000b6380       _evp_pkey_get0_DH_int      004b7380 f   libcrypto:libcrypto-lib-p_lib.obj
 0001:000b63d0       _EVP_PKEY_get0_DH          004b73d0 f   libcrypto:libcrypto-lib-p_lib.obj
 0001:000b63f0       _EVP_PKEY_get1_DH          004b73f0 f   libcrypto:libcrypto-lib-p_lib.obj
 0001:000b6420       _EVP_PKEY_get_base_id      004b7420 f   libcrypto:libcrypto-lib-p_lib.obj
 0001:000b6440       _evp_pkey_name2type        004b7440 f   libcrypto:libcrypto-lib-p_lib.obj
 0001:000b64a0       _evp_pkey_type2name        004b74a0 f   libcrypto:libcrypto-lib-p_lib.obj
 0001:000b64d0       _EVP_PKEY_is_a             004b74d0 f   libcrypto:libcrypto-lib-p_lib.obj
 0001:000b6520       _EVP_PKEY_can_sign         004b7520 f   libcrypto:libcrypto-lib-p_lib.obj
 0001:000b65c0       _EVP_PKEY_get_default_digest_nid 004b75c0 f   libcrypto:libcrypto-lib-p_lib.obj
 0001:000b6750       _EVP_PKEY_get_default_digest_name 004b7750 f   libcrypto:libcrypto-lib-p_lib.obj
 0001:000b67c0       _EVP_PKEY_get_group_name   004b77c0 f   libcrypto:libcrypto-lib-p_lib.obj
 0001:000b67f0       _EVP_PKEY_digestsign_supports_digest 004b77f0 f   libcrypto:libcrypto-lib-p_lib.obj
 0001:000b6840       _EVP_PKEY_set1_encoded_public_key 004b7840 f   libcrypto:libcrypto-lib-p_lib.obj
 0001:000b68a0       _EVP_PKEY_get1_encoded_public_key 004b78a0 f   libcrypto:libcrypto-lib-p_lib.obj
 0001:000b6970       _EVP_PKEY_new              004b7970 f   libcrypto:libcrypto-lib-p_lib.obj
 0001:000b6b80       _EVP_PKEY_set_type_by_keymgmt 004b7b80 f   libcrypto:libcrypto-lib-p_lib.obj
 0001:000b6c80       _EVP_PKEY_up_ref           004b7c80 f   libcrypto:libcrypto-lib-p_lib.obj
 0001:000b6ca0       _EVP_PKEY_dup              004b7ca0 f   libcrypto:libcrypto-lib-p_lib.obj
 0001:000b6dc0       _evp_pkey_free_legacy      004b7dc0 f   libcrypto:libcrypto-lib-p_lib.obj
 0001:000b6e60       _EVP_PKEY_free             004b7e60 f   libcrypto:libcrypto-lib-p_lib.obj
 0001:000b6ec0       _EVP_PKEY_get_size         004b7ec0 f   libcrypto:libcrypto-lib-p_lib.obj
 0001:000b6f20       _evp_pkey_export_to_provider 004b7f20 f   libcrypto:libcrypto-lib-p_lib.obj
 0001:000b7250       _evp_pkey_copy_downgraded  004b8250 f   libcrypto:libcrypto-lib-p_lib.obj
 0001:000b74a0       _evp_pkey_get_legacy       004b84a0 f   libcrypto:libcrypto-lib-p_lib.obj
 0001:000b7580       _EVP_PKEY_get_bn_param     004b8580 f   libcrypto:libcrypto-lib-p_lib.obj
 0001:000b7710       _EVP_PKEY_get_octet_string_param 004b8710 f   libcrypto:libcrypto-lib-p_lib.obj
 0001:000b77a0       _EVP_PKEY_get_utf8_string_param 004b87a0 f   libcrypto:libcrypto-lib-p_lib.obj
 0001:000b7850       _EVP_PKEY_get_int_param    004b8850 f   libcrypto:libcrypto-lib-p_lib.obj
 0001:000b78d0       _EVP_PKEY_set_octet_string_param 004b88d0 f   libcrypto:libcrypto-lib-p_lib.obj
 0001:000b7940       _EVP_PKEY_set_params       004b8940 f   libcrypto:libcrypto-lib-p_lib.obj
 0001:000b79a0       _EVP_PKEY_get_params       004b89a0 f   libcrypto:libcrypto-lib-p_lib.obj
 0001:000b7a20       _EVP_PKEY_get_ec_point_conv_form 004b8a20 f   libcrypto:libcrypto-lib-p_lib.obj
 0001:000b7b70       _EVP_PKEY_get_field_type   004b8b70 f   libcrypto:libcrypto-lib-p_lib.obj
 0001:000b7c90       _ACCESS_DESCRIPTION_it     004b8c90 f   libcrypto:libcrypto-lib-v3_info.obj
 0001:000b7ca0       _ACCESS_DESCRIPTION_new    004b8ca0 f   libcrypto:libcrypto-lib-v3_info.obj
 0001:000b7cb0       _ACCESS_DESCRIPTION_free   004b8cb0 f   libcrypto:libcrypto-lib-v3_info.obj
 0001:000b7cd0       _AUTHORITY_INFO_ACCESS_it  004b8cd0 f   libcrypto:libcrypto-lib-v3_info.obj
 0001:000b8050       _ASN1_item_pack            004b9050 f   libcrypto:libcrypto-lib-asn_pack.obj
 0001:000b8140       _ASN1_item_unpack          004b9140 f   libcrypto:libcrypto-lib-asn_pack.obj
 0001:000b8190       _ASN1_item_unpack_ex       004b9190 f   libcrypto:libcrypto-lib-asn_pack.obj
 0001:000b81f0       _ASN1_INTEGER_dup          004b91f0 f   libcrypto:libcrypto-lib-a_octet.obj
 0001:000b81f0       _ASN1_OCTET_STRING_dup     004b91f0 f   libcrypto:libcrypto-lib-a_octet.obj
 0001:000b8210       _ASN1_OCTET_STRING_cmp     004b9210 f   libcrypto:libcrypto-lib-a_octet.obj
 0001:000b8230       _ASN1_OCTET_STRING_set     004b9230 f   libcrypto:libcrypto-lib-a_octet.obj
 0001:000b8250       _OCSP_cert_to_id           004b9250 f   libcrypto:libcrypto-lib-ocsp_lib.obj
 0001:000b82b0       _OCSP_cert_id_new          004b92b0 f   libcrypto:libcrypto-lib-ocsp_lib.obj
 0001:000b8420       _OCSP_id_issuer_cmp        004b9420 f   libcrypto:libcrypto-lib-ocsp_lib.obj
 0001:000b8470       _OCSP_id_cmp               004b9470 f   libcrypto:libcrypto-lib-ocsp_lib.obj
 0001:000b84a0       _OSSL_ERR_STATE_new        004b94a0 f   libcrypto:libcrypto-lib-err_save.obj
 0001:000b84c0       _OSSL_ERR_STATE_save       004b94c0 f   libcrypto:libcrypto-lib-err_save.obj
 0001:000b8590       _OSSL_ERR_STATE_save_to_mark 004b9590 f   libcrypto:libcrypto-lib-err_save.obj
 0001:000b88c0       _OSSL_ERR_STATE_restore    004b98c0 f   libcrypto:libcrypto-lib-err_save.obj
 0001:000b8c50       _X509_check_trust          004b9c50 f   libcrypto:libcrypto-lib-x509_trust.obj
 0001:000b8cb0       _X509_TRUST_get0           004b9cb0 f   libcrypto:libcrypto-lib-x509_trust.obj
 0001:000b8cf0       _X509_TRUST_get_by_id      004b9cf0 f   libcrypto:libcrypto-lib-x509_trust.obj
 0001:000b8ec0       _X509_verify_cert_error_string 004b9ec0 f   libcrypto:libcrypto-lib-x509_txt.obj
 0001:000b9360       _evp_pkey_ctx_state        004ba360 f   libcrypto:libcrypto-lib-pmeth_lib.obj
 0001:000b93c0       _EVP_PKEY_CTX_new_from_name 004ba3c0 f   libcrypto:libcrypto-lib-pmeth_lib.obj
 0001:000b9600       _EVP_PKEY_CTX_new_from_pkey 004ba600 f   libcrypto:libcrypto-lib-pmeth_lib.obj
 0001:000b9620       _evp_pkey_ctx_free_old_ops 004ba620 f   libcrypto:libcrypto-lib-pmeth_lib.obj
 0001:000b9720       _EVP_PKEY_CTX_free         004ba720 f   libcrypto:libcrypto-lib-pmeth_lib.obj
 0001:000b9790       _EVP_PKEY_CTX_new_id       004ba790 f   libcrypto:libcrypto-lib-pmeth_lib.obj
 0001:000b97c0       _EVP_PKEY_CTX_dup          004ba7c0 f   libcrypto:libcrypto-lib-pmeth_lib.obj
 0001:000b9a60       _EVP_PKEY_CTX_is_a         004baa60 f   libcrypto:libcrypto-lib-pmeth_lib.obj
 0001:000b9aa0       _EVP_PKEY_CTX_set_params   004baaa0 f   libcrypto:libcrypto-lib-pmeth_lib.obj
 0001:000b9b90       _EVP_PKEY_CTX_get_params   004bab90 f   libcrypto:libcrypto-lib-pmeth_lib.obj
 0001:000b9cb0       _EVP_PKEY_CTX_gettable_params 004bacb0 f   libcrypto:libcrypto-lib-pmeth_lib.obj
 0001:000b9dc0       _EVP_PKEY_CTX_settable_params 004badc0 f   libcrypto:libcrypto-lib-pmeth_lib.obj
 0001:000b9ed0       _evp_pkey_ctx_set_params_strict 004baed0 f   libcrypto:libcrypto-lib-pmeth_lib.obj
 0001:000b9f40       _evp_pkey_ctx_get_params_strict 004baf40 f   libcrypto:libcrypto-lib-pmeth_lib.obj
 0001:000b9fb0       _EVP_PKEY_CTX_get_signature_md 004bafb0 f   libcrypto:libcrypto-lib-pmeth_lib.obj
 0001:000ba0d0       _EVP_PKEY_CTX_set_signature_md 004bb0d0 f   libcrypto:libcrypto-lib-pmeth_lib.obj
 0001:000ba2e0       _EVP_PKEY_CTX_set_hkdf_md  004bb2e0 f   libcrypto:libcrypto-lib-pmeth_lib.obj
 0001:000ba310       _EVP_PKEY_CTX_set1_hkdf_salt 004bb310 f   libcrypto:libcrypto-lib-pmeth_lib.obj
 0001:000ba350       _EVP_PKEY_CTX_set1_hkdf_key 004bb350 f   libcrypto:libcrypto-lib-pmeth_lib.obj
 0001:000ba390       _EVP_PKEY_CTX_set_hkdf_mode 004bb390 f   libcrypto:libcrypto-lib-pmeth_lib.obj
 0001:000ba490       _EVP_PKEY_CTX_set_mac_key  004bb490 f   libcrypto:libcrypto-lib-pmeth_lib.obj
 0001:000ba4c0       _EVP_PKEY_CTX_set1_id      004bb4c0 f   libcrypto:libcrypto-lib-pmeth_lib.obj
 0001:000ba4e0       _EVP_PKEY_CTX_ctrl         004bb4e0 f   libcrypto:libcrypto-lib-pmeth_lib.obj
 0001:000ba980       _evp_pkey_ctx_use_cached_data 004bb980 f   libcrypto:libcrypto-lib-pmeth_lib.obj
 0001:000ba9c0       _EVP_DigestSignInit_ex     004bb9c0 f   libcrypto:libcrypto-lib-m_sigver.obj
 0001:000bb010       _EVP_DigestSignInit        004bc010 f   libcrypto:libcrypto-lib-m_sigver.obj
 0001:000bb050       _EVP_DigestVerifyInit_ex   004bc050 f   libcrypto:libcrypto-lib-m_sigver.obj
 0001:000bb080       _EVP_DigestVerifyInit      004bc080 f   libcrypto:libcrypto-lib-m_sigver.obj
 0001:000bb0c0       _EVP_DigestSignUpdate      004bc0c0 f   libcrypto:libcrypto-lib-m_sigver.obj
 0001:000bb230       _EVP_DigestVerifyUpdate    004bc230 f   libcrypto:libcrypto-lib-m_sigver.obj
 0001:000bb370       _EVP_DigestSignFinal       004bc370 f   libcrypto:libcrypto-lib-m_sigver.obj
 0001:000bb530       _EVP_DigestSign            004bc530 f   libcrypto:libcrypto-lib-m_sigver.obj
 0001:000bb6c0       _EVP_DigestVerifyFinal     004bc6c0 f   libcrypto:libcrypto-lib-m_sigver.obj
 0001:000bb870       _EVP_DigestVerify          004bc870 f   libcrypto:libcrypto-lib-m_sigver.obj
 0001:000bb9d0       _CRYPTO_malloc_array       004bc9d0 f   libcrypto:libcrypto-lib-array_alloc.obj
 0001:000bba40       _CRYPTO_calloc             004bca40 f   libcrypto:libcrypto-lib-array_alloc.obj
 0001:000bbab0       _CRYPTO_aligned_alloc_array 004bcab0 f   libcrypto:libcrypto-lib-array_alloc.obj
 0001:000bbb30       _CRYPTO_realloc_array      004bcb30 f   libcrypto:libcrypto-lib-array_alloc.obj
 0001:000bbbb0       _CRYPTO_secure_malloc_array 004bcbb0 f   libcrypto:libcrypto-lib-array_alloc.obj
 0001:000bbc20       _CRYPTO_secure_calloc      004bcc20 f   libcrypto:libcrypto-lib-array_alloc.obj
 0001:000bbc90       _X509V3_add_value          004bcc90 f   libcrypto:libcrypto-lib-v3_utl.obj
 0001:000bbe50       _x509v3_add_len_value_uchar 004bce50 f   libcrypto:libcrypto-lib-v3_utl.obj
 0001:000bbe70       _X509V3_conf_free          004bce70 f   libcrypto:libcrypto-lib-v3_utl.obj
 0001:000bbec0       _X509V3_add_value_bool     004bcec0 f   libcrypto:libcrypto-lib-v3_utl.obj
 0001:000bbf00       _i2s_ASN1_ENUMERATED       004bcf00 f   libcrypto:libcrypto-lib-v3_utl.obj
 0001:000bc060       _i2s_ASN1_INTEGER          004bd060 f   libcrypto:libcrypto-lib-v3_utl.obj
 0001:000bc0f0       _s2i_ASN1_INTEGER          004bd0f0 f   libcrypto:libcrypto-lib-v3_utl.obj
 0001:000bc270       _X509V3_add_value_int      004bd270 f   libcrypto:libcrypto-lib-v3_utl.obj
 0001:000bc2d0       _X509V3_get_value_bool     004bd2d0 f   libcrypto:libcrypto-lib-v3_utl.obj
 0001:000bc5f0       _X509V3_get_value_int      004bd5f0 f   libcrypto:libcrypto-lib-v3_utl.obj
 0001:000bc640       _X509V3_parse_list         004bd640 f   libcrypto:libcrypto-lib-v3_utl.obj
 0001:000bc8f0       _ossl_v3_name_cmp          004bd8f0 f   libcrypto:libcrypto-lib-v3_utl.obj
 0001:000bc940       _X509_check_host           004bd940 f   libcrypto:libcrypto-lib-v3_utl.obj
 0001:000bd1d0       _ossl_x509_check_rfc822    004be1d0 f   libcrypto:libcrypto-lib-v3_utl.obj
 0001:000bd200       _ossl_x509_check_smtputf8  004be200 f   libcrypto:libcrypto-lib-v3_utl.obj
 0001:000bd230       _X509_check_ip             004be230 f   libcrypto:libcrypto-lib-v3_utl.obj
 0001:000bd260       _ossl_ipaddr_to_asc        004be260 f   libcrypto:libcrypto-lib-v3_utl.obj
 0001:000bd330       _a2i_IPADDRESS             004be330 f   libcrypto:libcrypto-lib-v3_utl.obj
 0001:000bd3a0       _a2i_IPADDRESS_NC          004be3a0 f   libcrypto:libcrypto-lib-v3_utl.obj
 0001:000bd490       _ossl_a2i_ipadd            004be490 f   libcrypto:libcrypto-lib-v3_utl.obj
 0001:000bd850       _X509V3_NAME_from_section  004be850 f   libcrypto:libcrypto-lib-v3_utl.obj
 0001:000bd900       _OSSL_GENERAL_NAMES_print  004be900 f   libcrypto:libcrypto-lib-v3_utl.obj
 0001:000bd980       _ossl_bio_print_hex        004be980 f   libcrypto:libcrypto-lib-v3_utl.obj
 0001:000bd9e0       _X509_policy_tree_free     004be9e0 f   libcrypto:libcrypto-lib-pcy_tree.obj
 0001:000bdac0       _X509_policy_check         004beac0 f   libcrypto:libcrypto-lib-pcy_tree.obj
 0001:000be650       _PROXY_POLICY_it           004bf650 f   libcrypto:libcrypto-lib-v3_pcia.obj
 0001:000be660       _PROXY_CERT_INFO_EXTENSION_it 004bf660 f   libcrypto:libcrypto-lib-v3_pcia.obj
 0001:000be670       _PROXY_CERT_INFO_EXTENSION_new 004bf670 f   libcrypto:libcrypto-lib-v3_pcia.obj
 0001:000be680       _PROXY_CERT_INFO_EXTENSION_free 004bf680 f   libcrypto:libcrypto-lib-v3_pcia.obj
 0001:000be6a0       _BASIC_CONSTRAINTS_it      004bf6a0 f   libcrypto:libcrypto-lib-v3_bcons.obj
 0001:000be6b0       _BASIC_CONSTRAINTS_new     004bf6b0 f   libcrypto:libcrypto-lib-v3_bcons.obj
 0001:000be6c0       _BASIC_CONSTRAINTS_free    004bf6c0 f   libcrypto:libcrypto-lib-v3_bcons.obj
 0001:000be8b0       _OBJ_find_sigid_algs       004bf8b0 f   libcrypto:libcrypto-lib-obj_xref.obj
 0001:000beab0       _OBJ_add_sigid             004bfab0 f   libcrypto:libcrypto-lib-obj_xref.obj
 0001:000beca0       _OBJ_sigid_free            004bfca0 f   libcrypto:libcrypto-lib-obj_xref.obj
 0001:000bed10       _EVP_PKEY_type             004bfd10 f   libcrypto:libcrypto-lib-evp_pkey_type.obj
 0001:000bed30       _evp_pkey_asn1_get_count   004bfd30 f   libcrypto:libcrypto-lib-ameth_lib.obj
 0001:000bed40       _evp_pkey_asn1_get0        004bfd40 f   libcrypto:libcrypto-lib-ameth_lib.obj
 0001:000bed60       _evp_pkey_asn1_find        004bfd60 f   libcrypto:libcrypto-lib-ameth_lib.obj
 0001:000bee40       _evp_pkey_asn1_find_str    004bfe40 f   libcrypto:libcrypto-lib-ameth_lib.obj
 0001:000beec0       _evp_pkey_asn1_get0_info   004bfec0 f   libcrypto:libcrypto-lib-ameth_lib.obj
 0001:000bef10       _BIO_socket                004bff10 f   libcrypto:libcrypto-lib-bio_sock2.obj
 0001:000bef90       _BIO_connect               004bff90 f   libcrypto:libcrypto-lib-bio_sock2.obj
 0001:000bf190       _BIO_closesocket           004c0190 f   libcrypto:libcrypto-lib-bio_sock2.obj
 0001:000bf1b0       _ossl_sa_new               004c01b0 f   libcrypto:libcrypto-lib-sparse_array.obj
 0001:000bf1d0       _ossl_sa_free              004c01d0 f   libcrypto:libcrypto-lib-sparse_array.obj
 0001:000bf310       _ossl_sa_doall_arg         004c0310 f   libcrypto:libcrypto-lib-sparse_array.obj
 0001:000bf330       _ossl_sa_get               004c0330 f   libcrypto:libcrypto-lib-sparse_array.obj
 0001:000bf3c0       _ossl_sa_set               004c03c0 f   libcrypto:libcrypto-lib-sparse_array.obj
 0001:000bf500       _ossl_lib_ctx_read_lock    004c0500 f   libcrypto:libcrypto-lib-context.obj
 0001:000bf500       _ossl_lib_ctx_write_lock   004c0500 f   libcrypto:libcrypto-lib-context.obj
 0001:000bf530       _ossl_lib_ctx_unlock       004c0530 f   libcrypto:libcrypto-lib-context.obj
 0001:000bf560       _ossl_lib_ctx_attach_ssl_conf_imodule 004c0560 f   libcrypto:libcrypto-lib-context.obj
 0001:000bf590       _ossl_lib_ctx_detach_ssl_conf_imodule 004c0590 f   libcrypto:libcrypto-lib-context.obj
 0001:000bf5e0       _ossl_lib_ctx_default_deinit 004c05e0 f   libcrypto:libcrypto-lib-context.obj
 0001:000bf800       _OSSL_LIB_CTX_new          004c0800 f   libcrypto:libcrypto-lib-context.obj
 0001:000bfa30       _OSSL_LIB_CTX_new_from_dispatch 004c0a30 f   libcrypto:libcrypto-lib-context.obj
 0001:000bfa70       _OSSL_LIB_CTX_new_child    004c0a70 f   libcrypto:libcrypto-lib-context.obj
 0001:000bfad0       _OSSL_LIB_CTX_free         004c0ad0 f   libcrypto:libcrypto-lib-context.obj
 0001:000bfb20       _OSSL_LIB_CTX_get0_global_default 004c0b20 f   libcrypto:libcrypto-lib-context.obj
 0001:000bfbd0       _OSSL_LIB_CTX_set0_default 004c0bd0 f   libcrypto:libcrypto-lib-context.obj
 0001:000bfca0       _ossl_release_default_drbg_ctx 004c0ca0 f   libcrypto:libcrypto-lib-context.obj
 0001:000bfcc0       _ossl_lib_ctx_get_concrete 004c0cc0 f   libcrypto:libcrypto-lib-context.obj
 0001:000bfce0       _ossl_lib_ctx_is_default   004c0ce0 f   libcrypto:libcrypto-lib-context.obj
 0001:000bfd10       _ossl_lib_ctx_is_default_nocreate 004c0d10 f   libcrypto:libcrypto-lib-context.obj
 0001:000bfda0       _ossl_lib_ctx_is_global_default 004c0da0 f   libcrypto:libcrypto-lib-context.obj
 0001:000bfdc0       _ossl_lib_ctx_get_data     004c0dc0 f   libcrypto:libcrypto-lib-context.obj
 0001:000bfed0       _OSSL_LIB_CTX_get_data     004c0ed0 f   libcrypto:libcrypto-lib-context.obj
 0001:000bfef0       _ossl_lib_ctx_get_ex_data_global 004c0ef0 f   libcrypto:libcrypto-lib-context.obj
 0001:000bff10       _ossl_lib_ctx_get_descriptor 004c0f10 f   libcrypto:libcrypto-lib-context.obj
 0001:000bff50       _OSSL_LIB_CTX_get_conf_diagnostics 004c0f50 f   libcrypto:libcrypto-lib-context.obj
 0001:000bff70       _OSSL_LIB_CTX_set_conf_diagnostics 004c0f70 f   libcrypto:libcrypto-lib-context.obj
 0001:000bff90       _OSSL_CMP_log_close        004c0f90 f   libcrypto:libcrypto-lib-cmp_util.obj
 0001:000bffa0       _CRYPTO_secure_malloc_done 004c0fa0 f   libcrypto:libcrypto-lib-mem_sec.obj
 0001:000bffe0       _CRYPTO_secure_malloc      004c0fe0 f   libcrypto:libcrypto-lib-mem_sec.obj
 0001:000c00b0       _CRYPTO_secure_zalloc      004c10b0 f   libcrypto:libcrypto-lib-mem_sec.obj
 0001:000c00e0       _CRYPTO_secure_free        004c10e0 f   libcrypto:libcrypto-lib-mem_sec.obj
 0001:000c0160       _CRYPTO_secure_clear_free  004c1160 f   libcrypto:libcrypto-lib-mem_sec.obj
 0001:000c01e0       _CRYPTO_secure_allocated   004c11e0 f   libcrypto:libcrypto-lib-mem_sec.obj
 0001:000c0cd0       _EVP_add_cipher            004c1cd0 f   libcrypto:libcrypto-lib-names.obj
 0001:000c0d20       _EVP_add_digest            004c1d20 f   libcrypto:libcrypto-lib-names.obj
 0001:000c0db0       _EVP_get_cipherbyname      004c1db0 f   libcrypto:libcrypto-lib-names.obj
 0001:000c0dd0       _evp_get_cipherbyname_ex   004c1dd0 f   libcrypto:libcrypto-lib-names.obj
 0001:000c0eb0       _EVP_get_digestbyname      004c1eb0 f   libcrypto:libcrypto-lib-names.obj
 0001:000c0ed0       _evp_get_digestbyname_ex   004c1ed0 f   libcrypto:libcrypto-lib-names.obj
 0001:000c0fb0       _evp_cleanup_int           004c1fb0 f   libcrypto:libcrypto-lib-names.obj
 0001:000c0fe0       _CONF_modules_load         004c1fe0 f   libcrypto:libcrypto-lib-conf_mod.obj
 0001:000c1190       _CONF_modules_load_file_ex 004c2190 f   libcrypto:libcrypto-lib-conf_mod.obj
 0001:000c1970       _CONF_modules_unload       004c2970 f   libcrypto:libcrypto-lib-conf_mod.obj
 0001:000c1c00       _CONF_module_add           004c2c00 f   libcrypto:libcrypto-lib-conf_mod.obj
 0001:000c1c30       _ossl_config_modules_free  004c2c30 f   libcrypto:libcrypto-lib-conf_mod.obj
 0001:000c1c90       _CONF_get1_default_config_file 004c2c90 f   libcrypto:libcrypto-lib-conf_mod.obj
 0001:000c1d40       _CONF_parse_list           004c2d40 f   libcrypto:libcrypto-lib-conf_mod.obj
 0001:000c1e70       _async_get_ctx             004c2e70 f   libcrypto:libcrypto-lib-async.obj
 0001:000c1e80       _async_start_func          004c2e80 f   libcrypto:libcrypto-lib-async.obj
 0001:000c1ee0       _ASYNC_start_job           004c2ee0 f   libcrypto:libcrypto-lib-async.obj
 0001:000c22d0       _ASYNC_init_thread         004c32d0 f   libcrypto:libcrypto-lib-async.obj
 0001:000c2580       _ASYNC_get_current_job     004c3580 f   libcrypto:libcrypto-lib-async.obj
 0001:000c2820       _COMP_zlib                 004c3820 f   libcrypto:libcrypto-lib-c_zlib.obj
 0001:000c2860       _COMP_zlib_oneshot         004c3860 f   libcrypto:libcrypto-lib-c_zlib.obj
 0001:000c2890       _BIO_f_zlib                004c3890 f   libcrypto:libcrypto-lib-c_zlib.obj
 0001:000c3080       _OPENSSL_cpuid_setup       004c4080 f   libcrypto:libcrypto-lib-cpuid.obj
 0001:000c3370       _ossl_err_load_crypto_strings 004c4370 f   libcrypto:libcrypto-lib-err_all.obj
 0001:000c3500       _ossl_err_load_SSL_strings 004c4500 f   libcrypto:libcrypto-lib-ssl_err.obj
 0001:000c3530       _openssl_add_all_ciphers_int 004c4530 f   libcrypto:libcrypto-lib-c_allc.obj
 0001:000c3b50       _openssl_add_all_digests_int 004c4b50 f   libcrypto:libcrypto-lib-c_alld.obj
 0001:000c3cb0       _ossl_config_int           004c4cb0 f   libcrypto:libcrypto-lib-conf_sap.obj
 0001:000c3d00       _ossl_no_config_int        004c4d00 f   libcrypto:libcrypto-lib-conf_sap.obj
 0001:000c3ee0       _X509_REQ_INFO_it          004c4ee0 f   libcrypto:libcrypto-lib-x_req.obj
 0001:000c3ef0       _ossl_x509_req_set0_libctx 004c4ef0 f   libcrypto:libcrypto-lib-x_req.obj
 0001:000c3f50       _OSSL_OBJECT_DIGEST_INFO_it 004c4f50 f   libcrypto:libcrypto-lib-x509_acert.obj
 0001:000c3f60       _OSSL_ISSUER_SERIAL_it     004c4f60 f   libcrypto:libcrypto-lib-x509_acert.obj
 0001:000c3f70       _X509_ACERT_ISSUER_V2FORM_it 004c4f70 f   libcrypto:libcrypto-lib-x509_acert.obj
 0001:000c3f80       _X509_ACERT_ISSUER_it      004c4f80 f   libcrypto:libcrypto-lib-x509_acert.obj
 0001:000c3f90       _X509_HOLDER_it            004c4f90 f   libcrypto:libcrypto-lib-x509_acert.obj
 0001:000c3fa0       _X509_ACERT_INFO_it        004c4fa0 f   libcrypto:libcrypto-lib-x509_acert.obj
 0001:000c3fb0       _NETSCAPE_SPKAC_it         004c4fb0 f   libcrypto:libcrypto-lib-x_spki.obj
 0001:000c3fc0       _ASN1_item_d2i_bio_ex      004c4fc0 f   libcrypto:libcrypto-lib-a_d2i_fp.obj
 0001:000c4030       _ASN1_item_d2i_bio         004c5030 f   libcrypto:libcrypto-lib-a_d2i_fp.obj
 0001:000c4050       _asn1_d2i_read_bio         004c5050 f   libcrypto:libcrypto-lib-a_d2i_fp.obj
 0001:000c4440       _ASN1_i2d_bio              004c5440 f   libcrypto:libcrypto-lib-a_i2d_fp.obj
 0001:000c44f0       _PKCS7_ctrl                004c54f0 f   libcrypto:libcrypto-lib-pk7_lib.obj
 0001:000c4620       _pkcs7_get0_certificates   004c5620 f   libcrypto:libcrypto-lib-pk7_lib.obj
 0001:000c4670       _ossl_pkcs7_resolve_libctx 004c5670 f   libcrypto:libcrypto-lib-pk7_lib.obj
 0001:000c47d0       _ossl_pkcs7_get0_ctx       004c57d0 f   libcrypto:libcrypto-lib-pk7_lib.obj
 0001:000c47f0       _ossl_pkcs7_set1_propq     004c57f0 f   libcrypto:libcrypto-lib-pk7_lib.obj
 0001:000c4850       _ossl_pkcs7_ctx_propagate  004c5850 f   libcrypto:libcrypto-lib-pk7_lib.obj
 0001:000c4890       _ossl_pkcs7_ctx_get0_libctx 004c5890 f   libcrypto:libcrypto-lib-pk7_lib.obj
 0001:000c48b0       _ossl_pkcs7_ctx_get0_propq 004c58b0 f   libcrypto:libcrypto-lib-pk7_lib.obj
 0001:000c48b0       _BIO_ADDRINFO_family       004c58b0 f   libcrypto:libcrypto-lib-pk7_lib.obj
 0001:000c48d0       _PKCS7_get_signer_info     004c58d0 f   libcrypto:libcrypto-lib-pk7_lib.obj
 0001:000c4920       _PKCS7_stream              004c5920 f   libcrypto:libcrypto-lib-pk7_lib.obj
 0001:000c4a90       _PKCS7_it                  004c5a90 f   libcrypto:libcrypto-lib-pk7_asn1.obj
 0001:000c4aa0       _PKCS7_free                004c5aa0 f   libcrypto:libcrypto-lib-pk7_asn1.obj
 0001:000c4ad0       _PKCS7_SIGNED_it           004c5ad0 f   libcrypto:libcrypto-lib-pk7_asn1.obj
 0001:000c4b10       _PKCS7_SIGNER_INFO_it      004c5b10 f   libcrypto:libcrypto-lib-pk7_asn1.obj
 0001:000c4b20       _PKCS7_ISSUER_AND_SERIAL_it 004c5b20 f   libcrypto:libcrypto-lib-pk7_asn1.obj
 0001:000c4b30       _PKCS7_ENVELOPE_it         004c5b30 f   libcrypto:libcrypto-lib-pk7_asn1.obj
 0001:000c4b70       _PKCS7_RECIP_INFO_it       004c5b70 f   libcrypto:libcrypto-lib-pk7_asn1.obj
 0001:000c4b80       _PKCS7_ENC_CONTENT_it      004c5b80 f   libcrypto:libcrypto-lib-pk7_asn1.obj
 0001:000c4b90       _PKCS7_SIGN_ENVELOPE_it    004c5b90 f   libcrypto:libcrypto-lib-pk7_asn1.obj
 0001:000c4ba0       _PKCS7_ENCRYPT_it          004c5ba0 f   libcrypto:libcrypto-lib-pk7_asn1.obj
 0001:000c4bb0       _PKCS7_DIGEST_it           004c5bb0 f   libcrypto:libcrypto-lib-pk7_asn1.obj
 0001:000c4bc0       _PKCS7_ATTR_SIGN_it        004c5bc0 f   libcrypto:libcrypto-lib-pk7_asn1.obj
 0001:000c4c40       _RSA_PRIME_INFO_it         004c5c40 f   libcrypto:libcrypto-lib-rsa_asn1.obj
 0001:000c4c50       _RSAPrivateKey_it          004c5c50 f   libcrypto:libcrypto-lib-rsa_asn1.obj
 0001:000c4c60       _RSAPublicKey_it           004c5c60 f   libcrypto:libcrypto-lib-rsa_asn1.obj
 0001:000c4ca0       _RSA_PSS_PARAMS_it         004c5ca0 f   libcrypto:libcrypto-lib-rsa_asn1.obj
 0001:000c4cb0       _RSA_PSS_PARAMS_new        004c5cb0 f   libcrypto:libcrypto-lib-rsa_asn1.obj
 0001:000c4cc0       _RSA_PSS_PARAMS_free       004c5cc0 f   libcrypto:libcrypto-lib-rsa_asn1.obj
 0001:000c4ce0       _RSA_PSS_PARAMS_dup        004c5ce0 f   libcrypto:libcrypto-lib-rsa_asn1.obj
 0001:000c4d30       _d2i_RSAPrivateKey         004c5d30 f   libcrypto:libcrypto-lib-rsa_asn1.obj
 0001:000c4d50       _i2d_RSAPrivateKey         004c5d50 f   libcrypto:libcrypto-lib-rsa_asn1.obj
 0001:000c4d70       _d2i_RSAPublicKey          004c5d70 f   libcrypto:libcrypto-lib-rsa_asn1.obj
 0001:000c4d90       _i2d_RSAPublicKey          004c5d90 f   libcrypto:libcrypto-lib-rsa_asn1.obj
 0001:000c4db0       _RSA_new                   004c5db0 f   libcrypto:libcrypto-lib-rsa_lib.obj
 0001:000c4dc0       _ossl_rsa_new_with_ctx     004c5dc0 f   libcrypto:libcrypto-lib-rsa_lib.obj
 0001:000c4ed0       _RSA_free                  004c5ed0 f   libcrypto:libcrypto-lib-rsa_lib.obj
 0001:000c4fb0       _ossl_rsa_set0_libctx      004c5fb0 f   libcrypto:libcrypto-lib-rsa_lib.obj
 0001:000c4fc0       _ossl_ifc_ffc_compute_security_bits 004c5fc0 f   libcrypto:libcrypto-lib-rsa_lib.obj
 0001:000c5280       _RSA_security_bits         004c6280 f   libcrypto:libcrypto-lib-rsa_lib.obj
 0001:000c52e0       _RSA_set0_key              004c62e0 f   libcrypto:libcrypto-lib-rsa_lib.obj
 0001:000c5360       _RSA_set0_factors          004c6360 f   libcrypto:libcrypto-lib-rsa_lib.obj
 0001:000c53d0       _RSA_set0_crt_params       004c63d0 f   libcrypto:libcrypto-lib-rsa_lib.obj
 0001:000c5470       _ossl_ffc_params_get_validate_params 004c6470 f   libcrypto:libcrypto-lib-rsa_lib.obj
 0001:000c5470       _RSA_get0_key              004c6470 f   libcrypto:libcrypto-lib-rsa_lib.obj
 0001:000c54a0       _RSA_get0_factors          004c64a0 f   libcrypto:libcrypto-lib-rsa_lib.obj
 0001:000c54c0       _RSA_get_multi_prime_extra_count 004c64c0 f   libcrypto:libcrypto-lib-rsa_lib.obj
 0001:000c54e0       _RSA_get0_multi_prime_factors 004c64e0 f   libcrypto:libcrypto-lib-rsa_lib.obj
 0001:000c5530       _RSA_get0_crt_params       004c6530 f   libcrypto:libcrypto-lib-rsa_lib.obj
 0001:000c5560       _RSA_get0_multi_prime_crt_params 004c6560 f   libcrypto:libcrypto-lib-rsa_lib.obj
 0001:000c55f0       _ossl_rsa_set0_pss_params  004c65f0 f   libcrypto:libcrypto-lib-rsa_lib.obj
 0001:000c5620       _ossl_rsa_get0_pss_params_30 004c6620 f   libcrypto:libcrypto-lib-rsa_lib.obj
 0001:000c5630       _RSA_clear_flags           004c6630 f   libcrypto:libcrypto-lib-rsa_lib.obj
 0001:000c5640       _RSA_test_flags            004c6640 f   libcrypto:libcrypto-lib-rsa_lib.obj
 0001:000c5650       _RSA_set_flags             004c6650 f   libcrypto:libcrypto-lib-rsa_lib.obj
 0001:000c5660       _RSA_pkey_ctx_ctrl         004c6660 f   libcrypto:libcrypto-lib-rsa_lib.obj
 0001:000c56a0       _ossl_rsa_set0_all_params  004c66a0 f   libcrypto:libcrypto-lib-rsa_lib.obj
 0001:000c5920       _ossl_rsa_get0_all_params  004c6920 f   libcrypto:libcrypto-lib-rsa_lib.obj
 0001:000c59f0       _ossl_rsa_check_factors    004c69f0 f   libcrypto:libcrypto-lib-rsa_lib.obj
 0001:000c5bb0       _EVP_PKEY_CTX_set_rsa_padding 004c6bb0 f   libcrypto:libcrypto-lib-rsa_lib.obj
 0001:000c5bd0       _EVP_PKEY_CTX_get_rsa_padding 004c6bd0 f   libcrypto:libcrypto-lib-rsa_lib.obj
 0001:000c5bf0       _EVP_PKEY_CTX_set_rsa_mgf1_md 004c6bf0 f   libcrypto:libcrypto-lib-rsa_lib.obj
 0001:000c5c20       _EVP_PKEY_CTX_get_rsa_mgf1_md 004c6c20 f   libcrypto:libcrypto-lib-rsa_lib.obj
 0001:000c5c50       _EVP_PKEY_CTX_set_rsa_pss_saltlen 004c6c50 f   libcrypto:libcrypto-lib-rsa_lib.obj
 0001:000c5c80       _EVP_PKEY_CTX_get_rsa_pss_saltlen 004c6c80 f   libcrypto:libcrypto-lib-rsa_lib.obj
 0001:000c5cb0       _DSA_get_method            004c6cb0 f   libcrypto:libcrypto-lib-dsa_lib.obj
 0001:000c5dc0       _ossl_dsa_new              004c6dc0 f   libcrypto:libcrypto-lib-dsa_lib.obj
 0001:000c5de0       _DSA_new                   004c6de0 f   libcrypto:libcrypto-lib-dsa_lib.obj
 0001:000c5df0       _DSA_free                  004c6df0 f   libcrypto:libcrypto-lib-dsa_lib.obj
 0001:000c5e70       _DSA_up_ref                004c6e70 f   libcrypto:libcrypto-lib-dsa_lib.obj
 0001:000c5e90       _ossl_dsa_set0_libctx      004c6e90 f   libcrypto:libcrypto-lib-dsa_lib.obj
 0001:000c5ea0       _DH_get0_pqg               004c6ea0 f   libcrypto:libcrypto-lib-dsa_lib.obj
 0001:000c5ea0       _DSA_get0_pqg              004c6ea0 f   libcrypto:libcrypto-lib-dsa_lib.obj
 0001:000c5ec0       _DSA_set0_pqg              004c6ec0 f   libcrypto:libcrypto-lib-dsa_lib.obj
 0001:000c5f20       _DSA_get0_key              004c6f20 f   libcrypto:libcrypto-lib-dsa_lib.obj
 0001:000c5f40       _DSA_set0_key              004c6f40 f   libcrypto:libcrypto-lib-dsa_lib.obj
 0001:000c5f90       _DSA_security_bits         004c6f90 f   libcrypto:libcrypto-lib-dsa_lib.obj
 0001:000c5fd0       _DSA_bits                  004c6fd0 f   libcrypto:libcrypto-lib-dsa_lib.obj
 0001:000c5fd0       _DH_bits                   004c6fd0 f   libcrypto:libcrypto-lib-dsa_lib.obj
 0001:000c5ff0       _ossl_dsa_ffc_params_fromdata 004c6ff0 f   libcrypto:libcrypto-lib-dsa_lib.obj
 0001:000c6070       _d2i_DSAPrivateKey         004c7070 f   libcrypto:libcrypto-lib-dsa_asn1.obj
 0001:000c60a0       _i2d_DSAPrivateKey         004c70a0 f   libcrypto:libcrypto-lib-dsa_asn1.obj
 0001:000c60c0       _d2i_DSAparams             004c70c0 f   libcrypto:libcrypto-lib-dsa_asn1.obj
 0001:000c60f0       _i2d_DSAparams             004c70f0 f   libcrypto:libcrypto-lib-dsa_asn1.obj
 0001:000c6110       _d2i_DSAPublicKey          004c7110 f   libcrypto:libcrypto-lib-dsa_asn1.obj
 0001:000c6140       _i2d_DSAPublicKey          004c7140 f   libcrypto:libcrypto-lib-dsa_asn1.obj
 0001:000c6160       _EC_KEY_new                004c7160 f   libcrypto:libcrypto-lib-ec_key.obj
 0001:000c6170       _EC_KEY_new_ex             004c7170 f   libcrypto:libcrypto-lib-ec_key.obj
 0001:000c6190       _EC_KEY_free               004c7190 f   libcrypto:libcrypto-lib-ec_key.obj
 0001:000c6230       _EC_KEY_dup                004c7230 f   libcrypto:libcrypto-lib-ec_key.obj
 0001:000c6250       _EC_KEY_up_ref             004c7250 f   libcrypto:libcrypto-lib-ec_key.obj
 0001:000c6270       _EC_KEY_generate_key       004c7270 f   libcrypto:libcrypto-lib-ec_key.obj
 0001:000c6300       _ossl_ec_key_gen           004c7300 f   libcrypto:libcrypto-lib-ec_key.obj
 0001:000c6330       _ossl_ec_generate_key_dhkem 004c7330 f   libcrypto:libcrypto-lib-ec_key.obj
 0001:000c63c0       _ossl_ec_key_simple_generate_key 004c73c0 f   libcrypto:libcrypto-lib-ec_key.obj
 0001:000c6730       _ossl_ec_key_simple_generate_public_key 004c7730 f   libcrypto:libcrypto-lib-ec_key.obj
 0001:000c6780       _EC_KEY_check_key          004c7780 f   libcrypto:libcrypto-lib-ec_key.obj
 0001:000c6810       _ossl_ec_key_public_check_quick 004c7810 f   libcrypto:libcrypto-lib-ec_key.obj
 0001:000c6a40       _ossl_ec_key_public_check  004c7a40 f   libcrypto:libcrypto-lib-ec_key.obj
 0001:000c6bc0       _ossl_ec_key_private_check 004c7bc0 f   libcrypto:libcrypto-lib-ec_key.obj
 0001:000c6c70       _ossl_ec_key_pairwise_check 004c7c70 f   libcrypto:libcrypto-lib-ec_key.obj
 0001:000c6dc0       _ossl_ec_key_simple_check_key 004c7dc0 f   libcrypto:libcrypto-lib-ec_key.obj
 0001:000c6e60       _ossl_ec_key_set0_libctx   004c7e60 f   libcrypto:libcrypto-lib-ec_key.obj
 0001:000c6e70       _EC_KEY_set_group          004c7e70 f   libcrypto:libcrypto-lib-ec_key.obj
 0001:000c6ee0       _EC_KEY_set_private_key    004c7ee0 f   libcrypto:libcrypto-lib-ec_key.obj
 0001:000c6fc0       _EC_KEY_set_public_key     004c7fc0 f   libcrypto:libcrypto-lib-ec_key.obj
 0001:000c7010       _EC_KEY_set_conv_form      004c8010 f   libcrypto:libcrypto-lib-ec_key.obj
 0001:000c7030       _EC_KEY_set_flags          004c8030 f   libcrypto:libcrypto-lib-ec_key.obj
 0001:000c7050       _EC_KEY_clear_flags        004c8050 f   libcrypto:libcrypto-lib-ec_key.obj
 0001:000c7070       _EC_KEY_decoded_from_explicit_params 004c8070 f   libcrypto:libcrypto-lib-ec_key.obj
 0001:000c7090       _EC_KEY_key2buf            004c8090 f   libcrypto:libcrypto-lib-ec_key.obj
 0001:000c70d0       _EC_KEY_oct2key            004c80d0 f   libcrypto:libcrypto-lib-ec_key.obj
 0001:000c7150       _EC_KEY_priv2oct           004c8150 f   libcrypto:libcrypto-lib-ec_key.obj
 0001:000c71b0       _ossl_ec_key_simple_priv2oct 004c81b0 f   libcrypto:libcrypto-lib-ec_key.obj
 0001:000c7240       _EC_KEY_oct2priv           004c8240 f   libcrypto:libcrypto-lib-ec_key.obj
 0001:000c72b0       _ossl_ec_key_simple_oct2priv 004c82b0 f   libcrypto:libcrypto-lib-ec_key.obj
 0001:000c7370       _EC_KEY_priv2buf           004c8370 f   libcrypto:libcrypto-lib-ec_key.obj
 0001:000c73f0       _EC_KEY_can_sign           004c83f0 f   libcrypto:libcrypto-lib-ec_key.obj
 0001:000c74f0       _X9_62_PENTANOMIAL_new     004c84f0 f   libcrypto:libcrypto-lib-ec_asn1.obj
 0001:000c7520       _X9_62_CHARACTERISTIC_TWO_new 004c8520 f   libcrypto:libcrypto-lib-ec_asn1.obj
 0001:000c7560       _ECPARAMETERS_it           004c8560 f   libcrypto:libcrypto-lib-ec_asn1.obj
 0001:000c7570       _ECPARAMETERS_new          004c8570 f   libcrypto:libcrypto-lib-ec_asn1.obj
 0001:000c7580       _ECPARAMETERS_free         004c8580 f   libcrypto:libcrypto-lib-ec_asn1.obj
 0001:000c75a0       _ECPKPARAMETERS_it         004c85a0 f   libcrypto:libcrypto-lib-ec_asn1.obj
 0001:000c75b0       _d2i_ECPKPARAMETERS        004c85b0 f   libcrypto:libcrypto-lib-ec_asn1.obj
 0001:000c75d0       _i2d_ECPKPARAMETERS        004c85d0 f   libcrypto:libcrypto-lib-ec_asn1.obj
 0001:000c75f0       _ECPKPARAMETERS_new        004c85f0 f   libcrypto:libcrypto-lib-ec_asn1.obj
 0001:000c7600       _ECPKPARAMETERS_free       004c8600 f   libcrypto:libcrypto-lib-ec_asn1.obj
 0001:000c7620       _d2i_EC_PRIVATEKEY         004c8620 f   libcrypto:libcrypto-lib-ec_asn1.obj
 0001:000c7650       _i2d_EC_PRIVATEKEY         004c8650 f   libcrypto:libcrypto-lib-ec_asn1.obj
 0001:000c7670       _EC_PRIVATEKEY_new         004c8670 f   libcrypto:libcrypto-lib-ec_asn1.obj
 0001:000c7680       _EC_PRIVATEKEY_free        004c8680 f   libcrypto:libcrypto-lib-ec_asn1.obj
 0001:000c76a0       _EC_GROUP_get_ecparameters 004c86a0 f   libcrypto:libcrypto-lib-ec_asn1.obj
 0001:000c7e40       _EC_GROUP_get_ecpkparameters 004c8e40 f   libcrypto:libcrypto-lib-ec_asn1.obj
 0001:000c7f60       _EC_GROUP_new_from_ecparameters 004c8f60 f   libcrypto:libcrypto-lib-ec_asn1.obj
 0001:000c87d0       _EC_GROUP_new_from_ecpkparameters 004c97d0 f   libcrypto:libcrypto-lib-ec_asn1.obj
 0001:000c88f0       _d2i_ECPKParameters        004c98f0 f   libcrypto:libcrypto-lib-ec_asn1.obj
 0001:000c89e0       _i2d_ECPKParameters        004c99e0 f   libcrypto:libcrypto-lib-ec_asn1.obj
 0001:000c8a80       _d2i_ECPrivateKey          004c9a80 f   libcrypto:libcrypto-lib-ec_asn1.obj
 0001:000c8cd0       _i2d_ECPrivateKey          004c9cd0 f   libcrypto:libcrypto-lib-ec_asn1.obj
 0001:000c8ef0       _i2d_ECParameters          004c9ef0 f   libcrypto:libcrypto-lib-ec_asn1.obj
 0001:000c8f40       _d2i_ECParameters          004c9f40 f   libcrypto:libcrypto-lib-ec_asn1.obj
 0001:000c9050       _o2i_ECPublicKey           004ca050 f   libcrypto:libcrypto-lib-ec_asn1.obj
 0001:000c9100       _i2o_ECPublicKey           004ca100 f   libcrypto:libcrypto-lib-ec_asn1.obj
 0001:000c9280       _ECDSA_SIG_new             004ca280 f   libcrypto:libcrypto-lib-ec_asn1.obj
 0001:000c92a0       _ECDSA_SIG_free            004ca2a0 f   libcrypto:libcrypto-lib-ec_asn1.obj
 0001:000c92e0       _d2i_ECDSA_SIG             004ca2e0 f   libcrypto:libcrypto-lib-ec_asn1.obj
 0001:000c9370       _i2d_ECDSA_SIG             004ca370 f   libcrypto:libcrypto-lib-ec_asn1.obj
 0001:000c9370       _i2d_DSA_SIG               004ca370 f   libcrypto:libcrypto-lib-ec_asn1.obj
 0001:000c9480       _ECDSA_size                004ca480 f   libcrypto:libcrypto-lib-ec_asn1.obj
 0001:000c94d0       _ossl_asn1_item_digest_ex  004ca4d0 f   libcrypto:libcrypto-lib-a_digest.obj
 0001:000c9590       _ASN1_item_digest          004ca590 f   libcrypto:libcrypto-lib-a_digest.obj
 0001:000c95c0       _ossl_rsa_fromdata         004ca5c0 f   libcrypto:libcrypto-lib-rsa_backend.obj
 0001:000c9bb0       _ossl_rsa_todata           004cabb0 f   libcrypto:libcrypto-lib-rsa_backend.obj
 0001:000c9d20       _ossl_rsa_pss_params_30_todata 004cad20 f   libcrypto:libcrypto-lib-rsa_backend.obj
 0001:000c9e60       _ossl_rsa_pss_params_30_fromdata 004cae60 f   libcrypto:libcrypto-lib-rsa_backend.obj
 0001:000ca0c0       _ossl_rsa_is_foreign       004cb0c0 f   libcrypto:libcrypto-lib-rsa_backend.obj
 0001:000ca0f0       _ossl_rsa_dup              004cb0f0 f   libcrypto:libcrypto-lib-rsa_backend.obj
 0001:000ca3c0       _ossl_rsa_pss_decode       004cb3c0 f   libcrypto:libcrypto-lib-rsa_backend.obj
 0001:000ca410       _ossl_rsa_pss_get_param_unverified 004cb410 f   libcrypto:libcrypto-lib-rsa_backend.obj
 0001:000ca4d0       _ossl_rsa_param_decode     004cb4d0 f   libcrypto:libcrypto-lib-rsa_backend.obj
 0001:000ca6b0       _ossl_rsa_key_from_pkcs8   004cb6b0 f   libcrypto:libcrypto-lib-rsa_backend.obj
 0001:000ca7a0       _X509_SIG_it               004cb7a0 f   libcrypto:libcrypto-lib-x_sig.obj
 0001:000ca7b0       _d2i_X509_SIG              004cb7b0 f   libcrypto:libcrypto-lib-x_sig.obj
 0001:000ca7d0       _i2d_X509_SIG              004cb7d0 f   libcrypto:libcrypto-lib-x_sig.obj
 0001:000ca7f0       _X509_SIG_free             004cb7f0 f   libcrypto:libcrypto-lib-x_sig.obj
 0001:000ca870       _PKCS8_PRIV_KEY_INFO_it    004cb870 f   libcrypto:libcrypto-lib-p8_pkey.obj
 0001:000ca880       _d2i_PKCS8_PRIV_KEY_INFO   004cb880 f   libcrypto:libcrypto-lib-p8_pkey.obj
 0001:000ca8a0       _i2d_PKCS8_PRIV_KEY_INFO   004cb8a0 f   libcrypto:libcrypto-lib-p8_pkey.obj
 0001:000ca8c0       _PKCS8_PRIV_KEY_INFO_new   004cb8c0 f   libcrypto:libcrypto-lib-p8_pkey.obj
 0001:000ca8d0       _PKCS8_PRIV_KEY_INFO_free  004cb8d0 f   libcrypto:libcrypto-lib-p8_pkey.obj
 0001:000ca8f0       _PKCS8_pkey_set0           004cb8f0 f   libcrypto:libcrypto-lib-p8_pkey.obj
 0001:000ca960       _PKCS8_pkey_get0           004cb960 f   libcrypto:libcrypto-lib-p8_pkey.obj
 0001:000ca9b0       _evp_pkcs82pkey_legacy     004cb9b0 f   libcrypto:libcrypto-lib-evp_pkey.obj
 0001:000cab10       _EVP_PKCS82PKEY_ex         004cbb10 f   libcrypto:libcrypto-lib-evp_pkey.obj
 0001:000cac50       _EVP_PKEY_get0_type_name   004cbc50 f   libcrypto:libcrypto-lib-evp_pkey.obj
 0001:000cacb0       _ossl_d2i_PrivateKey_legacy 004cbcb0 f   libcrypto:libcrypto-lib-d2i_pr.obj
 0001:000cae60       _d2i_PrivateKey_ex         004cbe60 f   libcrypto:libcrypto-lib-d2i_pr.obj
 0001:000cb070       _d2i_AutoPrivateKey_ex     004cc070 f   libcrypto:libcrypto-lib-d2i_pr.obj
 0001:000cb1e0       _d2i_AutoPrivateKey        004cc1e0 f   libcrypto:libcrypto-lib-d2i_pr.obj
 0001:000cb200       _ossl_provider_info_clear  004cc200 f   libcrypto:libcrypto-lib-provider_core.obj
 0001:000cb2a0       _ossl_provider_store_free  004cc2a0 f   libcrypto:libcrypto-lib-provider_core.obj
 0001:000cb3c0       _ossl_provider_store_new   004cc3c0 f   libcrypto:libcrypto-lib-provider_core.obj
 0001:000cb4b0       _ossl_provider_disable_fallback_loading 004cc4b0 f   libcrypto:libcrypto-lib-provider_core.obj
 0001:000cb550       _ossl_provider_info_add_to_store 004cc550 f   libcrypto:libcrypto-lib-provider_core.obj
 0001:000cb680       _ossl_provider_find        004cc680 f   libcrypto:libcrypto-lib-provider_core.obj
 0001:000cb790       _ossl_provider_up_ref      004cc790 f   libcrypto:libcrypto-lib-provider_core.obj
 0001:000cb7e0       _ossl_provider_new         004cc7e0 f   libcrypto:libcrypto-lib-provider_core.obj
 0001:000cbc00       _ossl_provider_add_to_store 004ccc00 f   libcrypto:libcrypto-lib-provider_core.obj
 0001:000cbde0       _ossl_provider_free        004ccde0 f   libcrypto:libcrypto-lib-provider_core.obj
 0001:000cbf00       _ossl_provider_set_module_path 004ccf00 f   libcrypto:libcrypto-lib-provider_core.obj
 0001:000cbf60       _OSSL_PROVIDER_add_conf_parameter 004ccf60 f   libcrypto:libcrypto-lib-provider_core.obj
 0001:000cc080       _OSSL_PROVIDER_get_conf_parameters 004cd080 f   libcrypto:libcrypto-lib-provider_core.obj
 0001:000cc100       _ossl_provider_info_add_parameter 004cd100 f   libcrypto:libcrypto-lib-provider_core.obj
 0001:000cc120       _ossl_provider_activate    004cd120 f   libcrypto:libcrypto-lib-provider_core.obj
 0001:000cc760       _ossl_provider_deactivate  004cd760 f   libcrypto:libcrypto-lib-provider_core.obj
 0001:000cc9f0       _ossl_provider_ctx         004cd9f0 f   libcrypto:libcrypto-lib-provider_core.obj
 0001:000ccbc0       _ossl_provider_doall_activated 004cdbc0 f   libcrypto:libcrypto-lib-provider_core.obj
 0001:000ccdf0       _OSSL_PROVIDER_available   004cddf0 f   libcrypto:libcrypto-lib-provider_core.obj
 0001:000cce60       _ossl_provider_module_path 004cde60 f   libcrypto:libcrypto-lib-provider_core.obj
 0001:000cce80       _ossl_provider_get0_dispatch 004cde80 f   libcrypto:libcrypto-lib-provider_core.obj
 0001:000ccea0       _ossl_provider_libctx      004cdea0 f   libcrypto:libcrypto-lib-provider_core.obj
 0001:000ccec0       _ossl_provider_teardown    004cdec0 f   libcrypto:libcrypto-lib-provider_core.obj
 0001:000ccee0       _ossl_provider_random_bytes 004cdee0 f   libcrypto:libcrypto-lib-provider_core.obj
 0001:000ccf10       _ossl_provider_get_capabilities 004cdf10 f   libcrypto:libcrypto-lib-provider_core.obj
 0001:000ccf40       _ossl_provider_query_operation 004cdf40 f   libcrypto:libcrypto-lib-provider_core.obj
 0001:000ccf70       _ossl_provider_unquery_operation 004cdf70 f   libcrypto:libcrypto-lib-provider_core.obj
 0001:000ccf90       _ossl_provider_set_operation_bit 004cdf90 f   libcrypto:libcrypto-lib-provider_core.obj
 0001:000cd040       _ossl_provider_test_operation_bit 004ce040 f   libcrypto:libcrypto-lib-provider_core.obj
 0001:000cd0e0       _ossl_provider_is_child    004ce0e0 f   libcrypto:libcrypto-lib-provider_core.obj
 0001:000cd0f0       _ossl_provider_set_child   004ce0f0 f   libcrypto:libcrypto-lib-provider_core.obj
 0001:000cd110       _ossl_provider_default_props_update 004ce110 f   libcrypto:libcrypto-lib-provider_core.obj
 0001:000cd930       _evp_generic_fetch         004ce930 f   libcrypto:libcrypto-lib-evp_fetch.obj
 0001:000cdf60       _evp_generic_fetch_from_prov 004cef60 f   libcrypto:libcrypto-lib-evp_fetch.obj
 0001:000cdfc0       _evp_method_store_cache_flush 004cefc0 f   libcrypto:libcrypto-lib-evp_fetch.obj
 0001:000cdff0       _evp_method_store_remove_all_provided 004ceff0 f   libcrypto:libcrypto-lib-evp_fetch.obj
 0001:000ce020       _evp_set_default_properties_int 004cf020 f   libcrypto:libcrypto-lib-evp_fetch.obj
 0001:000ce220       _evp_default_properties_enable_fips_int 004cf220 f   libcrypto:libcrypto-lib-evp_fetch.obj
 0001:000ce350       _evp_get_global_properties_str 004cf350 f   libcrypto:libcrypto-lib-evp_fetch.obj
 0001:000ce450       _evp_generic_do_all        004cf450 f   libcrypto:libcrypto-lib-evp_fetch.obj
 0001:000ce510       _evp_is_a                  004cf510 f   libcrypto:libcrypto-lib-evp_fetch.obj
 0001:000ce560       _evp_names_do_all          004cf560 f   libcrypto:libcrypto-lib-evp_fetch.obj
 0001:000ce590       _ossl_algorithm_do_all     004cf590 f   libcrypto:libcrypto-lib-core_algorithm.obj
 0001:000ce7e0       _ossl_algorithm_get1_first_name 004cf7e0 f   libcrypto:libcrypto-lib-core_algorithm.obj
 0001:000ce830       _OBJ_NAME_init             004cf830 f   libcrypto:libcrypto-lib-o_names.obj
 0001:000ce9b0       _OBJ_NAME_get              004cf9b0 f   libcrypto:libcrypto-lib-o_names.obj
 0001:000cea80       _OBJ_NAME_add              004cfa80 f   libcrypto:libcrypto-lib-o_names.obj
 0001:000ceba0       _OBJ_NAME_remove           004cfba0 f   libcrypto:libcrypto-lib-o_names.obj
 0001:000cec70       _OBJ_NAME_do_all           004cfc70 f   libcrypto:libcrypto-lib-o_names.obj
 0001:000cecd0       _OBJ_NAME_cleanup          004cfcd0 f   libcrypto:libcrypto-lib-o_names.obj
 0001:000cede0       _evp_do_ciph_getparams     004cfde0 f   libcrypto:libcrypto-lib-evp_utils.obj
 0001:000cee50       _evp_do_ciph_ctx_getparams 004cfe50 f   libcrypto:libcrypto-lib-evp_utils.obj
 0001:000cee90       _evp_do_ciph_ctx_setparams 004cfe90 f   libcrypto:libcrypto-lib-evp_utils.obj
 0001:000cef00       _evp_do_md_getparams       004cff00 f   libcrypto:libcrypto-lib-evp_utils.obj
 0001:000cef40       _ASN1_TYPE_set_octetstring 004cff40 f   libcrypto:libcrypto-lib-evp_asn1.obj
 0001:000cef90       _ASN1_TYPE_get_octetstring 004cff90 f   libcrypto:libcrypto-lib-evp_asn1.obj
 0001:000cf010       _ASN1_TYPE_set_int_octetstring 004d0010 f   libcrypto:libcrypto-lib-evp_asn1.obj
 0001:000cf080       _ASN1_TYPE_get_int_octetstring 004d0080 f   libcrypto:libcrypto-lib-evp_asn1.obj
 0001:000cf170       _ossl_asn1_type_set_octetstring_int 004d0170 f   libcrypto:libcrypto-lib-evp_asn1.obj
 0001:000cf1e0       _ossl_asn1_type_get_octetstring_int 004d01e0 f   libcrypto:libcrypto-lib-evp_asn1.obj
 0001:000cf270       _OPENSSL_isservice         004d0270 f   libcrypto:libcrypto-lib-cryptlib.obj
 0001:000cf380       _OPENSSL_showfatal         004d0380 f   libcrypto:libcrypto-lib-cryptlib.obj
 0001:000cf5b0       _OPENSSL_die               004d05b0 f   libcrypto:libcrypto-lib-cryptlib.obj
 0001:000cf5e0       _ASN1_TYPE_get             004d05e0 f   libcrypto:libcrypto-lib-a_type.obj
 0001:000cf600       _ASN1_TYPE_set             004d0600 f   libcrypto:libcrypto-lib-a_type.obj
 0001:000cf660       _ASN1_TYPE_cmp             004d0660 f   libcrypto:libcrypto-lib-a_type.obj
 0001:000cf6c0       _ASN1_TYPE_pack_sequence   004d06c0 f   libcrypto:libcrypto-lib-a_type.obj
 0001:000cf730       _ASN1_TYPE_unpack_sequence 004d0730 f   libcrypto:libcrypto-lib-a_type.obj
 0001:000cf760       _EVP_PKEY_paramgen_init    004d0760 f   libcrypto:libcrypto-lib-pmeth_gn.obj
 0001:000cf850       _EVP_PKEY_keygen_init      004d0850 f   libcrypto:libcrypto-lib-pmeth_gn.obj
 0001:000cf870       _EVP_PKEY_generate         004d0870 f   libcrypto:libcrypto-lib-pmeth_gn.obj
 0001:000cfaa0       _EVP_PKEY_paramgen         004d0aa0 f   libcrypto:libcrypto-lib-pmeth_gn.obj
 0001:000cfaf0       _EVP_PKEY_keygen           004d0af0 f   libcrypto:libcrypto-lib-pmeth_gn.obj
 0001:000cfb40       _EVP_PKEY_new_mac_key      004d0b40 f   libcrypto:libcrypto-lib-pmeth_gn.obj
 0001:000cfbc0       _EVP_PKEY_fromdata_init    004d0bc0 f   libcrypto:libcrypto-lib-pmeth_gn.obj
 0001:000cfc50       _EVP_PKEY_fromdata         004d0c50 f   libcrypto:libcrypto-lib-pmeth_gn.obj
 0001:000cfd30       _EVP_PKEY_export           004d0d30 f   libcrypto:libcrypto-lib-pmeth_gn.obj
 0001:000cfdf0       _evp_skey_alloc            004d0df0 f   libcrypto:libcrypto-lib-s_lib.obj
 0001:000cfe90       _EVP_SKEY_import           004d0e90 f   libcrypto:libcrypto-lib-s_lib.obj
 0001:000cff60       _EVP_SKEY_import_SKEYMGMT  004d0f60 f   libcrypto:libcrypto-lib-s_lib.obj
 0001:000cffb0       _EVP_SKEY_import_raw_key   004d0fb0 f   libcrypto:libcrypto-lib-s_lib.obj
 0001:000d0020       _EVP_SKEY_free             004d1020 f   libcrypto:libcrypto-lib-s_lib.obj
 0001:000d0070       _WPACKET_allocate_bytes    004d1070 f   libcrypto:libcrypto-lib-packet.obj
 0001:000d00b0       _WPACKET_sub_allocate_bytes__ 004d10b0 f   libcrypto:libcrypto-lib-packet.obj
 0001:000d0100       _WPACKET_reserve_bytes     004d1100 f   libcrypto:libcrypto-lib-packet.obj
 0001:000d01a0       _WPACKET_sub_reserve_bytes__ 004d11a0 f   libcrypto:libcrypto-lib-packet.obj
 0001:000d01f0       _WPACKET_init_static_len   004d11f0 f   libcrypto:libcrypto-lib-packet.obj
 0001:000d02f0       _WPACKET_init_der          004d12f0 f   libcrypto:libcrypto-lib-packet.obj
 0001:000d0330       _WPACKET_init_len          004d1330 f   libcrypto:libcrypto-lib-packet.obj
 0001:000d0370       _WPACKET_init              004d1370 f   libcrypto:libcrypto-lib-packet.obj
 0001:000d0390       _WPACKET_init_null         004d1390 f   libcrypto:libcrypto-lib-packet.obj
 0001:000d03d0       _WPACKET_init_null_der     004d13d0 f   libcrypto:libcrypto-lib-packet.obj
 0001:000d0400       _WPACKET_set_flags         004d1400 f   libcrypto:libcrypto-lib-packet.obj
 0001:000d0420       _WPACKET_fill_lengths      004d1420 f   libcrypto:libcrypto-lib-packet.obj
 0001:000d06a0       _WPACKET_close             004d16a0 f   libcrypto:libcrypto-lib-packet.obj
 0001:000d06d0       _WPACKET_finish            004d16d0 f   libcrypto:libcrypto-lib-packet.obj
 0001:000d0720       _WPACKET_start_sub_packet_len__ 004d1720 f   libcrypto:libcrypto-lib-packet.obj
 0001:000d07b0       _WPACKET_start_sub_packet  004d17b0 f   libcrypto:libcrypto-lib-packet.obj
 0001:000d07d0       _WPACKET_put_bytes__       004d17d0 f   libcrypto:libcrypto-lib-packet.obj
 0001:000d0820       _WPACKET_set_max_size      004d1820 f   libcrypto:libcrypto-lib-packet.obj
 0001:000d0870       _WPACKET_memset            004d1870 f   libcrypto:libcrypto-lib-packet.obj
 0001:000d08d0       _WPACKET_memcpy            004d18d0 f   libcrypto:libcrypto-lib-packet.obj
 0001:000d0920       _WPACKET_sub_memcpy__      004d1920 f   libcrypto:libcrypto-lib-packet.obj
 0001:000d0970       _WPACKET_get_total_written 004d1970 f   libcrypto:libcrypto-lib-packet.obj
 0001:000d0990       _WPACKET_get_length        004d1990 f   libcrypto:libcrypto-lib-packet.obj
 0001:000d09c0       _WPACKET_get_curr          004d19c0 f   libcrypto:libcrypto-lib-packet.obj
 0001:000d0a00       _WPACKET_is_null_buf       004d1a00 f   libcrypto:libcrypto-lib-packet.obj
 0001:000d0a20       _WPACKET_cleanup           004d1a20 f   libcrypto:libcrypto-lib-packet.obj
 0001:000d0a60       _WPACKET_quic_write_vlint  004d1a60 f   libcrypto:libcrypto-lib-packet.obj
 0001:000d0b10       _EVP_KDF_CTX_new           004d1b10 f   libcrypto:libcrypto-lib-kdf_lib.obj
 0001:000d0bb0       _EVP_KDF_CTX_free          004d1bb0 f   libcrypto:libcrypto-lib-kdf_lib.obj
 0001:000d0bf0       _EVP_KDF_CTX_dup           004d1bf0 f   libcrypto:libcrypto-lib-kdf_lib.obj
 0001:000d0ca0       _EVP_KDF_CTX_get_kdf_size  004d1ca0 f   libcrypto:libcrypto-lib-kdf_lib.obj
 0001:000d0d50       _EVP_KDF_derive            004d1d50 f   libcrypto:libcrypto-lib-kdf_lib.obj
 0001:000d0d80       _EVP_KDF_CTX_get_params    004d1d80 f   libcrypto:libcrypto-lib-kdf_lib.obj
 0001:000d0db0       _EVP_KDF_CTX_set_params    004d1db0 f   libcrypto:libcrypto-lib-kdf_lib.obj
 0001:000d0de0       _EVP_KDF_fetch             004d1de0 f   libcrypto:libcrypto-lib-kdf_meth.obj
 0001:000d10e0       _EVP_KDF_up_ref            004d20e0 f   libcrypto:libcrypto-lib-kdf_meth.obj
 0001:000d1100       _EVP_KDF_free              004d2100 f   libcrypto:libcrypto-lib-kdf_meth.obj
 0001:000d1120       _EVP_KDF_gettable_ctx_params 004d2120 f   libcrypto:libcrypto-lib-kdf_meth.obj
 0001:000d1150       _EVP_KDF_settable_ctx_params 004d2150 f   libcrypto:libcrypto-lib-kdf_meth.obj
 0001:000d1180       _PBE2PARAM_it              004d2180 f   libcrypto:libcrypto-lib-p5_pbev2.obj
 0001:000d1190       _PBE2PARAM_new             004d2190 f   libcrypto:libcrypto-lib-p5_pbev2.obj
 0001:000d11a0       _PBE2PARAM_free            004d21a0 f   libcrypto:libcrypto-lib-p5_pbev2.obj
 0001:000d11c0       _PBKDF2PARAM_it            004d21c0 f   libcrypto:libcrypto-lib-p5_pbev2.obj
 0001:000d11d0       _PBKDF2PARAM_new           004d21d0 f   libcrypto:libcrypto-lib-p5_pbev2.obj
 0001:000d11e0       _PBKDF2PARAM_free          004d21e0 f   libcrypto:libcrypto-lib-p5_pbev2.obj
 0001:000d1200       _PBMAC1PARAM_it            004d2200 f   libcrypto:libcrypto-lib-p5_pbev2.obj
 0001:000d1210       _PBMAC1PARAM_free          004d2210 f   libcrypto:libcrypto-lib-p5_pbev2.obj
 0001:000d1230       _PKCS5_pbe2_set_iv_ex      004d2230 f   libcrypto:libcrypto-lib-p5_pbev2.obj
 0001:000d14f0       _PKCS5_pbkdf2_set_ex       004d24f0 f   libcrypto:libcrypto-lib-p5_pbev2.obj
 0001:000d1750       _EVP_PBE_CipherInit_ex     004d2750 f   libcrypto:libcrypto-lib-evp_pbe.obj
 0001:000d1920       _EVP_PBE_find_ex           004d2920 f   libcrypto:libcrypto-lib-evp_pbe.obj
 0001:000d1a30       _EVP_PBE_find              004d2a30 f   libcrypto:libcrypto-lib-evp_pbe.obj
 0001:000d1a60       _EVP_PBE_cleanup           004d2a60 f   libcrypto:libcrypto-lib-evp_pbe.obj
 0001:000d1ab0       _ossl_pool_acquire_entropy 004d2ab0 f   libcrypto:libdefault-lib-rand_win.obj
 0001:000d1bd0       _ossl_pool_add_nonce_data  004d2bd0 f   libcrypto:libdefault-lib-rand_win.obj
 0001:000d1c20       _EVP_RAND_enable_locking   004d2c20 f   libcrypto:libcrypto-lib-evp_rand.obj
 0001:000d1c70       _EVP_RAND_fetch            004d2c70 f   libcrypto:libcrypto-lib-evp_rand.obj
 0001:000d20a0       _EVP_RAND_up_ref           004d30a0 f   libcrypto:libcrypto-lib-evp_rand.obj
 0001:000d20c0       _EVP_RAND_free             004d30c0 f   libcrypto:libcrypto-lib-evp_rand.obj
 0001:000d20e0       _EVP_RAND_CTX_up_ref       004d30e0 f   libcrypto:libcrypto-lib-evp_rand.obj
 0001:000d2100       _EVP_RAND_CTX_new          004d3100 f   libcrypto:libcrypto-lib-evp_rand.obj
 0001:000d2270       _EVP_RAND_CTX_free         004d3270 f   libcrypto:libcrypto-lib-evp_rand.obj
 0001:000d2340       _EVP_RAND_CTX_settable_params 004d3340 f   libcrypto:libcrypto-lib-evp_rand.obj
 0001:000d2380       _EVP_RAND_instantiate      004d3380 f   libcrypto:libcrypto-lib-evp_rand.obj
 0001:000d2400       _EVP_RAND_generate         004d3400 f   libcrypto:libcrypto-lib-evp_rand.obj
 0001:000d2580       _evp_rand_can_seed         004d3580 f   libcrypto:libcrypto-lib-evp_rand.obj
 0001:000d25a0       _evp_rand_get_seed         004d35a0 f   libcrypto:libcrypto-lib-evp_rand.obj
 0001:000d2630       _evp_rand_clear_seed       004d3630 f   libcrypto:libcrypto-lib-evp_rand.obj
 0001:000d2690       _OSSL_PROVIDER_unload      004d3690 f   libcrypto:libcrypto-lib-provider.obj
 0001:000d26c0       _OSSL_PROVIDER_get0_provider_ctx 004d36c0 f   libcrypto:libcrypto-lib-provider.obj
 0001:000d26e0       _OSSL_PROVIDER_get0_dispatch 004d36e0 f   libcrypto:libcrypto-lib-provider.obj
 0001:000d2700       _OSSL_PROVIDER_get_capabilities 004d3700 f   libcrypto:libcrypto-lib-provider.obj
 0001:000d2720       _OSSL_PROVIDER_get0_name   004d3720 f   libcrypto:libcrypto-lib-provider.obj
 0001:000d2740       _OSSL_PROVIDER_do_all      004d3740 f   libcrypto:libcrypto-lib-provider.obj
 0001:000d2760       _CONF_set_nconf            004d3760 f   libcrypto:libcrypto-lib-conf_lib.obj
 0001:000d2790       _CONF_get_section          004d3790 f   libcrypto:libcrypto-lib-conf_lib.obj
 0001:000d27d0       _CONF_get_string           004d37d0 f   libcrypto:libcrypto-lib-conf_lib.obj
 0001:000d2820       _CONF_free                 004d3820 f   libcrypto:libcrypto-lib-conf_lib.obj
 0001:000d2850       _NCONF_new_ex              004d3850 f   libcrypto:libcrypto-lib-conf_lib.obj
 0001:000d28a0       _NCONF_free                004d38a0 f   libcrypto:libcrypto-lib-conf_lib.obj
 0001:000d28c0       _NCONF_free_data           004d38c0 f   libcrypto:libcrypto-lib-conf_lib.obj
 0001:000d28e0       _NCONF_load                004d38e0 f   libcrypto:libcrypto-lib-conf_lib.obj
 0001:000d2930       _NCONF_get_section         004d3930 f   libcrypto:libcrypto-lib-conf_lib.obj
 0001:000d29b0       _NCONF_get_string          004d39b0 f   libcrypto:libcrypto-lib-conf_lib.obj
 0001:000d2a40       _NCONF_get_number_e        004d3a40 f   libcrypto:libcrypto-lib-conf_lib.obj
 0001:000d2ba0       _ossl_asn1_get_choice_selector 004d3ba0 f   libcrypto:libcrypto-lib-tasn_utl.obj
 0001:000d2ba0       _ossl_asn1_get_choice_selector_const 004d3ba0 f   libcrypto:libcrypto-lib-tasn_utl.obj
 0001:000d2bc0       _ossl_asn1_set_choice_selector 004d3bc0 f   libcrypto:libcrypto-lib-tasn_utl.obj
 0001:000d2be0       _ossl_asn1_do_lock         004d3be0 f   libcrypto:libcrypto-lib-tasn_utl.obj
 0001:000d2cb0       _ossl_asn1_enc_init        004d3cb0 f   libcrypto:libcrypto-lib-tasn_utl.obj
 0001:000d2ce0       _ossl_asn1_enc_free        004d3ce0 f   libcrypto:libcrypto-lib-tasn_utl.obj
 0001:000d2d30       _ossl_asn1_enc_save        004d3d30 f   libcrypto:libcrypto-lib-tasn_utl.obj
 0001:000d2dd0       _ossl_asn1_enc_restore     004d3dd0 f   libcrypto:libcrypto-lib-tasn_utl.obj
 0001:000d2e60       _ossl_asn1_get_const_field_ptr 004d3e60 f   libcrypto:libcrypto-lib-tasn_utl.obj
 0001:000d2e60       _ossl_asn1_get_field_ptr   004d3e60 f   libcrypto:libcrypto-lib-tasn_utl.obj
 0001:000d2e80       _ossl_asn1_do_adb          004d3e80 f   libcrypto:libcrypto-lib-tasn_utl.obj
 0001:000d2f60       _ossl_i2c_ASN1_BIT_STRING  004d3f60 f   libcrypto:libcrypto-lib-a_bitstr.obj
 0001:000d2ff0       _ossl_c2i_ASN1_BIT_STRING  004d3ff0 f   libcrypto:libcrypto-lib-a_bitstr.obj
 0001:000d3150       _ASN1_BIT_STRING_set_bit   004d4150 f   libcrypto:libcrypto-lib-a_bitstr.obj
 0001:000d32b0       _ASN1_BIT_STRING_get_bit   004d42b0 f   libcrypto:libcrypto-lib-a_bitstr.obj
 0001:000d3310       _ASN1_BIT_STRING_set1      004d4310 f   libcrypto:libcrypto-lib-a_bitstr.obj
 0001:000d3390       _i2v_GENERAL_NAMES         004d4390 f   libcrypto:libcrypto-lib-v3_san.obj
 0001:000d3420       _i2v_GENERAL_NAME          004d4420 f   libcrypto:libcrypto-lib-v3_san.obj
 0001:000d37a0       _GENERAL_NAME_print        004d47a0 f   libcrypto:libcrypto-lib-v3_san.obj
 0001:000d3fd0       _v2i_GENERAL_NAMES         004d4fd0 f   libcrypto:libcrypto-lib-v3_san.obj
 0001:000d4090       _v2i_GENERAL_NAME          004d5090 f   libcrypto:libcrypto-lib-v3_san.obj
 0001:000d40b0       _a2i_GENERAL_NAME          004d50b0 f   libcrypto:libcrypto-lib-v3_san.obj
 0001:000d4330       _v2i_GENERAL_NAME_ex       004d5330 f   libcrypto:libcrypto-lib-v3_san.obj
 0001:000d45f0       _X509V3_get_section        004d55f0 f   libcrypto:libcrypto-lib-v3_conf.obj
 0001:000d4650       _X509V3_section_free       004d5650 f   libcrypto:libcrypto-lib-v3_conf.obj
 0001:000d4700       _OSSL_ATTRIBUTES_SYNTAX_it 004d5700 f   libcrypto:libcrypto-lib-v3_sda.obj
 0001:000d48c0       _OSSL_ATAV_it              004d58c0 f   libcrypto:libcrypto-lib-v3_attrmap.obj
 0001:000d48d0       _OSSL_ATTRIBUTE_TYPE_MAPPING_it 004d58d0 f   libcrypto:libcrypto-lib-v3_attrmap.obj
 0001:000d48e0       _OSSL_ATTRIBUTE_VALUE_MAPPING_it 004d58e0 f   libcrypto:libcrypto-lib-v3_attrmap.obj
 0001:000d48f0       _OSSL_ATTRIBUTE_MAPPING_it 004d58f0 f   libcrypto:libcrypto-lib-v3_attrmap.obj
 0001:000d4900       _OSSL_ATTRIBUTE_MAPPINGS_it 004d5900 f   libcrypto:libcrypto-lib-v3_attrmap.obj
 0001:000d4b20       _OSSL_ALLOWED_ATTRIBUTES_CHOICE_it 004d5b20 f   libcrypto:libcrypto-lib-v3_aaa.obj
 0001:000d4b30       _OSSL_ALLOWED_ATTRIBUTES_ITEM_it 004d5b30 f   libcrypto:libcrypto-lib-v3_aaa.obj
 0001:000d4b40       _OSSL_ALLOWED_ATTRIBUTES_SYNTAX_it 004d5b40 f   libcrypto:libcrypto-lib-v3_aaa.obj
 0001:000d4ec0       _EXTENDED_KEY_USAGE_it     004d5ec0 f   libcrypto:libcrypto-lib-v3_extku.obj
 0001:000d5050       _OSSL_USER_NOTICE_SYNTAX_it 004d6050 f   libcrypto:libcrypto-lib-v3_usernotice.obj
 0001:000d5290       _OSSL_HASH_it              004d6290 f   libcrypto:libcrypto-lib-v3_attrdesc.obj
 0001:000d52a0       _OSSL_INFO_SYNTAX_POINTER_it 004d62a0 f   libcrypto:libcrypto-lib-v3_attrdesc.obj
 0001:000d52b0       _OSSL_INFO_SYNTAX_it       004d62b0 f   libcrypto:libcrypto-lib-v3_attrdesc.obj
 0001:000d52c0       _OSSL_PRIVILEGE_POLICY_ID_it 004d62c0 f   libcrypto:libcrypto-lib-v3_attrdesc.obj
 0001:000d52d0       _OSSL_ATTRIBUTE_DESCRIPTOR_it 004d62d0 f   libcrypto:libcrypto-lib-v3_attrdesc.obj
 0001:000d5770       _OSSL_TIME_SPEC_ABSOLUTE_it 004d6770 f   libcrypto:libcrypto-lib-v3_timespec.obj
 0001:000d5780       _OSSL_DAY_TIME_it          004d6780 f   libcrypto:libcrypto-lib-v3_timespec.obj
 0001:000d5790       _OSSL_DAY_TIME_BAND_it     004d6790 f   libcrypto:libcrypto-lib-v3_timespec.obj
 0001:000d57a0       _OSSL_NAMED_DAY_it         004d67a0 f   libcrypto:libcrypto-lib-v3_timespec.obj
 0001:000d57b0       _OSSL_TIME_SPEC_X_DAY_OF_it 004d67b0 f   libcrypto:libcrypto-lib-v3_timespec.obj
 0001:000d57c0       _OSSL_TIME_SPEC_DAY_it     004d67c0 f   libcrypto:libcrypto-lib-v3_timespec.obj
 0001:000d57d0       _OSSL_TIME_SPEC_WEEKS_it   004d67d0 f   libcrypto:libcrypto-lib-v3_timespec.obj
 0001:000d57e0       _OSSL_TIME_SPEC_MONTH_it   004d67e0 f   libcrypto:libcrypto-lib-v3_timespec.obj
 0001:000d57f0       _OSSL_TIME_PERIOD_it       004d67f0 f   libcrypto:libcrypto-lib-v3_timespec.obj
 0001:000d5800       _OSSL_TIME_SPEC_TIME_it    004d6800 f   libcrypto:libcrypto-lib-v3_timespec.obj
 0001:000d5810       _OSSL_TIME_SPEC_it         004d6810 f   libcrypto:libcrypto-lib-v3_timespec.obj
 0001:000d6740       _OSSL_BASIC_ATTR_CONSTRAINTS_it 004d7740 f   libcrypto:libcrypto-lib-v3_battcons.obj
 0001:000d6750       _OSSL_BASIC_ATTR_CONSTRAINTS_new 004d7750 f   libcrypto:libcrypto-lib-v3_battcons.obj
 0001:000d6760       _OSSL_BASIC_ATTR_CONSTRAINTS_free 004d7760 f   libcrypto:libcrypto-lib-v3_battcons.obj
 0001:000d6950       _OSSL_ROLE_SPEC_CERT_ID_it 004d7950 f   libcrypto:libcrypto-lib-v3_rolespec.obj
 0001:000d6960       _OSSL_ROLE_SPEC_CERT_ID_SYNTAX_it 004d7960 f   libcrypto:libcrypto-lib-v3_rolespec.obj
 0001:000d6b70       _OSSL_AUTHORITY_ATTRIBUTE_ID_SYNTAX_it 004d7b70 f   libcrypto:libcrypto-lib-v3_authattid.obj
 0001:000d6d00       _NAMING_AUTHORITY_it       004d7d00 f   libcrypto:libcrypto-lib-v3_admis.obj
 0001:000d6d10       _PROFESSION_INFO_it        004d7d10 f   libcrypto:libcrypto-lib-v3_admis.obj
 0001:000d6d20       _ADMISSIONS_it             004d7d20 f   libcrypto:libcrypto-lib-v3_admis.obj
 0001:000d6d30       _ADMISSION_SYNTAX_it       004d7d30 f   libcrypto:libcrypto-lib-v3_admis.obj
 0001:000d7530       _ISSUER_SIGN_TOOL_it       004d8530 f   libcrypto:libcrypto-lib-v3_ist.obj
 0001:000d7540       _ISSUER_SIGN_TOOL_new      004d8540 f   libcrypto:libcrypto-lib-v3_ist.obj
 0001:000d7550       _ISSUER_SIGN_TOOL_free     004d8550 f   libcrypto:libcrypto-lib-v3_ist.obj
 0001:000d79b0       _i2s_ASN1_UTF8STRING       004d89b0 f   libcrypto:libcrypto-lib-v3_utf8.obj
 0001:000d7a30       _s2i_ASN1_UTF8STRING       004d8a30 f   libcrypto:libcrypto-lib-v3_utf8.obj
 0001:000d7c70       _POLICY_MAPPING_it         004d8c70 f   libcrypto:libcrypto-lib-v3_pmaps.obj
 0001:000d7c80       _POLICY_MAPPINGS_it        004d8c80 f   libcrypto:libcrypto-lib-v3_pmaps.obj
 0001:000d7c90       _POLICY_MAPPING_new        004d8c90 f   libcrypto:libcrypto-lib-v3_pmaps.obj
 0001:000d7ca0       _POLICY_MAPPING_free       004d8ca0 f   libcrypto:libcrypto-lib-v3_pmaps.obj
 0001:000d8980       _OSSL_TARGET_it            004d9980 f   libcrypto:libcrypto-lib-v3_ac_tgt.obj
 0001:000d8990       _OSSL_TARGETS_it           004d9990 f   libcrypto:libcrypto-lib-v3_ac_tgt.obj
 0001:000d89a0       _OSSL_TARGETING_INFORMATION_it 004d99a0 f   libcrypto:libcrypto-lib-v3_ac_tgt.obj
 0001:000d8e00       _POLICY_CONSTRAINTS_it     004d9e00 f   libcrypto:libcrypto-lib-v3_pcons.obj
 0001:000d8e10       _POLICY_CONSTRAINTS_new    004d9e10 f   libcrypto:libcrypto-lib-v3_pcons.obj
 0001:000d8e20       _POLICY_CONSTRAINTS_free   004d9e20 f   libcrypto:libcrypto-lib-v3_pcons.obj
 0001:000d9380       _SXNETID_it                004da380 f   libcrypto:libcrypto-lib-v3_sxnet.obj
 0001:000d9390       _SXNETID_new               004da390 f   libcrypto:libcrypto-lib-v3_sxnet.obj
 0001:000d93a0       _SXNETID_free              004da3a0 f   libcrypto:libcrypto-lib-v3_sxnet.obj
 0001:000d93c0       _SXNET_it                  004da3c0 f   libcrypto:libcrypto-lib-v3_sxnet.obj
 0001:000d93d0       _SXNET_new                 004da3d0 f   libcrypto:libcrypto-lib-v3_sxnet.obj
 0001:000d93e0       _SXNET_free                004da3e0 f   libcrypto:libcrypto-lib-v3_sxnet.obj
 0001:000d9590       _SXNET_add_id_asc          004da590 f   libcrypto:libcrypto-lib-v3_sxnet.obj
 0001:000d9610       _SXNET_add_id_INTEGER      004da610 f   libcrypto:libcrypto-lib-v3_sxnet.obj
 0001:000d9810       _SXNET_get_id_INTEGER      004da810 f   libcrypto:libcrypto-lib-v3_sxnet.obj
 0001:000d9870       _i2s_ASN1_ENUMERATED_TABLE 004da870 f   libcrypto:libcrypto-lib-v3_enum.obj
 0001:000da0c0       _CERTIFICATEPOLICIES_it    004db0c0 f   libcrypto:libcrypto-lib-v3_cpols.obj
 0001:000da0d0       _POLICYINFO_it             004db0d0 f   libcrypto:libcrypto-lib-v3_cpols.obj
 0001:000da0e0       _POLICYINFO_new            004db0e0 f   libcrypto:libcrypto-lib-v3_cpols.obj
 0001:000da0f0       _POLICYINFO_free           004db0f0 f   libcrypto:libcrypto-lib-v3_cpols.obj
 0001:000da120       _POLICYQUALINFO_it         004db120 f   libcrypto:libcrypto-lib-v3_cpols.obj
 0001:000da130       _POLICYQUALINFO_new        004db130 f   libcrypto:libcrypto-lib-v3_cpols.obj
 0001:000da140       _POLICYQUALINFO_free       004db140 f   libcrypto:libcrypto-lib-v3_cpols.obj
 0001:000da160       _USERNOTICE_it             004db160 f   libcrypto:libcrypto-lib-v3_cpols.obj
 0001:000da170       _USERNOTICE_new            004db170 f   libcrypto:libcrypto-lib-v3_cpols.obj
 0001:000da180       _NOTICEREF_it              004db180 f   libcrypto:libcrypto-lib-v3_cpols.obj
 0001:000da190       _NOTICEREF_new             004db190 f   libcrypto:libcrypto-lib-v3_cpols.obj
 0001:000db200       _PKEY_USAGE_PERIOD_it      004dc200 f   libcrypto:libcrypto-lib-v3_pku.obj
 0001:000db2a0       _i2v_ASN1_BIT_STRING       004dc2a0 f   libcrypto:libcrypto-lib-v3_bitst.obj
 0001:000db300       _v2i_ASN1_BIT_STRING       004dc300 f   libcrypto:libcrypto-lib-v3_bitst.obj
 0001:000db4c0       _i2s_ASN1_OCTET_STRING     004dc4c0 f   libcrypto:libcrypto-lib-v3_skid.obj
 0001:000db4e0       _s2i_ASN1_OCTET_STRING     004dc4e0 f   libcrypto:libcrypto-lib-v3_skid.obj
 0001:000db560       _ossl_x509_pubkey_hash     004dc560 f   libcrypto:libcrypto-lib-v3_skid.obj
 0001:000db790       _i2s_ASN1_IA5STRING        004dc790 f   libcrypto:libcrypto-lib-v3_ia5.obj
 0001:000db7e0       _s2i_ASN1_IA5STRING        004dc7e0 f   libcrypto:libcrypto-lib-v3_ia5.obj
 0001:000dc4d0       _ossl_rsa_pss_params_create 004dd4d0 f   libcrypto:libcrypto-lib-rsa_ameth.obj
 0001:000dc560       _ossl_rsa_ctx_to_pss_string 004dd560 f   libcrypto:libcrypto-lib-rsa_ameth.obj
 0001:000dc6b0       _ossl_rsa_pss_to_ctx       004dd6b0 f   libcrypto:libcrypto-lib-rsa_ameth.obj
 0001:000dc860       _ossl_rsa_pss_get_param    004dd860 f   libcrypto:libcrypto-lib-rsa_ameth.obj
 0001:000dd100       _ossl_crypto_thread_native_spawn 004de100 f   libcrypto:libcrypto-lib-thread_win.obj
 0001:000dd1c0       _ossl_crypto_thread_native_perform_join 004de1c0 f   libcrypto:libcrypto-lib-thread_win.obj
 0001:000dd210       _ossl_crypto_mutex_new     004de210 f   libcrypto:libcrypto-lib-thread_win.obj
 0001:000dd240       _ossl_crypto_mutex_lock    004de240 f   libcrypto:libcrypto-lib-thread_win.obj
 0001:000dd250       _ossl_crypto_mutex_unlock  004de250 f   libcrypto:libcrypto-lib-thread_win.obj
 0001:000dd260       _ossl_crypto_mutex_free    004de260 f   libcrypto:libcrypto-lib-thread_win.obj
 0001:000dd2a0       _ossl_crypto_condvar_new   004de2a0 f   libcrypto:libcrypto-lib-thread_win.obj
 0001:000dd360       _ossl_crypto_condvar_free  004de360 f   libcrypto:libcrypto-lib-thread_win.obj
 0001:000dd3b0       _ossl_crypto_condvar_wait_timeout 004de3b0 f   libcrypto:libcrypto-lib-thread_win.obj
 0001:000dd620       _ossl_crypto_condvar_wait  004de620 f   libcrypto:libcrypto-lib-thread_win.obj
 0001:000dd640       _ossl_crypto_condvar_broadcast 004de640 f   libcrypto:libcrypto-lib-thread_win.obj
 0001:000dd6a0       _ossl_crypto_condvar_signal 004de6a0 f   libcrypto:libcrypto-lib-thread_win.obj
 0001:000dd6f0       _ERR_print_errors_cb       004de6f0 f   libcrypto:libcrypto-lib-err_prn.obj
 0001:000dd860       _OSSL_DECODER_free         004de860 f   libcrypto:libcrypto-lib-decoder_meth.obj
 0001:000dd8b0       _ossl_decoder_from_algorithm 004de8b0 f   libcrypto:libcrypto-lib-decoder_meth.obj
 0001:000ddf60       _ossl_decoder_store_cache_flush 004def60 f   libcrypto:libcrypto-lib-decoder_meth.obj
 0001:000ddf90       _ossl_decoder_store_remove_all_provided 004def90 f   libcrypto:libcrypto-lib-decoder_meth.obj
 0001:000ddfc0       _OSSL_DECODER_get0_provider 004defc0 f   libcrypto:libcrypto-lib-decoder_meth.obj
 0001:000de000       _OSSL_DECODER_get0_properties 004df000 f   libcrypto:libcrypto-lib-decoder_meth.obj
 0001:000de040       _ossl_decoder_parsed_properties 004df040 f   libcrypto:libcrypto-lib-decoder_meth.obj
 0001:000de080       _ossl_decoder_get_number   004df080 f   libcrypto:libcrypto-lib-decoder_meth.obj
 0001:000de0c0       _OSSL_DECODER_is_a         004df0c0 f   libcrypto:libcrypto-lib-decoder_meth.obj
 0001:000de0c0       _OSSL_ENCODER_is_a         004df0c0 f   libcrypto:libcrypto-lib-decoder_meth.obj
 0001:000de100       _ossl_decoder_fast_is_a    004df100 f   libcrypto:libcrypto-lib-decoder_meth.obj
 0001:000de180       _OSSL_DECODER_do_all_provided 004df180 f   libcrypto:libcrypto-lib-decoder_meth.obj
 0001:000de200       _OSSL_DECODER_CTX_new      004df200 f   libcrypto:libcrypto-lib-decoder_meth.obj
 0001:000de220       _OSSL_DECODER_CTX_set_params 004df220 f   libcrypto:libcrypto-lib-decoder_meth.obj
 0001:000de2e0       _OSSL_DECODER_CTX_free     004df2e0 f   libcrypto:libcrypto-lib-decoder_meth.obj
 0001:000de340       _OSSL_DECODER_from_bio     004df340 f   libcrypto:libcrypto-lib-decoder_lib.obj
 0001:000de530       _OSSL_DECODER_from_data    004df530 f   libcrypto:libcrypto-lib-decoder_lib.obj
 0001:000de5f0       _OSSL_DECODER_CTX_set_selection 004df5f0 f   libcrypto:libcrypto-lib-decoder_lib.obj
 0001:000de670       _OSSL_DECODER_CTX_set_input_type 004df670 f   libcrypto:libcrypto-lib-decoder_lib.obj
 0001:000de6f0       _OSSL_DECODER_CTX_set_input_structure 004df6f0 f   libcrypto:libcrypto-lib-decoder_lib.obj
 0001:000de770       _ossl_decoder_instance_new_forprov 004df770 f   libcrypto:libcrypto-lib-decoder_lib.obj
 0001:000de860       _ossl_decoder_instance_new 004df860 f   libcrypto:libcrypto-lib-decoder_lib.obj
 0001:000dea20       _ossl_decoder_instance_free 004dfa20 f   libcrypto:libcrypto-lib-decoder_lib.obj
 0001:000dea70       _ossl_decoder_instance_dup 004dfa70 f   libcrypto:libcrypto-lib-decoder_lib.obj
 0001:000deb50       _ossl_decoder_ctx_set_harderr 004dfb50 f   libcrypto:libcrypto-lib-decoder_lib.obj
 0001:000deb60       _SCT_get_log_entry_type    004dfb60 f   libcrypto:libcrypto-lib-decoder_lib.obj
 0001:000deb60       _ossl_decoder_ctx_get_harderr 004dfb60 f   libcrypto:libcrypto-lib-decoder_lib.obj
 0001:000deb70       _ossl_decoder_ctx_add_decoder_inst 004dfb70 f   libcrypto:libcrypto-lib-decoder_lib.obj
 0001:000debf0       _OSSL_DECODER_CTX_add_extra 004dfbf0 f   libcrypto:libcrypto-lib-decoder_lib.obj
 0001:000df080       _OSSL_DECODER_CTX_get_num_decoders 004e0080 f   libcrypto:libcrypto-lib-decoder_lib.obj
 0001:000df080       _OSSL_ENCODER_CTX_get_num_encoders 004e0080 f   libcrypto:libcrypto-lib-decoder_lib.obj
 0001:000df0a0       _OSSL_DECODER_CTX_set_construct 004e00a0 f   libcrypto:libcrypto-lib-decoder_lib.obj
 0001:000df120       _OSSL_DECODER_CTX_set_construct_data 004e0120 f   libcrypto:libcrypto-lib-decoder_lib.obj
 0001:000df1a0       _OSSL_DECODER_CTX_set_cleanup 004e01a0 f   libcrypto:libcrypto-lib-decoder_lib.obj
 0001:000df220       _OSSL_DECODER_CTX_get_construct_data 004e0220 f   libcrypto:libcrypto-lib-decoder_lib.obj
 0001:000df240       _ossl_ffc_named_group_get_q 004e0240 f   libcrypto:libcrypto-lib-decoder_lib.obj
 0001:000df240       _OSSL_DECODER_CTX_get_cleanup 004e0240 f   libcrypto:libcrypto-lib-decoder_lib.obj
 0001:000df260       _ossl_prov_ctx_get0_handle 004e0260 f   libcrypto:libcrypto-lib-decoder_lib.obj
 0001:000df260       _X509_EXTENSION_get_object 004e0260 f   libcrypto:libcrypto-lib-decoder_lib.obj
 0001:000df260       _COMP_get_type             004e0260 f   libcrypto:libcrypto-lib-decoder_lib.obj
 0001:000df260       _ossl_ffc_named_group_get_name 004e0260 f   libcrypto:libcrypto-lib-decoder_lib.obj
 0001:000df260       _EVP_CIPHER_get_nid        004e0260 f   libcrypto:libcrypto-lib-decoder_lib.obj
 0001:000df260       _EVP_MD_CTX_get0_md        004e0260 f   libcrypto:libcrypto-lib-decoder_lib.obj
 0001:000df260       _X509_NAME_ENTRY_get_object 004e0260 f   libcrypto:libcrypto-lib-decoder_lib.obj
 0001:000df260       _OSSL_DECODER_INSTANCE_get_decoder 004e0260 f   libcrypto:libcrypto-lib-decoder_lib.obj
 0001:000df260       _OSSL_ENCODER_INSTANCE_get_encoder 004e0260 f   libcrypto:libcrypto-lib-decoder_lib.obj
 0001:000df260       _EVP_CIPHER_CTX_get0_cipher 004e0260 f   libcrypto:libcrypto-lib-decoder_lib.obj
 0001:000df270       _EVP_CIPHER_get_block_size 004e0270 f   libcrypto:libcrypto-lib-decoder_lib.obj
 0001:000df270       _OSSL_DECODER_INSTANCE_get_decoder_ctx 004e0270 f   libcrypto:libcrypto-lib-decoder_lib.obj
 0001:000df270       _COMP_get_name             004e0270 f   libcrypto:libcrypto-lib-decoder_lib.obj
 0001:000df270       _X509_NAME_ENTRY_get_data  004e0270 f   libcrypto:libcrypto-lib-decoder_lib.obj
 0001:000df270       _ossl_prov_ctx_get0_libctx 004e0270 f   libcrypto:libcrypto-lib-decoder_lib.obj
 0001:000df270       _ossl_ffc_named_group_get_uid 004e0270 f   libcrypto:libcrypto-lib-decoder_lib.obj
 0001:000df270       _OSSL_ENCODER_INSTANCE_get_encoder_ctx 004e0270 f   libcrypto:libcrypto-lib-decoder_lib.obj
 0001:000df290       _OSSL_ENCODER_INSTANCE_get_output_type 004e0290 f   libcrypto:libcrypto-lib-decoder_lib.obj
 0001:000df290       _OSSL_DECODER_INSTANCE_get_input_type 004e0290 f   libcrypto:libcrypto-lib-decoder_lib.obj
 0001:000df290       _ossl_prov_ctx_get0_core_bio_method 004e0290 f   libcrypto:libcrypto-lib-decoder_lib.obj
 0001:000df2b0       _OSSL_DECODER_INSTANCE_get_input_structure 004e02b0 f   libcrypto:libcrypto-lib-decoder_lib.obj
 0001:000df710       _OSSL_DECODER_CTX_set_pem_password_cb 004e0710 f   libcrypto:libcrypto-lib-decoder_pkey.obj
 0001:000df730       _OSSL_DECODER_CTX_set_passphrase_cb 004e0730 f   libcrypto:libcrypto-lib-decoder_pkey.obj
 0001:000df750       _ossl_decoder_cache_new    004e0750 f   libcrypto:libcrypto-lib-decoder_pkey.obj
 0001:000df990       _ossl_decoder_cache_free   004e0990 f   libcrypto:libcrypto-lib-decoder_pkey.obj
 0001:000dfa50       _ossl_decoder_cache_flush  004e0a50 f   libcrypto:libcrypto-lib-decoder_pkey.obj
 0001:000dfae0       _OSSL_DECODER_CTX_new_for_pkey 004e0ae0 f   libcrypto:libcrypto-lib-decoder_pkey.obj
 0001:000e08d0       _ASN1_item_print           004e18d0 f   libcrypto:libcrypto-lib-tasn_prn.obj
 0001:000e1350       _OSSL_ENCODER_up_ref       004e2350 f   libcrypto:libcrypto-lib-encoder_meth.obj
 0001:000e1350       _OSSL_DECODER_up_ref       004e2350 f   libcrypto:libcrypto-lib-encoder_meth.obj
 0001:000e1370       _OSSL_ENCODER_free         004e2370 f   libcrypto:libcrypto-lib-encoder_meth.obj
 0001:000e1aa0       _ossl_encoder_store_cache_flush 004e2aa0 f   libcrypto:libcrypto-lib-encoder_meth.obj
 0001:000e1ad0       _ossl_encoder_store_remove_all_provided 004e2ad0 f   libcrypto:libcrypto-lib-encoder_meth.obj
 0001:000e1b00       _OSSL_ENCODER_get0_provider 004e2b00 f   libcrypto:libcrypto-lib-encoder_meth.obj
 0001:000e1b40       _OSSL_ENCODER_get0_properties 004e2b40 f   libcrypto:libcrypto-lib-encoder_meth.obj
 0001:000e1b80       _ossl_encoder_parsed_properties 004e2b80 f   libcrypto:libcrypto-lib-encoder_meth.obj
 0001:000e1bc0       _OSSL_ENCODER_do_all_provided 004e2bc0 f   libcrypto:libcrypto-lib-encoder_meth.obj
 0001:000e1c60       _OSSL_ENCODER_CTX_new      004e2c60 f   libcrypto:libcrypto-lib-encoder_meth.obj
 0001:000e1c80       _OSSL_ENCODER_CTX_set_params 004e2c80 f   libcrypto:libcrypto-lib-encoder_meth.obj
 0001:000e1d40       _OSSL_ENCODER_CTX_free     004e2d40 f   libcrypto:libcrypto-lib-encoder_meth.obj
 0001:000e1da0       _OSSL_ENCODER_to_bio       004e2da0 f   libcrypto:libcrypto-lib-encoder_lib.obj
 0001:000e1e60       _OSSL_ENCODER_to_data      004e2e60 f   libcrypto:libcrypto-lib-encoder_lib.obj
 0001:000e1f70       _OSSL_ENCODER_CTX_set_selection 004e2f70 f   libcrypto:libcrypto-lib-encoder_lib.obj
 0001:000e2020       _OSSL_ENCODER_CTX_set_output_type 004e3020 f   libcrypto:libcrypto-lib-encoder_lib.obj
 0001:000e20a0       _OSSL_ENCODER_CTX_set_output_structure 004e30a0 f   libcrypto:libcrypto-lib-encoder_lib.obj
 0001:000e2120       _ossl_encoder_instance_free 004e3120 f   libcrypto:libcrypto-lib-encoder_lib.obj
 0001:000e2170       _OSSL_ENCODER_CTX_add_encoder 004e3170 f   libcrypto:libcrypto-lib-encoder_lib.obj
 0001:000e2490       _OSSL_ENCODER_CTX_add_extra 004e3490 f   libcrypto:libcrypto-lib-encoder_lib.obj
 0001:000e2510       _OSSL_ENCODER_CTX_set_construct 004e3510 f   libcrypto:libcrypto-lib-encoder_lib.obj
 0001:000e2590       _OSSL_ENCODER_CTX_set_construct_data 004e3590 f   libcrypto:libcrypto-lib-encoder_lib.obj
 0001:000e2610       _OSSL_ENCODER_CTX_set_cleanup 004e3610 f   libcrypto:libcrypto-lib-encoder_lib.obj
 0001:000e2a50       _ossl_bio_print_labeled_bignum 004e3a50 f   libcrypto:libcrypto-lib-encoder_lib.obj
 0001:000e2c60       _ossl_bio_print_labeled_buf 004e3c60 f   libcrypto:libcrypto-lib-encoder_lib.obj
 0001:000e2d10       _ossl_bio_print_ffc_params 004e3d10 f   libcrypto:libcrypto-lib-encoder_lib.obj
 0001:000e2e50       _OSSL_ENCODER_CTX_new_for_pkey 004e3e50 f   libcrypto:libcrypto-lib-encoder_pkey.obj
 0001:000e3530       _EVP_PKEY_set1_RSA         004e4530 f   libcrypto:libcrypto-lib-p_legacy.obj
 0001:000e3570       _evp_pkey_get0_RSA_int     004e4570 f   libcrypto:libcrypto-lib-p_legacy.obj
 0001:000e35c0       _EVP_PKEY_get0_RSA         004e45c0 f   libcrypto:libcrypto-lib-p_legacy.obj
 0001:000e35e0       _EVP_PKEY_get1_RSA         004e45e0 f   libcrypto:libcrypto-lib-p_legacy.obj
 0001:000e3610       _evp_pkey_get0_EC_KEY_int  004e4610 f   libcrypto:libcrypto-lib-p_legacy.obj
 0001:000e3660       _EVP_PKEY_get0_EC_KEY      004e4660 f   libcrypto:libcrypto-lib-p_legacy.obj
 0001:000e3680       _EVP_PKEY_get1_EC_KEY      004e4680 f   libcrypto:libcrypto-lib-p_legacy.obj
 0001:000e36b0       _DH_new                    004e46b0 f   libcrypto:libcrypto-lib-dh_lib.obj
 0001:000e36c0       _ossl_dh_new_ex            004e46c0 f   libcrypto:libcrypto-lib-dh_lib.obj
 0001:000e37d0       _DH_free                   004e47d0 f   libcrypto:libcrypto-lib-dh_lib.obj
 0001:000e3850       _RSA_up_ref                004e4850 f   libcrypto:libcrypto-lib-dh_lib.obj
 0001:000e3850       _DH_up_ref                 004e4850 f   libcrypto:libcrypto-lib-dh_lib.obj
 0001:000e3850       _ossl_ecx_key_up_ref       004e4850 f   libcrypto:libcrypto-lib-dh_lib.obj
 0001:000e3870       _ossl_dh_get0_libctx       004e4870 f   libcrypto:libcrypto-lib-dh_lib.obj
 0001:000e3880       _ossl_dh_set0_libctx       004e4880 f   libcrypto:libcrypto-lib-dh_lib.obj
 0001:000e3890       _DH_size                   004e4890 f   libcrypto:libcrypto-lib-dh_lib.obj
 0001:000e38c0       _DH_security_bits          004e48c0 f   libcrypto:libcrypto-lib-dh_lib.obj
 0001:000e3910       _DH_set0_pqg               004e4910 f   libcrypto:libcrypto-lib-dh_lib.obj
 0001:000e3960       _DH_get_length             004e4960 f   libcrypto:libcrypto-lib-dh_lib.obj
 0001:000e3960       _DSA_get0_pub_key          004e4960 f   libcrypto:libcrypto-lib-dh_lib.obj
 0001:000e3960       _EVP_PKEY_CTX_get0_pkey    004e4960 f   libcrypto:libcrypto-lib-dh_lib.obj
 0001:000e3970       _DH_set_length             004e4970 f   libcrypto:libcrypto-lib-dh_lib.obj
 0001:000e3990       _DH_get0_key               004e4990 f   libcrypto:libcrypto-lib-dh_lib.obj
 0001:000e39b0       _DH_set0_key               004e49b0 f   libcrypto:libcrypto-lib-dh_lib.obj
 0001:000e3a00       _DH_get0_priv_key          004e4a00 f   libcrypto:libcrypto-lib-dh_lib.obj
 0001:000e3a10       _DH_get0_pub_key           004e4a10 f   libcrypto:libcrypto-lib-dh_lib.obj
 0001:000e3a10       _RSA_get0_pss_params       004e4a10 f   libcrypto:libcrypto-lib-dh_lib.obj
 0001:000e3a10       _DSA_get0_priv_key         004e4a10 f   libcrypto:libcrypto-lib-dh_lib.obj
 0001:000e3a20       _DH_clear_flags            004e4a20 f   libcrypto:libcrypto-lib-dh_lib.obj
 0001:000e3a30       _DH_test_flags             004e4a30 f   libcrypto:libcrypto-lib-dh_lib.obj
 0001:000e3a40       _DH_set_flags              004e4a40 f   libcrypto:libcrypto-lib-dh_lib.obj
 0001:000e3a50       _ossl_dh_get0_params       004e4a50 f   libcrypto:libcrypto-lib-dh_lib.obj
 0001:000e3a50       _ossl_quic_reactor_get_poll_w 004e4a50 f   libcrypto:libcrypto-lib-dh_lib.obj
 0001:000e3a50       _ossl_dsa_get0_params      004e4a50 f   libcrypto:libcrypto-lib-dh_lib.obj
 0001:000e3a60       _ossl_ecx_key_new          004e4a60 f   libcrypto:libcrypto-lib-ecx_key.obj
 0001:000e3b20       _ossl_ecx_key_free         004e4b20 f   libcrypto:libcrypto-lib-ecx_key.obj
 0001:000e3b80       _ossl_ecx_key_allocate_privkey 004e4b80 f   libcrypto:libcrypto-lib-ecx_key.obj
 0001:000e3ba0       _ossl_ecx_compute_key      004e4ba0 f   libcrypto:libcrypto-lib-ecx_key.obj
 0001:000e3cf0       _ossl_punycode_decode      004e4cf0 f   libcrypto:libcrypto-lib-punycode.obj
 0001:000e3fc0       _ossl_a2ulabel             004e4fc0 f   libcrypto:libcrypto-lib-punycode.obj
 0001:000e4200       _OSSL_parse_url            004e5200 f   libcrypto:libcrypto-lib-http_lib.obj
 0001:000e4690       _ossl_policy_data_free     004e5690 f   libcrypto:libcrypto-lib-pcy_data.obj
 0001:000e46e0       _ossl_policy_data_new      004e56e0 f   libcrypto:libcrypto-lib-pcy_data.obj
 0001:000e47d0       _ossl_policy_cache_set_mapping 004e57d0 f   libcrypto:libcrypto-lib-pcy_map.obj
 0001:000e4910       _ossl_time_now             004e5910 f   libcrypto:libcrypto-lib-time.obj
 0001:000e4960       _EVP_get_pw_prompt         004e5960 f   libcrypto:libcrypto-lib-evp_key.obj
 0001:000e4970       _EVP_read_pw_string_min    004e5970 f   libcrypto:libcrypto-lib-evp_key.obj
 0001:000e4a60       _EVP_BytesToKey            004e5a60 f   libcrypto:libcrypto-lib-evp_key.obj
 0001:000e4c80       _EVP_ENCODE_CTX_new        004e5c80 f   libcrypto:libcrypto-lib-encode.obj
 0001:000e4ca0       _EVP_ENCODE_CTX_free       004e5ca0 f   libcrypto:libcrypto-lib-encode.obj
 0001:000e4cc0       _evp_encode_ctx_set_flags  004e5cc0 f   libcrypto:libcrypto-lib-encode.obj
 0001:000e4cd0       _EVP_DecodeInit            004e5cd0 f   libcrypto:libcrypto-lib-encode.obj
 0001:000e4cd0       _EVP_EncodeInit            004e5cd0 f   libcrypto:libcrypto-lib-encode.obj
 0001:000e4cf0       _EVP_EncodeUpdate          004e5cf0 f   libcrypto:libcrypto-lib-encode.obj
 0001:000e4e50       _EVP_EncodeFinal           004e5e50 f   libcrypto:libcrypto-lib-encode.obj
 0001:000e4ec0       _EVP_DecodeUpdate          004e5ec0 f   libcrypto:libcrypto-lib-encode.obj
 0001:000e5320       _EVP_DecodeFinal           004e6320 f   libcrypto:libcrypto-lib-encode.obj
 0001:000e5370       _BIO_dump_cb               004e6370 f   libcrypto:libcrypto-lib-bio_dump.obj
 0001:000e5390       _BIO_dump_indent_cb        004e6390 f   libcrypto:libcrypto-lib-bio_dump.obj
 0001:000e55b0       _BIO_dump                  004e65b0 f   libcrypto:libcrypto-lib-bio_dump.obj
 0001:000e5600       _BIO_dump_indent           004e6600 f   libcrypto:libcrypto-lib-bio_dump.obj
 0001:000e5630       _BIO_hex_string            004e6630 f   libcrypto:libcrypto-lib-bio_dump.obj
 0001:000e56f0       _BN_mod_mul_montgomery     004e66f0 f   libcrypto:libcrypto-lib-bn_mont.obj
 0001:000e5720       _bn_mul_mont_fixed_top     004e6720 f   libcrypto:libcrypto-lib-bn_mont.obj
 0001:000e59b0       _BN_from_montgomery        004e69b0 f   libcrypto:libcrypto-lib-bn_mont.obj
 0001:000e59e0       _bn_from_mont_fixed_top    004e69e0 f   libcrypto:libcrypto-lib-bn_mont.obj
 0001:000e5a40       _bn_to_mont_fixed_top      004e6a40 f   libcrypto:libcrypto-lib-bn_mont.obj
 0001:000e5a60       _BN_MONT_CTX_new           004e6a60 f   libcrypto:libcrypto-lib-bn_mont.obj
 0001:000e5aa0       _BN_MONT_CTX_init          004e6aa0 f   libcrypto:libcrypto-lib-bn_mont.obj
 0001:000e5ae0       _BN_MONT_CTX_free          004e6ae0 f   libcrypto:libcrypto-lib-bn_mont.obj
 0001:000e5b30       _BN_MONT_CTX_set           004e6b30 f   libcrypto:libcrypto-lib-bn_mont.obj
 0001:000e5db0       _BN_MONT_CTX_copy          004e6db0 f   libcrypto:libcrypto-lib-bn_mont.obj
 0001:000e5e20       _BN_MONT_CTX_set_locked    004e6e20 f   libcrypto:libcrypto-lib-bn_mont.obj
 0001:000e5ee0       _ossl_bn_mont_ctx_set      004e6ee0 f   libcrypto:libcrypto-lib-bn_mont.obj
 0001:000e5f40       _bn_mul_add_words          004e6f40     libcrypto:libcrypto-lib-bn-586.obj
 0001:000e6230       _bn_mul_words              004e7230     libcrypto:libcrypto-lib-bn-586.obj
 0001:000e63f0       _bn_sqr_words              004e73f0     libcrypto:libcrypto-lib-bn-586.obj
 0001:000e6540       _bn_div_words              004e7540     libcrypto:libcrypto-lib-bn-586.obj
 0001:000e6550       _bn_add_words              004e7550     libcrypto:libcrypto-lib-bn-586.obj
 0001:000e6710       _bn_sub_words              004e7710     libcrypto:libcrypto-lib-bn-586.obj
 0001:000e68d0       _bn_sub_part_words         004e78d0     libcrypto:libcrypto-lib-bn-586.obj
 0001:000e6e80       _BIO_f_prefix              004e7e80 f   libcrypto:libcrypto-lib-bf_prefix.obj
 0001:000e7280       _openssl_fopen             004e8280 f   libcrypto:libcrypto-lib-o_fopen.obj
 0001:000e73b0       _evp_keymgmt_fetch_from_prov 004e83b0 f   libcrypto:libcrypto-lib-keymgmt_meth.obj
 0001:000e79d0       _EVP_KEYMGMT_fetch         004e89d0 f   libcrypto:libcrypto-lib-keymgmt_meth.obj
 0001:000e7a00       _EVP_KEYMGMT_up_ref        004e8a00 f   libcrypto:libcrypto-lib-keymgmt_meth.obj
 0001:000e7a20       _EVP_KEYMGMT_free          004e8a20 f   libcrypto:libcrypto-lib-keymgmt_meth.obj
 0001:000e7a70       _EVP_KEYMGMT_is_a          004e8a70 f   libcrypto:libcrypto-lib-keymgmt_meth.obj
 0001:000e7aa0       _EVP_KEYMGMT_do_all_provided 004e8aa0 f   libcrypto:libcrypto-lib-keymgmt_meth.obj
 0001:000e7ad0       _EVP_KEYMGMT_names_do_all  004e8ad0 f   libcrypto:libcrypto-lib-keymgmt_meth.obj
 0001:000e7b00       _evp_keymgmt_newdata       004e8b00 f   libcrypto:libcrypto-lib-keymgmt_meth.obj
 0001:000e7b40       _evp_keymgmt_freedata      004e8b40 f   libcrypto:libcrypto-lib-keymgmt_meth.obj
 0001:000e7b60       _evp_keymgmt_gen_init      004e8b60 f   libcrypto:libcrypto-lib-keymgmt_meth.obj
 0001:000e7ba0       _evp_keymgmt_gen_set_template 004e8ba0 f   libcrypto:libcrypto-lib-keymgmt_meth.obj
 0001:000e7bd0       _evp_keymgmt_gen_set_params 004e8bd0 f   libcrypto:libcrypto-lib-keymgmt_meth.obj
 0001:000e7bf0       _evp_keymgmt_gen_get_params 004e8bf0 f   libcrypto:libcrypto-lib-keymgmt_meth.obj
 0001:000e7c10       _evp_keymgmt_gen           004e8c10 f   libcrypto:libcrypto-lib-keymgmt_meth.obj
 0001:000e7cd0       _evp_keymgmt_gen_cleanup   004e8cd0 f   libcrypto:libcrypto-lib-keymgmt_meth.obj
 0001:000e7cf0       _evp_keymgmt_has_load      004e8cf0 f   libcrypto:libcrypto-lib-keymgmt_meth.obj
 0001:000e7d10       _evp_keymgmt_load          004e8d10 f   libcrypto:libcrypto-lib-keymgmt_meth.obj
 0001:000e7d40       _evp_keymgmt_get_params    004e8d40 f   libcrypto:libcrypto-lib-keymgmt_meth.obj
 0001:000e7d70       _evp_keymgmt_set_params    004e8d70 f   libcrypto:libcrypto-lib-keymgmt_meth.obj
 0001:000e7da0       _evp_keymgmt_has           004e8da0 f   libcrypto:libcrypto-lib-keymgmt_meth.obj
 0001:000e7dc0       _evp_keymgmt_validate      004e8dc0 f   libcrypto:libcrypto-lib-keymgmt_meth.obj
 0001:000e7df0       _evp_keymgmt_match         004e8df0 f   libcrypto:libcrypto-lib-keymgmt_meth.obj
 0001:000e7e20       _evp_keymgmt_import        004e8e20 f   libcrypto:libcrypto-lib-keymgmt_meth.obj
 0001:000e7e50       _evp_keymgmt_export        004e8e50 f   libcrypto:libcrypto-lib-keymgmt_meth.obj
 0001:000e7e80       _evp_keymgmt_dup           004e8e80 f   libcrypto:libcrypto-lib-keymgmt_meth.obj
 0001:000e7eb0       _evp_keymgmt_util_try_import 004e8eb0 f   libcrypto:libcrypto-lib-keymgmt_lib.obj
 0001:000e7f60       _evp_keymgmt_util_assign_pkey 004e8f60 f   libcrypto:libcrypto-lib-keymgmt_lib.obj
 0001:000e7fd0       _evp_keymgmt_util_make_pkey 004e8fd0 f   libcrypto:libcrypto-lib-keymgmt_lib.obj
 0001:000e8020       _evp_keymgmt_util_export   004e9020 f   libcrypto:libcrypto-lib-keymgmt_lib.obj
 0001:000e8050       _evp_keymgmt_util_export_to_provider 004e9050 f   libcrypto:libcrypto-lib-keymgmt_lib.obj
 0001:000e8240       _evp_keymgmt_util_clear_operation_cache 004e9240 f   libcrypto:libcrypto-lib-keymgmt_lib.obj
 0001:000e82c0       _evp_keymgmt_util_find_operation_cache 004e92c0 f   libcrypto:libcrypto-lib-keymgmt_lib.obj
 0001:000e8330       _evp_keymgmt_util_cache_keydata 004e9330 f   libcrypto:libcrypto-lib-keymgmt_lib.obj
 0001:000e8400       _evp_keymgmt_util_cache_keyinfo 004e9400 f   libcrypto:libcrypto-lib-keymgmt_lib.obj
 0001:000e8500       _evp_keymgmt_util_fromdata 004e9500 f   libcrypto:libcrypto-lib-keymgmt_lib.obj
 0001:000e8560       _evp_keymgmt_util_has      004e9560 f   libcrypto:libcrypto-lib-keymgmt_lib.obj
 0001:000e8590       _evp_keymgmt_util_match    004e9590 f   libcrypto:libcrypto-lib-keymgmt_lib.obj
 0001:000e86f0       _evp_keymgmt_util_copy     004e96f0 f   libcrypto:libcrypto-lib-keymgmt_lib.obj
 0001:000e8820       _evp_keymgmt_util_gen      004e9820 f   libcrypto:libcrypto-lib-keymgmt_lib.obj
 0001:000e8870       _evp_keymgmt_util_get_deflt_digest_name 004e9870 f   libcrypto:libcrypto-lib-keymgmt_lib.obj
 0001:000e89a0       _evp_keymgmt_util_query_operation_name 004e99a0 f   libcrypto:libcrypto-lib-keymgmt_lib.obj
 0001:000e89d0       _ossl_ec_group_new_ex      004e99d0 f   libcrypto:libcrypto-lib-ec_lib.obj
 0001:000e8af0       _EC_pre_comp_free          004e9af0 f   libcrypto:libcrypto-lib-ec_lib.obj
 0001:000e8b30       _EC_GROUP_free             004e9b30 f   libcrypto:libcrypto-lib-ec_lib.obj
 0001:000e8bb0       _EC_GROUP_copy             004e9bb0 f   libcrypto:libcrypto-lib-ec_lib.obj
 0001:000e8e10       _EC_GROUP_dup              004e9e10 f   libcrypto:libcrypto-lib-ec_lib.obj
 0001:000e8e70       _EC_GROUP_set_generator    004e9e70 f   libcrypto:libcrypto-lib-ec_lib.obj
 0001:000e91e0       _EC_GROUP_get_order        004ea1e0 f   libcrypto:libcrypto-lib-ec_lib.obj
 0001:000e9220       _EC_GROUP_order_bits       004ea220 f   libcrypto:libcrypto-lib-ec_lib.obj
 0001:000e9240       _EC_GROUP_security_bits    004ea240 f   libcrypto:libcrypto-lib-ec_lib.obj
 0001:000e92a0       _EC_GROUP_get_cofactor     004ea2a0 f   libcrypto:libcrypto-lib-ec_lib.obj
 0001:000e92e0       _EC_GROUP_set_curve_name   004ea2e0 f   libcrypto:libcrypto-lib-ec_lib.obj
 0001:000e9300       _EC_GROUP_get_field_type   004ea300 f   libcrypto:libcrypto-lib-ec_lib.obj
 0001:000e9310       _EC_GROUP_set_seed         004ea310 f   libcrypto:libcrypto-lib-ec_lib.obj
 0001:000e9390       _EC_GROUP_set_curve        004ea390 f   libcrypto:libcrypto-lib-ec_lib.obj
 0001:000e93f0       _EC_GROUP_get_curve        004ea3f0 f   libcrypto:libcrypto-lib-ec_lib.obj
 0001:000e9450       _EC_GROUP_get_degree       004ea450 f   libcrypto:libcrypto-lib-ec_lib.obj
 0001:000e94a0       _EC_GROUP_check_discriminant 004ea4a0 f   libcrypto:libcrypto-lib-ec_lib.obj
 0001:000e94f0       _EC_GROUP_cmp              004ea4f0 f   libcrypto:libcrypto-lib-ec_lib.obj
 0001:000e9730       _EC_POINT_new              004ea730 f   libcrypto:libcrypto-lib-ec_lib.obj
 0001:000e9800       _EC_POINT_free             004ea800 f   libcrypto:libcrypto-lib-ec_lib.obj
 0001:000e9830       _EC_POINT_clear_free       004ea830 f   libcrypto:libcrypto-lib-ec_lib.obj
 0001:000e9870       _EC_POINT_copy             004ea870 f   libcrypto:libcrypto-lib-ec_lib.obj
 0001:000e9910       _EC_POINT_dup              004ea910 f   libcrypto:libcrypto-lib-ec_lib.obj
 0001:000e9960       _EC_POINT_set_to_infinity  004ea960 f   libcrypto:libcrypto-lib-ec_lib.obj
 0001:000e99e0       _EC_POINT_set_Jprojective_coordinates_GFp 004ea9e0 f   libcrypto:libcrypto-lib-ec_lib.obj
 0001:000e9a90       _EC_POINT_set_affine_coordinates 004eaa90 f   libcrypto:libcrypto-lib-ec_lib.obj
 0001:000e9b80       _EC_POINT_get_affine_coordinates 004eab80 f   libcrypto:libcrypto-lib-ec_lib.obj
 0001:000e9d70       _EC_POINT_add              004ead70 f   libcrypto:libcrypto-lib-ec_lib.obj
 0001:000e9e40       _EC_POINT_dbl              004eae40 f   libcrypto:libcrypto-lib-ec_lib.obj
 0001:000e9f00       _EC_POINT_invert           004eaf00 f   libcrypto:libcrypto-lib-ec_lib.obj
 0001:000e9fa0       _EC_POINT_is_at_infinity   004eafa0 f   libcrypto:libcrypto-lib-ec_lib.obj
 0001:000ea040       _EC_POINT_is_on_curve      004eb040 f   libcrypto:libcrypto-lib-ec_lib.obj
 0001:000ea0e0       _EC_POINT_cmp              004eb0e0 f   libcrypto:libcrypto-lib-ec_lib.obj
 0001:000ea1a0       _EC_POINT_mul              004eb1a0 f   libcrypto:libcrypto-lib-ec_lib.obj
 0001:000ea380       _ossl_ec_group_simple_order_bits 004eb380 f   libcrypto:libcrypto-lib-ec_lib.obj
 0001:000ea3a0       _ossl_ec_group_do_inverse_ord 004eb3a0 f   libcrypto:libcrypto-lib-ec_lib.obj
 0001:000ea4a0       _ossl_ec_point_blind_coordinates 004eb4a0 f   libcrypto:libcrypto-lib-ec_lib.obj
 0001:000ea4d0       _EC_GROUP_get_basis_type   004eb4d0 f   libcrypto:libcrypto-lib-ec_lib.obj
 0001:000ea520       _EC_GROUP_get_trinomial_basis 004eb520 f   libcrypto:libcrypto-lib-ec_lib.obj
 0001:000ea590       _EC_GROUP_get_pentanomial_basis 004eb590 f   libcrypto:libcrypto-lib-ec_lib.obj
 0001:000ea630       _ossl_ec_group_set_params  004eb630 f   libcrypto:libcrypto-lib-ec_lib.obj
 0001:000ea760       _EC_GROUP_new_from_params  004eb760 f   libcrypto:libcrypto-lib-ec_lib.obj
 0001:000eafd0       _ossl_ec_encoding_name2id  004ebfd0 f   libcrypto:libcrypto-lib-ec_backend.obj
 0001:000eb020       _ossl_ec_check_group_type_id2name 004ec020 f   libcrypto:libcrypto-lib-ec_backend.obj
 0001:000eb050       _ossl_ec_set_check_group_type_from_name 004ec050 f   libcrypto:libcrypto-lib-ec_backend.obj
 0001:000eb0e0       _ossl_ec_pt_format_name2id 004ec0e0 f   libcrypto:libcrypto-lib-ec_backend.obj
 0001:000eb130       _ossl_ec_pt_format_id2name 004ec130 f   libcrypto:libcrypto-lib-ec_backend.obj
 0001:000eb160       _ossl_ec_group_todata      004ec160 f   libcrypto:libcrypto-lib-ec_backend.obj
 0001:000eb740       _ossl_ec_set_ecdh_cofactor_mode 004ec740 f   libcrypto:libcrypto-lib-ec_backend.obj
 0001:000eb7c0       _ossl_ec_key_fromdata      004ec7c0 f   libcrypto:libcrypto-lib-ec_backend.obj
 0001:000eb9c0       _ossl_ec_group_fromdata    004ec9c0 f   libcrypto:libcrypto-lib-ec_backend.obj
 0001:000eba20       _ossl_ec_key_otherparams_fromdata 004eca20 f   libcrypto:libcrypto-lib-ec_backend.obj
 0001:000ebc30       _ossl_ec_key_is_foreign    004ecc30 f   libcrypto:libcrypto-lib-ec_backend.obj
 0001:000ebc60       _ossl_ec_key_dup           004ecc60 f   libcrypto:libcrypto-lib-ec_backend.obj
 0001:000ebe00       _ossl_ec_encoding_param2id 004ece00 f   libcrypto:libcrypto-lib-ec_backend.obj
 0001:000ebe70       _ossl_ec_pt_format_param2id 004ece70 f   libcrypto:libcrypto-lib-ec_backend.obj
 0001:000ebee0       _ossl_x509_algor_is_sm2    004ecee0 f   libcrypto:libcrypto-lib-ec_backend.obj
 0001:000ebf90       _ossl_ec_key_param_from_x509_algor 004ecf90 f   libcrypto:libcrypto-lib-ec_backend.obj
 0001:000ec0d0       _ossl_ec_key_from_pkcs8    004ed0d0 f   libcrypto:libcrypto-lib-ec_backend.obj
 0001:000ec190       _ossl_dh_params_fromdata   004ed190 f   libcrypto:libcrypto-lib-dh_backend.obj
 0001:000ec220       _ossl_dh_key_fromdata      004ed220 f   libcrypto:libcrypto-lib-dh_backend.obj
 0001:000ec2e0       _ossl_dh_params_todata     004ed2e0 f   libcrypto:libcrypto-lib-dh_backend.obj
 0001:000ec350       _ossl_dh_key_todata        004ed350 f   libcrypto:libcrypto-lib-dh_backend.obj
 0001:000ec3f0       _ossl_dh_is_foreign        004ed3f0 f   libcrypto:libcrypto-lib-dh_backend.obj
 0001:000ec420       _ossl_dh_dup               004ed420 f   libcrypto:libcrypto-lib-dh_backend.obj
 0001:000ec500       _ossl_dh_key_from_pkcs8    004ed500 f   libcrypto:libcrypto-lib-dh_backend.obj
 0001:000ec670       _ossl_dsa_key_fromdata     004ed670 f   libcrypto:libcrypto-lib-dsa_backend.obj
 0001:000ec730       _ossl_dsa_is_foreign       004ed730 f   libcrypto:libcrypto-lib-dsa_backend.obj
 0001:000ec760       _ossl_dsa_dup              004ed760 f   libcrypto:libcrypto-lib-dsa_backend.obj
 0001:000ec830       _ossl_dsa_key_from_pkcs8   004ed830 f   libcrypto:libcrypto-lib-dsa_backend.obj
 0001:000eca50       _ossl_dh_new_by_nid_ex     004eda50 f   libcrypto:libcrypto-lib-dh_group_params.obj
 0001:000ecae0       _ossl_dh_cache_named_group 004edae0 f   libcrypto:libcrypto-lib-dh_group_params.obj
 0001:000ecb50       _ossl_dh_is_named_safe_prime_group 004edb50 f   libcrypto:libcrypto-lib-dh_group_params.obj
 0001:000ecb70       _DH_get_nid                004edb70 f   libcrypto:libcrypto-lib-dh_group_params.obj
 0001:000ecb90       _EVP_SIGNATURE_free        004edb90 f   libcrypto:libcrypto-lib-signature.obj
 0001:000ecbe0       _EVP_SIGNATURE_up_ref      004edbe0 f   libcrypto:libcrypto-lib-signature.obj
 0001:000ecbe0       _EVP_KEM_up_ref            004edbe0 f   libcrypto:libcrypto-lib-signature.obj
 0001:000ecbe0       _EVP_KEYEXCH_up_ref        004edbe0 f   libcrypto:libcrypto-lib-signature.obj
 0001:000ecbe0       _EVP_ASYM_CIPHER_up_ref    004edbe0 f   libcrypto:libcrypto-lib-signature.obj
 0001:000ecbe0       _EVP_SKEYMGMT_up_ref       004edbe0 f   libcrypto:libcrypto-lib-signature.obj
 0001:000ecc00       _EVP_SIGNATURE_fetch       004edc00 f   libcrypto:libcrypto-lib-signature.obj
 0001:000ed560       _evp_signature_fetch_from_prov 004ee560 f   libcrypto:libcrypto-lib-signature.obj
 0001:000ed590       _EVP_SIGNATURE_is_a        004ee590 f   libcrypto:libcrypto-lib-signature.obj
 0001:000ed5c0       _EVP_PKEY_sign_init        004ee5c0 f   libcrypto:libcrypto-lib-signature.obj
 0001:000edb90       _EVP_PKEY_sign             004eeb90 f   libcrypto:libcrypto-lib-signature.obj
 0001:000edd20       _ossl_stored_namemap_new   004eed20 f   libcrypto:libcrypto-lib-core_namemap.obj
 0001:000edd40       _ossl_stored_namemap_free  004eed40 f   libcrypto:libcrypto-lib-core_namemap.obj
 0001:000edd60       _ossl_namemap_empty        004eed60 f   libcrypto:libcrypto-lib-core_namemap.obj
 0001:000edd80       _ossl_namemap_doall_names  004eed80 f   libcrypto:libcrypto-lib-core_namemap.obj
 0001:000ede30       _ossl_namemap_name2num     004eee30 f   libcrypto:libcrypto-lib-core_namemap.obj
 0001:000ede60       _ossl_namemap_name2num_n   004eee60 f   libcrypto:libcrypto-lib-core_namemap.obj
 0001:000edf40       _ossl_namemap_num2name     004eef40 f   libcrypto:libcrypto-lib-core_namemap.obj
 0001:000edfb0       _ossl_namemap_add_name     004eefb0 f   libcrypto:libcrypto-lib-core_namemap.obj
 0001:000ee250       _ossl_namemap_add_names    004ef250 f   libcrypto:libcrypto-lib-core_namemap.obj
 0001:000ee450       _ossl_namemap_stored       004ef450 f   libcrypto:libcrypto-lib-core_namemap.obj
 0001:000ee720       _ossl_namemap_new          004ef720 f   libcrypto:libcrypto-lib-core_namemap.obj
 0001:000ee7d0       _ossl_namemap_free         004ef7d0 f   libcrypto:libcrypto-lib-core_namemap.obj
 0001:000ee850       _X509at_get_attr_by_NID    004ef850 f   libcrypto:libcrypto-lib-x509_att.obj
 0001:000ee850       _X509v3_get_ext_by_NID     004ef850 f   libcrypto:libcrypto-lib-x509_att.obj
 0001:000ee880       _X509at_get_attr           004ef880 f   libcrypto:libcrypto-lib-x509_att.obj
 0001:000ee910       _ossl_x509at_add1_attr     004ef910 f   libcrypto:libcrypto-lib-x509_att.obj
 0001:000eea00       _X509at_add1_attr          004efa00 f   libcrypto:libcrypto-lib-x509_att.obj
 0001:000eeab0       _ossl_x509at_dup           004efab0 f   libcrypto:libcrypto-lib-x509_att.obj
 0001:000eeb10       _X509_ATTRIBUTE_count      004efb10 f   libcrypto:libcrypto-lib-x509_att.obj
 0001:000eeb30       _X509_ATTRIBUTE_get0_object 004efb30 f   libcrypto:libcrypto-lib-x509_att.obj
 0001:000eeb70       _X509_ATTRIBUTE_get0_type  004efb70 f   libcrypto:libcrypto-lib-x509_att.obj
 0001:000eebc0       _X509_ATTRIBUTE_it         004efbc0 f   libcrypto:libcrypto-lib-x_attrib.obj
 0001:000eebd0       _X509_ATTRIBUTE_new        004efbd0 f   libcrypto:libcrypto-lib-x_attrib.obj
 0001:000eebe0       _X509_ATTRIBUTE_free       004efbe0 f   libcrypto:libcrypto-lib-x_attrib.obj
 0001:000eec00       _X509_ATTRIBUTE_dup        004efc00 f   libcrypto:libcrypto-lib-x_attrib.obj
 0001:000eec20       _X509_ATTRIBUTE_create     004efc20 f   libcrypto:libcrypto-lib-x_attrib.obj
 0001:000eeca0       _ossl_print_attribute_value 004efca0 f   libcrypto:libcrypto-lib-x_attrib.obj
 0001:000f1d40       _evp_pkey_ctx_ctrl_to_param 004f2d40 f   libcrypto:libcrypto-lib-ctrl_params_translate.obj
 0001:000f2050       _evp_pkey_ctx_ctrl_str_to_param 004f3050 f   libcrypto:libcrypto-lib-ctrl_params_translate.obj
 0001:000f21b0       _evp_pkey_ctx_set_params_to_ctrl 004f31b0 f   libcrypto:libcrypto-lib-ctrl_params_translate.obj
 0001:000f2340       _evp_pkey_ctx_get_params_to_ctrl 004f3340 f   libcrypto:libcrypto-lib-ctrl_params_translate.obj
 0001:000f2370       _evp_pkey_get_params_to_ctrl 004f3370 f   libcrypto:libcrypto-lib-ctrl_params_translate.obj
 0001:000f2490       _EVP_PKEY_encrypt_init     004f3490 f   libcrypto:libcrypto-lib-asymcipher.obj
 0001:000f2800       _EVP_PKEY_encrypt          004f3800 f   libcrypto:libcrypto-lib-asymcipher.obj
 0001:000f2920       _EVP_PKEY_decrypt_init     004f3920 f   libcrypto:libcrypto-lib-asymcipher.obj
 0001:000f2940       _EVP_PKEY_decrypt          004f3940 f   libcrypto:libcrypto-lib-asymcipher.obj
 0001:000f2a60       _EVP_ASYM_CIPHER_free      004f3a60 f   libcrypto:libcrypto-lib-asymcipher.obj
 0001:000f2ab0       _EVP_ASYM_CIPHER_fetch     004f3ab0 f   libcrypto:libcrypto-lib-asymcipher.obj
 0001:000f2db0       _evp_asym_cipher_fetch_from_prov 004f3db0 f   libcrypto:libcrypto-lib-asymcipher.obj
 0001:000f2de0       _EVP_PKEY_auth_encapsulate_init 004f3de0 f   libcrypto:libcrypto-lib-kem.obj
 0001:000f3220       _EVP_PKEY_encapsulate_init 004f4220 f   libcrypto:libcrypto-lib-kem.obj
 0001:000f3240       _EVP_PKEY_encapsulate      004f4240 f   libcrypto:libcrypto-lib-kem.obj
 0001:000f32f0       _EVP_PKEY_decapsulate_init 004f42f0 f   libcrypto:libcrypto-lib-kem.obj
 0001:000f3310       _EVP_PKEY_auth_decapsulate_init 004f4310 f   libcrypto:libcrypto-lib-kem.obj
 0001:000f3340       _EVP_PKEY_decapsulate      004f4340 f   libcrypto:libcrypto-lib-kem.obj
 0001:000f3410       _EVP_KEM_free              004f4410 f   libcrypto:libcrypto-lib-kem.obj
 0001:000f3460       _EVP_KEM_fetch             004f4460 f   libcrypto:libcrypto-lib-kem.obj
 0001:000f37b0       _evp_kem_fetch_from_prov   004f47b0 f   libcrypto:libcrypto-lib-kem.obj
 0001:000f37e0       _EVP_KEYEXCH_free          004f47e0 f   libcrypto:libcrypto-lib-exchange.obj
 0001:000f3830       _EVP_KEYEXCH_fetch         004f4830 f   libcrypto:libcrypto-lib-exchange.obj
 0001:000f3b40       _evp_keyexch_fetch_from_prov 004f4b40 f   libcrypto:libcrypto-lib-exchange.obj
 0001:000f3b70       _EVP_PKEY_derive_init      004f4b70 f   libcrypto:libcrypto-lib-exchange.obj
 0001:000f3b90       _EVP_PKEY_derive_init_ex   004f4b90 f   libcrypto:libcrypto-lib-exchange.obj
 0001:000f3ee0       _EVP_PKEY_derive_set_peer_ex 004f4ee0 f   libcrypto:libcrypto-lib-exchange.obj
 0001:000f40f0       _EVP_PKEY_derive_set_peer  004f50f0 f   libcrypto:libcrypto-lib-exchange.obj
 0001:000f4110       _EVP_PKEY_derive           004f5110 f   libcrypto:libcrypto-lib-exchange.obj
 0001:000f4200       _ossl_policy_node_cmp_new  004f5200 f   libcrypto:libcrypto-lib-pcy_node.obj
 0001:000f4250       _ossl_policy_tree_find_sk  004f5250 f   libcrypto:libcrypto-lib-pcy_node.obj
 0001:000f4290       _ossl_policy_level_find_node 004f5290 f   libcrypto:libcrypto-lib-pcy_node.obj
 0001:000f4300       _ossl_policy_level_add_node 004f5300 f   libcrypto:libcrypto-lib-pcy_node.obj
 0001:000f44d0       _ossl_policy_node_free     004f54d0 f   libcrypto:libcrypto-lib-pcy_node.obj
 0001:000f44f0       _ossl_policy_node_match    004f54f0 f   libcrypto:libcrypto-lib-pcy_node.obj
 0001:000f4580       _X509_policy_tree_get0_user_policies 004f5580 f   libcrypto:libcrypto-lib-pcy_lib.obj
 0001:000f7a30       _ossl_load_builtin_compressions 004f8a30 f   libcrypto:libcrypto-lib-comp_methods.obj
 0001:000f7ac0       _ossl_free_compression_methods_int 004f8ac0 f   libcrypto:libcrypto-lib-comp_methods.obj
 0001:000f7b00       _ossl_child_prov_ctx_new   004f8b00 f   libcrypto:libcrypto-lib-provider_child.obj
 0001:000f7b20       _ossl_child_prov_ctx_free  004f8b20 f   libcrypto:libcrypto-lib-provider_child.obj
 0001:000f7b50       _ossl_provider_init_as_child 004f8b50 f   libcrypto:libcrypto-lib-provider_child.obj
 0001:000f7f00       _ossl_provider_deinit_child 004f8f00 f   libcrypto:libcrypto-lib-provider_child.obj
 0001:000f7f20       _ossl_provider_up_ref_parent 004f8f20 f   libcrypto:libcrypto-lib-provider_child.obj
 0001:000f7f70       _ossl_provider_free_parent 004f8f70 f   libcrypto:libcrypto-lib-provider_child.obj
 0001:000f7fd0       _ossl_get_avail_threads    004f8fd0 f   libcrypto:libcrypto-lib-internal.obj
 0001:000f8020       _ossl_crypto_thread_start  004f9020 f   libcrypto:libcrypto-lib-internal.obj
 0001:000f8110       _ossl_crypto_thread_join   004f9110 f   libcrypto:libcrypto-lib-internal.obj
 0001:000f8190       _ossl_crypto_thread_clean  004f9190 f   libcrypto:libcrypto-lib-internal.obj
 0001:000f81b0       _ossl_threads_ctx_new      004f91b0 f   libcrypto:libcrypto-lib-internal.obj
 0001:000f8200       _ossl_threads_ctx_free     004f9200 f   libcrypto:libcrypto-lib-internal.obj
 0001:000f8240       _ossl_self_test_set_callback_new 004f9240 f   libcrypto:libcrypto-lib-self_test_core.obj
 0001:000f8260       _ossl_self_test_set_callback_free 004f9260 f   libcrypto:libcrypto-lib-self_test_core.obj
 0001:000f82a0       _OSSL_SELF_TEST_get_callback 004f92a0 f   libcrypto:libcrypto-lib-self_test_core.obj
 0001:000f82e0       _OSSL_SELF_TEST_new        004f92e0 f   libcrypto:libcrypto-lib-self_test_core.obj
 0001:000f83e0       _OSSL_SELF_TEST_free       004f93e0 f   libcrypto:libcrypto-lib-self_test_core.obj
 0001:000f8400       _OSSL_SELF_TEST_onbegin    004f9400 f   libcrypto:libcrypto-lib-self_test_core.obj
 0001:000f8440       _OSSL_SELF_TEST_onend      004f9440 f   libcrypto:libcrypto-lib-self_test_core.obj
 0001:000f8490       _OSSL_SELF_TEST_oncorrupt_byte 004f9490 f   libcrypto:libcrypto-lib-self_test_core.obj
 0001:000f84e0       _ossl_indicator_set_callback_new 004f94e0 f   libcrypto:libcrypto-lib-indicator_core.obj
 0001:000f8500       _ossl_indicator_set_callback_free 004f9500 f   libcrypto:libcrypto-lib-indicator_core.obj
 0001:000f8540       _OSSL_INDICATOR_get_callback 004f9540 f   libcrypto:libcrypto-lib-indicator_core.obj
 0001:000f8570       _ossl_drbg_lock            004f9570 f   libcrypto:libdefault-lib-drbg.obj
 0001:000f8570       ?SPM_Dummy_unload@@YAHXZ   004f9570 f   libcrypto:libdefault-lib-drbg.obj
 0001:000f8570       _ossl_prov_is_running      004f9570 f   libcrypto:libdefault-lib-drbg.obj
 0001:000f8570       _async_init                004f9570 f   libcrypto:libdefault-lib-drbg.obj
 0001:000f8570       ?GetVersionRequestImpl@SPModule@@MAEHXZ 004f9570 f   libcrypto:libdefault-lib-drbg.obj
 0001:000f8580       _ossl_drbg_get_seed        004f9580 f   libcrypto:libdefault-lib-drbg.obj
 0001:000f8640       _ossl_drbg_clear_seed      004f9640 f   libcrypto:libdefault-lib-drbg.obj
 0001:000f8660       _ossl_prov_drbg_nonce_ctx_new 004f9660 f   libcrypto:libdefault-lib-drbg.obj
 0001:000f86b0       _ossl_prov_drbg_nonce_ctx_free 004f96b0 f   libcrypto:libdefault-lib-drbg.obj
 0001:000f86e0       _ossl_prov_drbg_instantiate 004f96e0 f   libcrypto:libdefault-lib-drbg.obj
 0001:000f8e20       _ossl_prov_drbg_uninstantiate 004f9e20 f   libcrypto:libdefault-lib-drbg.obj
 0001:000f8e40       _ossl_prov_drbg_reseed     004f9e40 f   libcrypto:libdefault-lib-drbg.obj
 0001:000f9220       _ossl_prov_drbg_generate   004fa220 f   libcrypto:libdefault-lib-drbg.obj
 0001:000f9530       _ossl_drbg_enable_locking  004fa530 f   libcrypto:libdefault-lib-drbg.obj
 0001:000f95d0       _ossl_rand_drbg_new        004fa5d0 f   libcrypto:libdefault-lib-drbg.obj
 0001:000f97a0       _ossl_rand_drbg_free       004fa7a0 f   libcrypto:libdefault-lib-drbg.obj
 0001:000f97d0       _ossl_drbg_get_ctx_params  004fa7d0 f   libcrypto:libdefault-lib-drbg.obj
 0001:000f9920       _ossl_drbg_get_ctx_params_no_lock 004fa920 f   libcrypto:libdefault-lib-drbg.obj
 0001:000f9990       _ossl_drbg_set_ctx_params  004fa990 f   libcrypto:libdefault-lib-drbg.obj
 0001:000f99e0       _ossl_drbg_verify_digest   004fa9e0 f   libcrypto:libdefault-lib-drbg.obj
 0001:000f9a30       _ossl_bio_core_globals_free 004faa30 f   libcrypto:libcrypto-lib-bss_core.obj
 0001:000f9a50       _ossl_bio_core_globals_new 004faa50 f   libcrypto:libcrypto-lib-bss_core.obj
 0001:000f9c40       _ossl_bio_init_core        004fac40 f   libcrypto:libcrypto-lib-bss_core.obj
 0001:000f9d10       _ossl_ctx_global_properties_free 004fad10 f   libcrypto:libcrypto-lib-property.obj
 0001:000f9d40       _ossl_ctx_global_properties_new 004fad40 f   libcrypto:libcrypto-lib-property.obj
 0001:000f9d60       _ossl_ctx_global_properties 004fad60 f   libcrypto:libcrypto-lib-property.obj
 0001:000f9d90       _ossl_global_properties_no_mirrored 004fad90 f   libcrypto:libcrypto-lib-property.obj
 0001:000f9dc0       _ossl_global_properties_stop_mirroring 004fadc0 f   libcrypto:libcrypto-lib-property.obj
 0001:000f9de0       _ossl_method_store_new     004fade0 f   libcrypto:libcrypto-lib-property.obj
 0001:000fa0e0       _ossl_method_store_free    004fb0e0 f   libcrypto:libcrypto-lib-property.obj
 0001:000fa120       _ossl_method_lock_store    004fb120 f   libcrypto:libcrypto-lib-property.obj
 0001:000fa140       _ossl_method_unlock_store  004fb140 f   libcrypto:libcrypto-lib-property.obj
 0001:000fa160       _ossl_method_store_add     004fb160 f   libcrypto:libcrypto-lib-property.obj
 0001:000fa430       _ossl_method_store_remove_all_provided 004fb430 f   libcrypto:libcrypto-lib-property.obj
 0001:000fa540       _ossl_method_store_do_all  004fb540 f   libcrypto:libcrypto-lib-property.obj
 0001:000fa730       _ossl_method_store_fetch   004fb730 f   libcrypto:libcrypto-lib-property.obj
 0001:000faa40       _ossl_method_store_cache_flush_all 004fba40 f   libcrypto:libcrypto-lib-property.obj
 0001:000faa90       _ossl_method_store_cache_get 004fba90 f   libcrypto:libcrypto-lib-property.obj
 0001:000faed0       _ossl_method_store_cache_set 004fbed0 f   libcrypto:libcrypto-lib-property.obj
 0001:000fb3d0       _ossl_property_defns_free  004fc3d0 f   libcrypto:libcrypto-lib-defn_cache.obj
 0001:000fb430       _ossl_property_defns_new   004fc430 f   libcrypto:libcrypto-lib-defn_cache.obj
 0001:000fb460       _ossl_prop_defn_get        004fc460 f   libcrypto:libcrypto-lib-defn_cache.obj
 0001:000fb4c0       _ossl_prop_defn_set        004fc4c0 f   libcrypto:libcrypto-lib-defn_cache.obj
 0001:000fb600       _ossl_property_string_data_free 004fc600 f   libcrypto:libcrypto-lib-property_string.obj
 0001:000fb6b0       _ossl_property_string_data_new 004fc6b0 f   libcrypto:libcrypto-lib-property_string.obj
 0001:000fb810       _ossl_property_name        004fc810 f   libcrypto:libcrypto-lib-property_string.obj
 0001:000fba80       _ossl_property_name_str    004fca80 f   libcrypto:libcrypto-lib-property_string.obj
 0001:000fbb30       _ossl_property_value       004fcb30 f   libcrypto:libcrypto-lib-property_string.obj
 0001:000fbb50       _ossl_property_value_str   004fcb50 f   libcrypto:libcrypto-lib-property_string.obj
 0001:000fbb70       _ossl_prov_conf_ctx_new    004fcb70 f   libcrypto:libcrypto-lib-provider_conf.obj
 0001:000fbbb0       _ossl_prov_conf_ctx_free   004fcbb0 f   libcrypto:libcrypto-lib-provider_conf.obj
 0001:000fbbf0       _ossl_provider_add_conf_module 004fcbf0 f   libcrypto:libcrypto-lib-provider_conf.obj
 0001:000fc880       _ossl_parse_property       004fd880 f   libcrypto:libcrypto-lib-property_parse.obj
 0001:000fd650       _ossl_parse_query          004fe650 f   libcrypto:libcrypto-lib-property_parse.obj
 0001:000fd8b0       _ossl_property_match_count 004fe8b0 f   libcrypto:libcrypto-lib-property_parse.obj
 0001:000fda10       _ossl_property_free        004fea10 f   libcrypto:libcrypto-lib-property_parse.obj
 0001:000fda30       _ossl_property_merge       004fea30 f   libcrypto:libcrypto-lib-property_parse.obj
 0001:000fdb50       _ossl_property_parse_init  004feb50 f   libcrypto:libcrypto-lib-property_parse.obj
 0001:000fdbc0       _ossl_property_list_to_string 004febc0 f   libcrypto:libcrypto-lib-property_parse.obj
 0001:000fdf70       _OPENSSL_load_builtin_modules 004fef70 f   libcrypto:libcrypto-lib-conf_mall.obj
 0001:000fdf90       _DSO_new                   004fef90 f   libcrypto:libcrypto-lib-dso_lib.obj
 0001:000fe040       _DSO_free                  004ff040 f   libcrypto:libcrypto-lib-dso_lib.obj
 0001:000fe130       _DSO_load                  004ff130 f   libcrypto:libcrypto-lib-dso_lib.obj
 0001:000fe2c0       _DSO_bind_func             004ff2c0 f   libcrypto:libcrypto-lib-dso_lib.obj
 0001:000fe370       _DSO_ctrl                  004ff370 f   libcrypto:libcrypto-lib-dso_lib.obj
 0001:000fe430       _DSO_get_filename          004ff430 f   libcrypto:libcrypto-lib-dso_lib.obj
 0001:000fe470       _DSO_set_filename          004ff470 f   libcrypto:libcrypto-lib-dso_lib.obj
 0001:000fe530       _DSO_merge                 004ff530 f   libcrypto:libcrypto-lib-dso_lib.obj
 0001:000fe5a0       _DSO_convert_filename      004ff5a0 f   libcrypto:libcrypto-lib-dso_lib.obj
 0001:000fe650       __CONF_get_section         004ff650 f   libcrypto:libcrypto-lib-conf_api.obj
 0001:000fe6a0       __CONF_get_section_values  004ff6a0 f   libcrypto:libcrypto-lib-conf_api.obj
 0001:000fe6c0       __CONF_add_string          004ff6c0 f   libcrypto:libcrypto-lib-conf_api.obj
 0001:000fe740       __CONF_get_string          004ff740 f   libcrypto:libcrypto-lib-conf_api.obj
 0001:000fe820       __CONF_new_data            004ff820 f   libcrypto:libcrypto-lib-conf_api.obj
 0001:000fe950       __CONF_free_data           004ff950 f   libcrypto:libcrypto-lib-conf_api.obj
 0001:000fea80       __CONF_new_section         004ffa80 f   libcrypto:libcrypto-lib-conf_api.obj
 0001:000fecd0       _X509_get_default_cert_area 004ffcd0 f   libcrypto:libcrypto-lib-x509_def.obj
 0001:000fecf0       _X509_get_default_cert_dir 004ffcf0 f   libcrypto:libcrypto-lib-x509_def.obj
 0001:000fed10       _X509_get_default_cert_file 004ffd10 f   libcrypto:libcrypto-lib-x509_def.obj
 0001:000fed30       _X509_get_default_cert_dir_env 004ffd30 f   libcrypto:libcrypto-lib-x509_def.obj
 0001:000fed40       _X509_get_default_cert_file_env 004ffd40 f   libcrypto:libcrypto-lib-x509_def.obj
 0001:000fed50       _ossl_safe_getenv          004ffd50 f   libcrypto:libcrypto-lib-getenv.obj
 0001:000fef10       _async_local_cleanup       004fff10 f   libcrypto:libcrypto-lib-async_win.obj
 0001:000fef50       _async_fibre_init_dispatcher 004fff50 f   libcrypto:libcrypto-lib-async_win.obj
 0001:000fef90       _async_start_func_win@4    004fff90 f   libcrypto:libcrypto-lib-async_win.obj
 0001:000fefa0       _ASYNC_WAIT_CTX_new        004fffa0 f   libcrypto:libcrypto-lib-async_wait.obj
 0001:000fefc0       _ASYNC_WAIT_CTX_free       004fffc0 f   libcrypto:libcrypto-lib-async_wait.obj
 0001:000ff020       _ASYNC_WAIT_CTX_set_callback 00500020 f   libcrypto:libcrypto-lib-async_wait.obj
 0001:000ff040       _ossl_err_load_PROV_strings 00500040 f   libcrypto:libcommon-lib-provider_err.obj
 0001:000ff070       _ossl_err_load_PROP_strings 00500070 f   libcrypto:libcrypto-lib-property_err.obj
 0001:000ff0a0       _ossl_err_load_OSSL_STORE_strings 005000a0 f   libcrypto:libcrypto-lib-store_err.obj
 0001:000ff0d0       _ossl_err_load_ASYNC_strings 005000d0 f   libcrypto:libcrypto-lib-async_err.obj
 0001:000ff100       _ossl_err_load_ESS_strings 00500100 f   libcrypto:libcrypto-lib-ess_err.obj
 0001:000ff130       _ossl_err_load_CT_strings  00500130 f   libcrypto:libcrypto-lib-ct_err.obj
 0001:000ff160       _ossl_err_load_CMP_strings 00500160 f   libcrypto:libcrypto-lib-cmp_err.obj
 0001:000ff190       _ossl_err_load_CRMF_strings 00500190 f   libcrypto:libcrypto-lib-crmf_err.obj
 0001:000ff1c0       _ossl_err_load_CMS_strings 005001c0 f   libcrypto:libcrypto-lib-cms_err.obj
 0001:000ff1f0       _ossl_err_load_UI_strings  005001f0 f   libcrypto:libcrypto-lib-ui_err.obj
 0001:000ff220       _ossl_err_load_OCSP_strings 00500220 f   libcrypto:libcrypto-lib-ocsp_err.obj
 0001:000ff250       _ossl_err_load_HTTP_strings 00500250 f   libcrypto:libcrypto-lib-http_err.obj
 0001:000ff280       _ossl_err_load_TS_strings  00500280 f   libcrypto:libcrypto-lib-ts_err.obj
 0001:000ff2b0       _ossl_err_load_DSO_strings 005002b0 f   libcrypto:libcrypto-lib-dso_err.obj
 0001:000ff2e0       _ossl_err_load_RAND_strings 005002e0 f   libcrypto:libcrypto-lib-rand_err.obj
 0001:000ff310       _ossl_err_load_PKCS12_strings 00500310 f   libcrypto:libcrypto-lib-pk12err.obj
 0001:000ff340       _ossl_err_load_X509V3_strings 00500340 f   libcrypto:libcrypto-lib-v3err.obj
 0001:000ff370       _ossl_err_load_PKCS7_strings 00500370 f   libcrypto:libcrypto-lib-pkcs7err.obj
 0001:000ff3a0       _ossl_err_load_BIO_strings 005003a0 f   libcrypto:libcrypto-lib-bio_err.obj
 0001:000ff3d0       _ossl_err_load_EC_strings  005003d0 f   libcrypto:libcrypto-lib-ec_err.obj
 0001:000ff400       _ossl_err_load_COMP_strings 00500400 f   libcrypto:libcrypto-lib-comp_err.obj
 0001:000ff430       _ossl_err_load_CRYPTO_strings 00500430 f   libcrypto:libcrypto-lib-cpt_err.obj
 0001:000ff460       _ossl_err_load_CONF_strings 00500460 f   libcrypto:libcrypto-lib-conf_err.obj
 0001:000ff490       _ossl_err_load_ASN1_strings 00500490 f   libcrypto:libcrypto-lib-asn1_err.obj
 0001:000ff4c0       _ossl_err_load_X509_strings 005004c0 f   libcrypto:libcrypto-lib-x509_err.obj
 0001:000ff4f0       _ossl_err_load_DSA_strings 005004f0 f   libcrypto:libcrypto-lib-dsa_err.obj
 0001:000ff520       _ossl_err_load_PEM_strings 00500520 f   libcrypto:libcrypto-lib-pem_err.obj
 0001:000ff550       _ossl_err_load_OBJ_strings 00500550 f   libcrypto:libcrypto-lib-obj_err.obj
 0001:000ff580       _ossl_err_load_BUF_strings 00500580 f   libcrypto:libcrypto-lib-buf_err.obj
 0001:000ff5b0       _ossl_err_load_EVP_strings 005005b0 f   libcrypto:libcrypto-lib-evp_err.obj
 0001:000ff5e0       _ossl_err_load_DH_strings  005005e0 f   libcrypto:libcrypto-lib-dh_err.obj
 0001:000ff610       _ossl_err_load_RSA_strings 00500610 f   libcrypto:libcrypto-lib-rsa_err.obj
 0001:000ff640       _ossl_err_load_BN_strings  00500640 f   libcrypto:libcrypto-lib-bn_err.obj
 0001:000ff670       _EVP_chacha20              00500670 f   libcrypto:libcrypto-lib-e_chacha20_poly1305.obj
 0001:000ff680       _EVP_chacha20_poly1305     00500680 f   libcrypto:libcrypto-lib-e_chacha20_poly1305.obj
 0001:000ff690       _EVP_rc5_32_12_16_cbc      00500690 f   libcrypto:libcrypto-lib-e_rc5.obj
 0001:000ff6a0       _EVP_rc5_32_12_16_cfb64    005006a0 f   libcrypto:libcrypto-lib-e_rc5.obj
 0001:000ff6b0       _EVP_rc5_32_12_16_ofb      005006b0 f   libcrypto:libcrypto-lib-e_rc5.obj
 0001:000ff6c0       _EVP_rc5_32_12_16_ecb      005006c0 f   libcrypto:libcrypto-lib-e_rc5.obj
 0001:000ff6d0       _EVP_bf_cbc                005006d0 f   libcrypto:libcrypto-lib-e_bf.obj
 0001:000ff6e0       _EVP_bf_cfb64              005006e0 f   libcrypto:libcrypto-lib-e_bf.obj
 0001:000ff6f0       _EVP_bf_ofb                005006f0 f   libcrypto:libcrypto-lib-e_bf.obj
 0001:000ff700       _EVP_bf_ecb                00500700 f   libcrypto:libcrypto-lib-e_bf.obj
 0001:000ff710       _EVP_rc2_cbc               00500710 f   libcrypto:libcrypto-lib-e_rc2.obj
 0001:000ff720       _EVP_rc2_cfb64             00500720 f   libcrypto:libcrypto-lib-e_rc2.obj
 0001:000ff730       _EVP_rc2_ofb               00500730 f   libcrypto:libcrypto-lib-e_rc2.obj
 0001:000ff740       _EVP_rc2_ecb               00500740 f   libcrypto:libcrypto-lib-e_rc2.obj
 0001:000ff750       _EVP_rc2_64_cbc            00500750 f   libcrypto:libcrypto-lib-e_rc2.obj
 0001:000ff760       _EVP_rc2_40_cbc            00500760 f   libcrypto:libcrypto-lib-e_rc2.obj
 0001:000ff770       _EVP_rc4_hmac_md5          00500770 f   libcrypto:libcrypto-lib-e_rc4_hmac_md5.obj
 0001:000ff780       _EVP_rc4                   00500780 f   libcrypto:libcrypto-lib-e_rc4.obj
 0001:000ff790       _EVP_rc4_40                00500790 f   libcrypto:libcrypto-lib-e_rc4.obj
 0001:000ff7a0       _EVP_des_ede_cbc           005007a0 f   libcrypto:libcrypto-lib-e_des3.obj
 0001:000ff7b0       _EVP_des_ede_cfb64         005007b0 f   libcrypto:libcrypto-lib-e_des3.obj
 0001:000ff7c0       _EVP_des_ede_ofb           005007c0 f   libcrypto:libcrypto-lib-e_des3.obj
 0001:000ff7d0       _EVP_des_ede3_cbc          005007d0 f   libcrypto:libcrypto-lib-e_des3.obj
 0001:000ff7e0       _EVP_des_ede3_cfb64        005007e0 f   libcrypto:libcrypto-lib-e_des3.obj
 0001:000ff7f0       _EVP_des_ede3_ofb          005007f0 f   libcrypto:libcrypto-lib-e_des3.obj
 0001:000ff800       _EVP_des_ede3_cfb1         00500800 f   libcrypto:libcrypto-lib-e_des3.obj
 0001:000ff810       _EVP_des_ede3_cfb8         00500810 f   libcrypto:libcrypto-lib-e_des3.obj
 0001:000ff820       _EVP_des_ede               00500820 f   libcrypto:libcrypto-lib-e_des3.obj
 0001:000ff830       _EVP_des_ede3              00500830 f   libcrypto:libcrypto-lib-e_des3.obj
 0001:000ff840       _EVP_des_ede3_wrap         00500840 f   libcrypto:libcrypto-lib-e_des3.obj
 0001:000ff850       _EVP_des_cbc               00500850 f   libcrypto:libcrypto-lib-e_des.obj
 0001:000ff860       _EVP_des_cfb64             00500860 f   libcrypto:libcrypto-lib-e_des.obj
 0001:000ff870       _EVP_des_ofb               00500870 f   libcrypto:libcrypto-lib-e_des.obj
 0001:000ff880       _EVP_des_ecb               00500880 f   libcrypto:libcrypto-lib-e_des.obj
 0001:000ff890       _EVP_des_cfb1              00500890 f   libcrypto:libcrypto-lib-e_des.obj
 0001:000ff8a0       _EVP_des_cfb8              005008a0 f   libcrypto:libcrypto-lib-e_des.obj
 0001:000ff8b0       _EVP_desx_cbc              005008b0 f   libcrypto:libcrypto-lib-e_xcbc_d.obj
 0001:000ff8c0       _EVP_blake2b512            005008c0 f   libcrypto:libcrypto-lib-legacy_blake2.obj
 0001:000ff8d0       _EVP_blake2s256            005008d0 f   libcrypto:libcrypto-lib-legacy_blake2.obj
 0001:000ff8e0       _EVP_whirlpool             005008e0 f   libcrypto:libcrypto-lib-legacy_wp.obj
 0001:000ff8f0       _EVP_ripemd160             005008f0 f   libcrypto:libcrypto-lib-legacy_ripemd.obj
 0001:000ff900       _EVP_mdc2                  00500900 f   libcrypto:libcrypto-lib-legacy_mdc2.obj
 0001:000ff910       _EVP_md5_sha1              00500910 f   libcrypto:libcrypto-lib-legacy_md5_sha1.obj
 0001:000ff920       _EVP_md4                   00500920 f   libcrypto:libcrypto-lib-legacy_md4.obj
 0001:000ff930       _ASN1_generate_v3          00500930 f   libcrypto:libcrypto-lib-asn1_gen.obj
 0001:001009e0       _ASN1_str2mask             005019e0 f   libcrypto:libcrypto-lib-asn1_gen.obj
 0001:00101b50       _BIO_f_buffer              00502b50 f   libcrypto:libcrypto-lib-bf_buff.obj
 0001:00102590       _PKCS7_type_is_other       00503590 f   libcrypto:libcrypto-lib-pk7_doit.obj
 0001:001025c0       _PKCS7_get_octet_string    005035c0 f   libcrypto:libcrypto-lib-pk7_doit.obj
 0001:00102610       _PKCS7_dataInit            00503610 f   libcrypto:libcrypto-lib-pk7_doit.obj
 0001:00102ec0       _PKCS7_dataFinal           00503ec0 f   libcrypto:libcrypto-lib-pk7_doit.obj
 0001:001035e0       _PKCS7_SIGNER_INFO_sign    005045e0 f   libcrypto:libcrypto-lib-pk7_doit.obj
 0001:00103780       _PKCS7_get_signed_attribute 00504780 f   libcrypto:libcrypto-lib-pk7_doit.obj
 0001:001037e0       _PKCS7_add_signed_attribute 005047e0 f   libcrypto:libcrypto-lib-pk7_doit.obj
 0001:001038e0       _BIGNUM_it                 005048e0 f   libcrypto:libcrypto-lib-x_bignum.obj
 0001:001038f0       _CBIGNUM_it                005048f0 f   libcrypto:libcrypto-lib-x_bignum.obj
 0001:00104030       _INT32_it                  00505030 f   libcrypto:libcrypto-lib-x_int64.obj
 0001:00104040       _UINT32_it                 00505040 f   libcrypto:libcrypto-lib-x_int64.obj
 0001:00104050       _ZINT32_it                 00505050 f   libcrypto:libcrypto-lib-x_int64.obj
 0001:00104060       _ZUINT32_it                00505060 f   libcrypto:libcrypto-lib-x_int64.obj
 0001:00104070       _ZINT64_it                 00505070 f   libcrypto:libcrypto-lib-x_int64.obj
 0001:00104080       _ZUINT64_it                00505080 f   libcrypto:libcrypto-lib-x_int64.obj
 0001:00104090       _ossl_rsa_multip_info_free_ex 00505090 f   libcrypto:libcrypto-lib-rsa_mp.obj
 0001:001040c0       _ossl_rsa_multip_info_free 005050c0 f   libcrypto:libcrypto-lib-rsa_mp.obj
 0001:001040f0       _ossl_rsa_multip_info_new  005050f0 f   libcrypto:libcrypto-lib-rsa_mp.obj
 0001:00104180       _ossl_rsa_multip_calc_product 00505180 f   libcrypto:libcrypto-lib-rsa_mp.obj
 0001:00104240       _ossl_rsa_multip_cap       00505240 f   libcrypto:libcrypto-lib-rsa_mp.obj
 0001:00104280       _RSA_get_default_method    00505280 f   libcrypto:libcrypto-lib-rsa_ossl.obj
 0001:00104290       _RSA_PKCS1_OpenSSL         00505290 f   libcrypto:libcrypto-lib-rsa_ossl.obj
 0001:00104560       _ossl_rsa_free_blinding    00505560 f   libcrypto:libcrypto-lib-rsa_ossl.obj
 0001:001045c0       _ossl_rsa_alloc_blinding   005055c0 f   libcrypto:libcrypto-lib-rsa_ossl.obj
 0001:00106040       _ossl_ffc_params_init      00507040 f   libcrypto:libcrypto-lib-ffc_params.obj
 0001:00106070       _ossl_ffc_params_cleanup   00507070 f   libcrypto:libcrypto-lib-ffc_params.obj
 0001:001060c0       _ossl_ffc_params_set0_pqg  005070c0 f   libcrypto:libcrypto-lib-ffc_params.obj
 0001:00106120       _ossl_ffc_params_get0_pqg  00507120 f   libcrypto:libcrypto-lib-ffc_params.obj
 0001:00106150       _ossl_ffc_params_set0_j    00507150 f   libcrypto:libcrypto-lib-ffc_params.obj
 0001:00106180       _ossl_ffc_params_set_seed  00507180 f   libcrypto:libcrypto-lib-ffc_params.obj
 0001:001061f0       _ossl_pkcs7_set0_libctx    005071f0 f   libcrypto:libcrypto-lib-ffc_params.obj
 0001:001061f0       _ossl_ffc_params_set_pcounter 005071f0 f   libcrypto:libcrypto-lib-ffc_params.obj
 0001:00106200       _ossl_ffc_params_enable_flags 00507200 f   libcrypto:libcrypto-lib-ffc_params.obj
 0001:00106230       _ossl_ffc_set_digest       00507230 f   libcrypto:libcrypto-lib-ffc_params.obj
 0001:00106230       _ossl_quic_fifd_set_qlog_cb 00507230 f   libcrypto:libcrypto-lib-ffc_params.obj
 0001:00106250       _ossl_ffc_params_set_validate_params 00507250 f   libcrypto:libcrypto-lib-ffc_params.obj
 0001:00106280       _ossl_ffc_params_copy      00507280 f   libcrypto:libcrypto-lib-ffc_params.obj
 0001:001063d0       _ossl_ffc_params_cmp       005073d0 f   libcrypto:libcrypto-lib-ffc_params.obj
 0001:00106430       _ossl_ffc_params_todata    00507430 f   libcrypto:libcrypto-lib-ffc_params.obj
 0001:001066b0       _ossl_ffc_params_print     005076b0 f   libcrypto:libcrypto-lib-ffc_params.obj
 0001:00106850       _DSA_get_default_method    00507850 f   libcrypto:libcrypto-lib-dsa_ossl.obj
 0001:00106860       _DSA_OpenSSL               00507860 f   libcrypto:libcrypto-lib-dsa_ossl.obj
 0001:00106870       _ossl_dsa_do_sign_int      00507870 f   libcrypto:libcrypto-lib-dsa_ossl.obj
 0001:00107450       _ossl_ffc_params_fromdata  00508450 f   libcrypto:libcrypto-lib-ffc_backend.obj
 0001:00107770       _EC_KEY_OpenSSL            00508770 f   libcrypto:libcrypto-lib-ec_kmeth.obj
 0001:00107780       _EC_KEY_get_default_method 00508780 f   libcrypto:libcrypto-lib-ec_kmeth.obj
 0001:00107790       _ossl_ec_key_new_method_int 00508790 f   libcrypto:libcrypto-lib-ec_kmeth.obj
 0001:00107880       _ECDH_compute_key          00508880 f   libcrypto:libcrypto-lib-ec_kmeth.obj
 0001:00107990       _EC_GROUP_new_by_curve_name_ex 00508990 f   libcrypto:libcrypto-lib-ec_curve.obj
 0001:00107e90       _EC_GROUP_new_by_curve_name 00508e90 f   libcrypto:libcrypto-lib-ec_curve.obj
 0001:00107eb0       _EC_curve_nid2nist         00508eb0 f   libcrypto:libcrypto-lib-ec_curve.obj
 0001:00107ed0       _ossl_ec_curve_nid_from_params 00508ed0 f   libcrypto:libcrypto-lib-ec_curve.obj
 0001:00108780       _ossl_ec_dhkem_derive_private 00509780 f   libcrypto:libdefault-lib-ec_kem.obj
 0001:00109300       _BN_CTX_new_ex             0050a300 f   libcrypto:libcrypto-lib-bn_ctx.obj
 0001:00109340       _BN_CTX_new                0050a340 f   libcrypto:libcrypto-lib-bn_ctx.obj
 0001:00109350       _BN_CTX_secure_new_ex      0050a350 f   libcrypto:libcrypto-lib-bn_ctx.obj
 0001:00109370       _BN_CTX_secure_new         0050a370 f   libcrypto:libcrypto-lib-bn_ctx.obj
 0001:00109380       _BN_CTX_free               0050a380 f   libcrypto:libcrypto-lib-bn_ctx.obj
 0001:001093b0       _BN_CTX_start              0050a3b0 f   libcrypto:libcrypto-lib-bn_ctx.obj
 0001:00109410       _BN_CTX_end                0050a410 f   libcrypto:libcrypto-lib-bn_ctx.obj
 0001:00109460       _BN_CTX_get                0050a460 f   libcrypto:libcrypto-lib-bn_ctx.obj
 0001:001094e0       _ossl_bn_get_libctx        0050a4e0 f   libcrypto:libcrypto-lib-bn_ctx.obj
 0001:001097d0       _BN_rand_ex                0050a7d0 f   libcrypto:libcrypto-lib-bn_rand.obj
 0001:001099f0       _BN_priv_rand_ex           0050a9f0 f   libcrypto:libcrypto-lib-bn_rand.obj
 0001:00109c80       _BN_priv_rand_range_ex     0050ac80 f   libcrypto:libcrypto-lib-bn_rand.obj
 0001:00109ca0       _ossl_bn_priv_rand_range_fixed_top 0050aca0 f   libcrypto:libcrypto-lib-bn_rand.obj
 0001:00109e10       _ossl_bn_gen_dsa_nonce_fixed_top 0050ae10 f   libcrypto:libcrypto-lib-bn_rand.obj
 0001:0010a0f0       _BN_add                    0050b0f0 f   libcrypto:libcrypto-lib-bn_add.obj
 0001:0010a180       _BN_sub                    0050b180 f   libcrypto:libcrypto-lib-bn_add.obj
 0001:0010a210       _BN_uadd                   0050b210 f   libcrypto:libcrypto-lib-bn_add.obj
 0001:0010a2d0       _BN_usub                   0050b2d0 f   libcrypto:libcrypto-lib-bn_add.obj
 0001:0010a3b0       _bn_compute_wNAF           0050b3b0 f   libcrypto:libcrypto-lib-bn_intern.obj
 0001:0010a5c0       _bn_set_all_zero           0050b5c0 f   libcrypto:libcrypto-lib-bn_intern.obj
 0001:0010a5f0       _bn_copy_words             0050b5f0 f   libcrypto:libcrypto-lib-bn_intern.obj
 0001:0010a640       _bn_set_words              0050b640 f   libcrypto:libcrypto-lib-bn_intern.obj
 0001:0010a6b0       _EC_POINT_set_compressed_coordinates 0050b6b0 f   libcrypto:libcrypto-lib-ec_oct.obj
 0001:0010a7a0       _EC_POINT_point2oct        0050b7a0 f   libcrypto:libcrypto-lib-ec_oct.obj
 0001:0010a8c0       _EC_POINT_oct2point        0050b8c0 f   libcrypto:libcrypto-lib-ec_oct.obj
 0001:0010a9b0       _EC_POINT_point2buf        0050b9b0 f   libcrypto:libcrypto-lib-ec_oct.obj
 0001:0010aa40       _ECDSA_do_verify           0050ba40 f   libcrypto:libcrypto-lib-ecdsa_vrf.obj
 0001:0010aa90       _ECDSA_verify              0050ba90 f   libcrypto:libcrypto-lib-ecdsa_vrf.obj
 0001:0010aaf0       _ECDSA_do_sign             0050baf0 f   libcrypto:libcrypto-lib-ecdsa_sign.obj
 0001:0010ab10       _ECDSA_do_sign_ex          0050bb10 f   libcrypto:libcrypto-lib-ecdsa_sign.obj
 0001:0010ab70       _ECDSA_sign_ex             0050bb70 f   libcrypto:libcrypto-lib-ecdsa_sign.obj
 0001:0010abd0       _EC_GROUP_new_curve_GFp    0050bbd0 f   libcrypto:libcrypto-lib-ec_cvt.obj
 0001:0010ac30       _EC_GROUP_new_curve_GF2m   0050bc30 f   libcrypto:libcrypto-lib-ec_cvt.obj
 0001:0010ac90       _EC_GROUP_check_named_curve 0050bc90 f   libcrypto:libcrypto-lib-ec_check.obj
 0001:0010ad50       _EC_GROUP_check            0050bd50 f   libcrypto:libcrypto-lib-ec_check.obj
 0001:0010af70       _ossl_encode_der_length    0050bf70 f   libcrypto:libcrypto-lib-asn1_dsa.obj
 0001:0010b000       _ossl_encode_der_integer   0050c000 f   libcrypto:libcrypto-lib-asn1_dsa.obj
 0001:0010b0b0       _ossl_encode_der_dsa_sig   0050c0b0 f   libcrypto:libcrypto-lib-asn1_dsa.obj
 0001:0010b1d0       _ossl_decode_der_length    0050c1d0 f   libcrypto:libcrypto-lib-asn1_dsa.obj
 0001:0010b300       _ossl_decode_der_integer   0050c300 f   libcrypto:libcrypto-lib-asn1_dsa.obj
 0001:0010b390       _ossl_decode_der_dsa_sig   0050c390 f   libcrypto:libcrypto-lib-asn1_dsa.obj
 0001:0010b430       _ossl_rsa_generate_multi_prime_key 0050c430 f   libcrypto:libcrypto-lib-rsa_gen.obj
 0001:0010b4b0       _ossl_rsa_multiprime_derive 0050c4b0 f   libcrypto:libcrypto-lib-rsa_gen.obj
 0001:0010c630       _ossl_rsa_fips186_5_gen_prob_primes 0050d630 f   libcrypto:libcrypto-lib-rsa_sp800_56b_gen.obj
 0001:0010c880       _ossl_rsa_sp800_56b_validate_strength 0050d880 f   libcrypto:libcrypto-lib-rsa_sp800_56b_gen.obj
 0001:0010c8e0       _ossl_rsa_sp800_56b_derive_params_from_pq 0050d8e0 f   libcrypto:libcrypto-lib-rsa_sp800_56b_gen.obj
 0001:0010cbc0       _ossl_rsa_sp800_56b_generate_key 0050dbc0 f   libcrypto:libcrypto-lib-rsa_sp800_56b_gen.obj
 0001:0010cd00       _ossl_rsa_sp800_56b_pairwise_test 0050dd00 f   libcrypto:libcrypto-lib-rsa_sp800_56b_gen.obj
 0001:0010ce00       _RSA_bits                  0050de00 f   libcrypto:libcrypto-lib-rsa_crpt.obj
 0001:0010ce20       _RSA_size                  0050de20 f   libcrypto:libcrypto-lib-rsa_crpt.obj
 0001:0010ce40       _RSA_public_encrypt        0050de40 f   libcrypto:libcrypto-lib-rsa_crpt.obj
 0001:0010ce70       _RSA_private_encrypt       0050de70 f   libcrypto:libcrypto-lib-rsa_crpt.obj
 0001:0010cea0       _RSA_private_decrypt       0050dea0 f   libcrypto:libcrypto-lib-rsa_crpt.obj
 0001:0010ced0       _RSA_public_decrypt        0050ded0 f   libcrypto:libcrypto-lib-rsa_crpt.obj
 0001:0010cf00       _RSA_flags                 0050df00 f   libcrypto:libcrypto-lib-rsa_crpt.obj
 0001:0010cf20       _RSA_setup_blinding        0050df20 f   libcrypto:libcrypto-lib-rsa_crpt.obj
 0001:0010d170       _ossl_param_build_set_int  0050e170 f   libcrypto:libcrypto-lib-param_build_set.obj
 0001:0010d1c0       _ossl_param_build_set_long 0050e1c0 f   libcrypto:libcrypto-lib-param_build_set.obj
 0001:0010d210       _ossl_param_build_set_utf8_string 0050e210 f   libcrypto:libcrypto-lib-param_build_set.obj
 0001:0010d260       _ossl_param_build_set_octet_string 0050e260 f   libcrypto:libcrypto-lib-param_build_set.obj
 0001:0010d2b0       _ossl_param_build_set_bn_pad 0050e2b0 f   libcrypto:libcrypto-lib-param_build_set.obj
 0001:0010d340       _ossl_param_build_set_bn   0050e340 f   libcrypto:libcrypto-lib-param_build_set.obj
 0001:0010d390       _ossl_param_build_set_multi_key_bn 0050e390 f   libcrypto:libcrypto-lib-param_build_set.obj
 0001:0010d460       _ossl_rsa_oaeppss_md2nid   0050e460 f   libcrypto:libcrypto-lib-rsa_schemes.obj
 0001:0010d4f0       _ossl_rsa_oaeppss_nid2name 0050e4f0 f   libcrypto:libcrypto-lib-rsa_schemes.obj
 0001:0010d540       _ossl_rsa_mgf_nid2name     0050e540 f   libcrypto:libcrypto-lib-rsa_schemes.obj
 0001:0010d560       _ossl_rsa_verify_PKCS1_PSS_mgf1 0050e560 f   libcrypto:libcrypto-lib-rsa_pss.obj
 0001:0010d8f0       _ossl_rsa_padding_add_PKCS1_PSS_mgf1 0050e8f0 f   libcrypto:libcrypto-lib-rsa_pss.obj
 0001:0010dbb0       _ossl_rsa_pss_params_30_set_defaults 0050ebb0 f   libcrypto:libcrypto-lib-rsa_pss.obj
 0001:0010dbe0       _ossl_rsa_pss_params_30_is_unrestricted 0050ebe0 f   libcrypto:libcrypto-lib-rsa_pss.obj
 0001:0010dc10       _ossl_rsa_pss_params_30_copy 0050ec10 f   libcrypto:libcrypto-lib-rsa_pss.obj
 0001:0010dc30       _ossl_rsa_pss_params_30_set_hashalg 0050ec30 f   libcrypto:libcrypto-lib-rsa_pss.obj
 0001:0010dc50       _ossl_rsa_pss_params_30_set_maskgenhashalg 0050ec50 f   libcrypto:libcrypto-lib-rsa_pss.obj
 0001:0010dc70       _ossl_rsa_pss_params_30_set_saltlen 0050ec70 f   libcrypto:libcrypto-lib-rsa_pss.obj
 0001:0010dc90       _ossl_rsa_pss_params_30_set_trailerfield 0050ec90 f   libcrypto:libcrypto-lib-rsa_pss.obj
 0001:0010dcb0       _ossl_rsa_pss_params_30_hashalg 0050ecb0 f   libcrypto:libcrypto-lib-rsa_pss.obj
 0001:0010dcd0       _ossl_rsa_pss_params_30_maskgenalg 0050ecd0 f   libcrypto:libcrypto-lib-rsa_pss.obj
 0001:0010dcf0       _ossl_rsa_pss_params_30_maskgenhashalg 0050ecf0 f   libcrypto:libcrypto-lib-rsa_pss.obj
 0001:0010dd10       _ossl_rsa_pss_params_30_saltlen 0050ed10 f   libcrypto:libcrypto-lib-rsa_pss.obj
 0001:0010dd30       _ossl_rsa_pss_params_30_trailerfield 0050ed30 f   libcrypto:libcrypto-lib-rsa_pss.obj
 0001:0010dd50       _ossl_core_bio_up_ref      0050ed50 f   libcrypto:libcrypto-lib-ossl_core_bio.obj
 0001:0010dd70       _ossl_core_bio_free        0050ed70 f   libcrypto:libcrypto-lib-ossl_core_bio.obj
 0001:0010ddb0       _ossl_core_bio_new_from_bio 0050edb0 f   libcrypto:libcrypto-lib-ossl_core_bio.obj
 0001:0010de20       _ossl_core_bio_new_file    0050ee20 f   libcrypto:libcrypto-lib-ossl_core_bio.obj
 0001:0010de70       _ossl_core_bio_new_mem_buf 0050ee70 f   libcrypto:libcrypto-lib-ossl_core_bio.obj
 0001:0010de90       _ossl_core_bio_read_ex     0050ee90 f   libcrypto:libcrypto-lib-ossl_core_bio.obj
 0001:0010deb0       _ossl_core_bio_write_ex    0050eeb0 f   libcrypto:libcrypto-lib-ossl_core_bio.obj
 0001:0010ded0       _ossl_core_bio_gets        0050eed0 f   libcrypto:libcrypto-lib-ossl_core_bio.obj
 0001:0010def0       _ossl_core_bio_puts        0050eef0 f   libcrypto:libcrypto-lib-ossl_core_bio.obj
 0001:0010df10       _ossl_core_bio_ctrl        0050ef10 f   libcrypto:libcrypto-lib-ossl_core_bio.obj
 0001:0010df30       _ossl_core_bio_vprintf     0050ef30 f   libcrypto:libcrypto-lib-ossl_core_bio.obj
 0001:0010df50       _ossl_get_openssldir       0050ef50 f   libcrypto:libcrypto-lib-defaults.obj
 0001:0010df60       _ossl_get_modulesdir       0050ef60 f   libcrypto:libcrypto-lib-defaults.obj
 0001:0010df70       _ossl_get_wininstallcontext 0050ef70 f   libcrypto:libcrypto-lib-defaults.obj
 0001:0010df80       _OSSL_STORE_LOADER_up_ref  0050ef80 f   libcrypto:libcrypto-lib-store_meth.obj
 0001:0010dfa0       _OSSL_STORE_LOADER_free    0050efa0 f   libcrypto:libcrypto-lib-store_meth.obj
 0001:0010dfe0       _OSSL_STORE_LOADER_fetch   0050efe0 f   libcrypto:libcrypto-lib-store_meth.obj
 0001:0010e660       _ossl_store_loader_store_cache_flush 0050f660 f   libcrypto:libcrypto-lib-store_meth.obj
 0001:0010e690       _ossl_store_loader_store_remove_all_provided 0050f690 f   libcrypto:libcrypto-lib-store_meth.obj
 0001:0010e6c0       _OSSL_STORE_LOADER_get0_provider 0050f6c0 f   libcrypto:libcrypto-lib-store_meth.obj
 0001:0010e700       _ossl_rand_get_entropy     0050f700 f   libcrypto:libcrypto-lib-prov_seed.obj
 0001:0010e790       _ossl_rand_get_user_entropy 0050f790 f   libcrypto:libcrypto-lib-prov_seed.obj
 0001:0010e800       _ossl_rand_cleanup_entropy 0050f800 f   libcrypto:libcrypto-lib-prov_seed.obj
 0001:0010e820       _ossl_rand_cleanup_user_entropy 0050f820 f   libcrypto:libcrypto-lib-prov_seed.obj
 0001:0010e880       _ossl_rand_get_nonce       0050f880 f   libcrypto:libcrypto-lib-prov_seed.obj
 0001:0010e920       _ossl_rand_get_user_nonce  0050f920 f   libcrypto:libcrypto-lib-prov_seed.obj
 0001:0010e9c0       _ossl_rand_cleanup_nonce   0050f9c0 f   libcrypto:libcrypto-lib-prov_seed.obj
 0001:0010e9e0       _ossl_rand_cleanup_user_nonce 0050f9e0 f   libcrypto:libcrypto-lib-prov_seed.obj
 0001:0010ea00       _ossl_method_construct     0050fa00 f   libcrypto:libcrypto-lib-core_fetch.obj
 0001:0010ec70       _ossl_property_find_property 0050fc70 f   libcrypto:libcrypto-lib-property_query.obj
 0001:0010ecc0       _ossl_property_get_string_value 0050fcc0 f   libcrypto:libcrypto-lib-property_query.obj
 0001:0010ecf0       _ossl_property_has_optional 0050fcf0 f   libcrypto:libcrypto-lib-property_query.obj
 0001:0010ed00       _ossl_param_bytes_to_blocks 0050fd00 f   libcrypto:libcrypto-lib-params_dup.obj
 0001:0010ed10       _ossl_param_set_secure_block 0050fd10 f   libcrypto:libcrypto-lib-params_dup.obj
 0001:0010ed40       _OSSL_PARAM_merge          0050fd40 f   libcrypto:libcrypto-lib-params_dup.obj
 0001:0010ef80       _OSSL_PARAM_free           0050ff80 f   libcrypto:libcrypto-lib-params_dup.obj
 0001:0010efe0       _OSSL_PARAM_clear_free     0050ffe0 f   libcrypto:libcrypto-lib-params_dup.obj
 0001:0010f050       _evp_skeymgmt_import       00510050 f   libcrypto:libcrypto-lib-skeymgmt_meth.obj
 0001:0010f080       _evp_skeymgmt_freedata     00510080 f   libcrypto:libcrypto-lib-skeymgmt_meth.obj
 0001:0010f0a0       _evp_skeymgmt_fetch_from_prov 005100a0 f   libcrypto:libcrypto-lib-skeymgmt_meth.obj
 0001:0010f270       _EVP_SKEYMGMT_fetch        00510270 f   libcrypto:libcrypto-lib-skeymgmt_meth.obj
 0001:0010f2a0       _EVP_SKEYMGMT_free         005102a0 f   libcrypto:libcrypto-lib-skeymgmt_meth.obj
 0001:0010f2f0       _EVP_SKEYMGMT_get0_provider 005102f0 f   libcrypto:libcrypto-lib-skeymgmt_meth.obj
 0001:0010f310       _ossl_quic_vlint_encode_n  00510310 f   libcrypto:libcrypto-lib-quic_vlint.obj
 0001:0010f410       _ossl_quic_vlint_encode    00510410 f   libcrypto:libcrypto-lib-quic_vlint.obj
 0001:0010f4c0       _ossl_quic_vlint_decode_unchecked 005104c0 f   libcrypto:libcrypto-lib-quic_vlint.obj
 0001:0010f660       _SCRYPT_PARAMS_it          00510660 f   libcrypto:libcrypto-lib-p5_scrypt.obj
 0001:0010f670       _SCRYPT_PARAMS_free        00510670 f   libcrypto:libcrypto-lib-p5_scrypt.obj
 0001:0010f690       _PKCS5_v2_scrypt_keyivgen_ex 00510690 f   libcrypto:libcrypto-lib-p5_scrypt.obj
 0001:0010f910       _PKCS5_v2_scrypt_keyivgen  00510910 f   libcrypto:libcrypto-lib-p5_scrypt.obj
 0001:0010f940       _PKCS12_PBE_keyivgen_ex    00510940 f   libcrypto:libcrypto-lib-p12_crpt.obj
 0001:0010faf0       _PKCS12_PBE_keyivgen       00510af0 f   libcrypto:libcrypto-lib-p12_crpt.obj
 0001:0010fb20       _PKCS5_PBE_keyivgen_ex     00510b20 f   libcrypto:libcrypto-lib-p5_crpt.obj
 0001:0010fe50       _PKCS5_PBE_keyivgen        00510e50 f   libcrypto:libcrypto-lib-p5_crpt.obj
 0001:0010fe80       _ossl_rand_pool_new        00510e80 f   libcrypto:libcrypto-lib-rand_pool.obj
 0001:0010ff30       _ossl_rand_pool_free       00510f30 f   libcrypto:libcrypto-lib-rand_pool.obj
 0001:0010ff90       _ossl_rand_pool_detach     00510f90 f   libcrypto:libcrypto-lib-rand_pool.obj
 0001:0010ffb0       _ossl_rand_pool_entropy_available 00510fb0 f   libcrypto:libcrypto-lib-rand_pool.obj
 0001:0010ffe0       _ossl_rand_pool_entropy_needed 00510fe0 f   libcrypto:libcrypto-lib-rand_pool.obj
 0001:00110000       _ossl_rand_pool_bytes_needed 00511000 f   libcrypto:libcrypto-lib-rand_pool.obj
 0001:00110210       _ossl_rand_pool_add        00511210 f   libcrypto:libcrypto-lib-rand_pool.obj
 0001:00110300       _ossl_rand_pool_add_begin  00511300 f   libcrypto:libcrypto-lib-rand_pool.obj
 0001:001103a0       _ossl_rand_pool_add_end    005113a0 f   libcrypto:libcrypto-lib-rand_pool.obj
 0001:00110400       _ossl_rand_pool_adin_mix_in 00511400 f   libcrypto:libcrypto-lib-rand_pool.obj
 0001:001104c0       _NCONF_default             005114c0 f   libcrypto:libcrypto-lib-conf_def.obj
 0001:00111d00       _i2a_ASN1_STRING           00512d00 f   libcrypto:libcrypto-lib-f_string.obj
 0001:00111dd0       _o2i_SCT_signature         00512dd0 f   libcrypto:libcrypto-lib-ct_oct.obj
 0001:00111ec0       _o2i_SCT                   00512ec0 f   libcrypto:libcrypto-lib-ct_oct.obj
 0001:00112180       _i2o_SCT_signature         00513180 f   libcrypto:libcrypto-lib-ct_oct.obj
 0001:00112280       _i2o_SCT                   00513280 f   libcrypto:libcrypto-lib-ct_oct.obj
 0001:001124c0       _o2i_SCT_LIST              005134c0 f   libcrypto:libcrypto-lib-ct_oct.obj
 0001:00112660       _i2o_SCT_LIST              00513660 f   libcrypto:libcrypto-lib-ct_oct.obj
 0001:001127f0       _d2i_SCT_LIST              005137f0 f   libcrypto:libcrypto-lib-ct_oct.obj
 0001:00112870       _i2d_SCT_LIST              00513870 f   libcrypto:libcrypto-lib-ct_oct.obj
 0001:00112900       _SCT_new                   00513900 f   libcrypto:libcrypto-lib-ct_sct.obj
 0001:00112930       _SCT_free                  00513930 f   libcrypto:libcrypto-lib-ct_sct.obj
 0001:00112990       _SCT_LIST_free             00513990 f   libcrypto:libcrypto-lib-ct_sct.obj
 0001:001129b0       _SCT_set_log_entry_type    005139b0 f   libcrypto:libcrypto-lib-ct_sct.obj
 0001:00112a00       _SCT_set1_signature        00513a00 f   libcrypto:libcrypto-lib-ct_sct.obj
 0001:00112a70       _SCT_get_signature_nid     00513a70 f   libcrypto:libcrypto-lib-ct_sct.obj
 0001:00112ab0       _SCT_is_complete           00513ab0 f   libcrypto:libcrypto-lib-ct_sct.obj
 0001:00112af0       _SCT_signature_is_complete 00513af0 f   libcrypto:libcrypto-lib-ct_sct.obj
 0001:00112b20       _SCT_set_source            00513b20 f   libcrypto:libcrypto-lib-ct_sct.obj
 0001:00112b60       _SCT_validate              00513b60 f   libcrypto:libcrypto-lib-ct_sct.obj
 0001:00112cf0       _SCT_LIST_validate         00513cf0 f   libcrypto:libcrypto-lib-ct_sct.obj
 0001:00112d60       _SCT_print                 00513d60 f   libcrypto:libcrypto-lib-ct_prn.obj
 0001:00113010       _SCT_LIST_print            00514010 f   libcrypto:libcrypto-lib-ct_prn.obj
 0001:00113080       _ASN1_buf_print            00514080 f   libcrypto:libcrypto-lib-t_pkey.obj
 0001:00113120       _ASN1_bn_print             00514120 f   libcrypto:libcrypto-lib-t_pkey.obj
 0001:001132b0       _ossl_rsa_validate_public  005142b0 f   libcrypto:libcrypto-lib-rsa_chk.obj
 0001:001132d0       _ossl_rsa_validate_private 005142d0 f   libcrypto:libcrypto-lib-rsa_chk.obj
 0001:001132f0       _ossl_rsa_validate_pairwise 005142f0 f   libcrypto:libcrypto-lib-rsa_chk.obj
 0001:00113b50       _RSA_check_key_ex          00514b50 f   libcrypto:libcrypto-lib-rsa_chk.obj
 0001:00113b70       _OSSL_PARAM_BLD_new        00514b70 f   libcrypto:libcrypto-lib-param_build.obj
 0001:00113bc0       _OSSL_PARAM_BLD_free       00514bc0 f   libcrypto:libcrypto-lib-param_build.obj
 0001:00113c30       _OSSL_PARAM_BLD_push_int   00514c30 f   libcrypto:libcrypto-lib-param_build.obj
 0001:00113da0       _OSSL_PARAM_BLD_push_uint  00514da0 f   libcrypto:libcrypto-lib-param_build.obj
 0001:00113e00       _OSSL_PARAM_BLD_push_long  00514e00 f   libcrypto:libcrypto-lib-param_build.obj
 0001:00113e60       _OSSL_PARAM_BLD_push_BN    00514e60 f   libcrypto:libcrypto-lib-param_build.obj
 0001:001140d0       _OSSL_PARAM_BLD_push_BN_pad 005150d0 f   libcrypto:libcrypto-lib-param_build.obj
 0001:00114170       _OSSL_PARAM_BLD_push_utf8_string 00515170 f   libcrypto:libcrypto-lib-param_build.obj
 0001:00114200       _OSSL_PARAM_BLD_push_octet_string 00515200 f   libcrypto:libcrypto-lib-param_build.obj
 0001:00114280       _OSSL_PARAM_BLD_to_param   00515280 f   libcrypto:libcrypto-lib-param_build.obj
 0001:00114570       _ossl_pw_clear_passphrase_data 00515570 f   libcrypto:libcrypto-lib-passphrase.obj
 0001:001145b0       _ossl_pw_clear_passphrase_cache 005155b0 f   libcrypto:libcrypto-lib-passphrase.obj
 0001:001145e0       _ossl_pw_set_pem_password_cb 005155e0 f   libcrypto:libcrypto-lib-passphrase.obj
 0001:00114650       _ossl_pw_set_ossl_passphrase_cb 00515650 f   libcrypto:libcrypto-lib-passphrase.obj
 0001:001146c0       _ossl_pw_set_ui_method     005156c0 f   libcrypto:libcrypto-lib-passphrase.obj
 0001:00114730       _ossl_pw_enable_passphrase_caching 00515730 f   libcrypto:libcrypto-lib-passphrase.obj
 0001:00114750       _ossl_pw_get_passphrase    00515750 f   libcrypto:libcrypto-lib-passphrase.obj
 0001:00114c00       _ossl_pw_pem_password      00515c00 f   libcrypto:libcrypto-lib-passphrase.obj
 0001:00114cb0       _ossl_pw_pvk_password      00515cb0 f   libcrypto:libcrypto-lib-passphrase.obj
 0001:00114ce0       _ossl_pw_passphrase_callback_enc 00515ce0 f   libcrypto:libcrypto-lib-passphrase.obj
 0001:00114d10       _ossl_pw_passphrase_callback_dec 00515d10 f   libcrypto:libcrypto-lib-passphrase.obj
 0001:00114d40       _BIO_f_readbuffer          00515d40 f   libcrypto:libcrypto-lib-bf_readbuff.obj
 0001:00115280       _OSSL_PARAM_allocate_from_text 00516280 f   libcrypto:libcrypto-lib-params_from_text.obj
 0001:001156a0       _ossl_ffc_name_to_dh_named_group 005166a0 f   libcrypto:libcrypto-lib-ffc_dh.obj
 0001:001156f0       _ossl_ffc_uid_to_dh_named_group 005166f0 f   libcrypto:libcrypto-lib-ffc_dh.obj
 0001:00115730       _ossl_ffc_numbers_to_dh_named_group 00516730 f   libcrypto:libcrypto-lib-ffc_dh.obj
 0001:001157b0       _ossl_ffc_named_group_set  005167b0 f   libcrypto:libcrypto-lib-ffc_dh.obj
 0001:00115800       _ossl_dh_compute_key       00516800 f   libcrypto:libcrypto-lib-dh_key.obj
 0001:00115a60       _DH_compute_key            00516a60 f   libcrypto:libcrypto-lib-dh_key.obj
 0001:00115b00       _DH_compute_key_padded     00516b00 f   libcrypto:libcrypto-lib-dh_key.obj
 0001:00115b70       _DH_OpenSSL                00516b70 f   libcrypto:libcrypto-lib-dh_key.obj
 0001:00115b80       _DH_get_default_method     00516b80 f   libcrypto:libcrypto-lib-dh_key.obj
 0001:00115c00       _DH_generate_key           00516c00 f   libcrypto:libcrypto-lib-dh_key.obj
 0001:00115c20       _ossl_dh_generate_public_key 00516c20 f   libcrypto:libcrypto-lib-dh_key.obj
 0001:00115fd0       _ossl_dh_buf2key           00516fd0 f   libcrypto:libcrypto-lib-dh_key.obj
 0001:001160a0       _ossl_dh_key2buf           005170a0 f   libcrypto:libcrypto-lib-dh_key.obj
 0001:00116230       _ossl_curve448_point_double 00517230 f   libcrypto:libcrypto-lib-curve448.obj
 0001:00116470       _ossl_curve448_point_eq    00517470 f   libcrypto:libcrypto-lib-curve448.obj
 0001:001164c0       _ossl_curve448_precomputed_scalarmul 005174c0 f   libcrypto:libcrypto-lib-curve448.obj
 0001:00116910       _ossl_curve448_point_mul_by_ratio_and_encode_like_eddsa 00517910 f   libcrypto:libcrypto-lib-curve448.obj
 0001:00116b60       _ossl_curve448_point_decode_like_eddsa_and_mul_by_ratio 00517b60 f   libcrypto:libcrypto-lib-curve448.obj
 0001:00116df0       _ossl_x448_int             00517df0 f   libcrypto:libcrypto-lib-curve448.obj
 0001:001172f0       _ossl_curve448_point_mul_by_ratio_and_encode_like_x448 005182f0 f   libcrypto:libcrypto-lib-curve448.obj
 0001:00117370       _ossl_x448_derive_public_key 00518370 f   libcrypto:libcrypto-lib-curve448.obj
 0001:00117410       _ossl_curve448_base_double_scalarmul_non_secret 00518410 f   libcrypto:libcrypto-lib-curve448.obj
 0001:00117cc0       _ossl_curve448_point_destroy 00518cc0 f   libcrypto:libcrypto-lib-curve448.obj
 0001:00117ce0       _ossl_x448                 00518ce0 f   libcrypto:libcrypto-lib-curve448.obj
 0001:00117d10       _ossl_x448_public_from_private 00518d10 f   libcrypto:libcrypto-lib-curve448.obj
 0001:00117d30       _ossl_ed25519_sign         00518d30 f   libcrypto:libcrypto-lib-curve25519.obj
 0001:00122b10       _ossl_ed25519_verify       00523b10 f   libcrypto:libcrypto-lib-curve25519.obj
 0001:00123520       _ossl_ed25519_public_from_private 00524520 f   libcrypto:libcrypto-lib-curve25519.obj
 0001:001235e0       _ossl_x25519               005245e0 f   libcrypto:libcrypto-lib-curve25519.obj
 0001:00123d30       _ossl_x25519_public_from_private 00524d30 f   libcrypto:libcrypto-lib-curve25519.obj
 0001:00123df0       _UI_new                    00524df0 f   libcrypto:libcrypto-lib-ui_lib.obj
 0001:00123e00       _UI_new_method             00524e00 f   libcrypto:libcrypto-lib-ui_lib.obj
 0001:00123ea0       _UI_free                   00524ea0 f   libcrypto:libcrypto-lib-ui_lib.obj
 0001:00123f70       _UI_add_input_string       00524f70 f   libcrypto:libcrypto-lib-ui_lib.obj
 0001:00124130       _UI_add_verify_string      00525130 f   libcrypto:libcrypto-lib-ui_lib.obj
 0001:00124160       _UI_construct_prompt       00525160 f   libcrypto:libcrypto-lib-ui_lib.obj
 0001:00124280       _UI_add_user_data          00525280 f   libcrypto:libcrypto-lib-ui_lib.obj
 0001:001242b0       _UI_get_result_length      005252b0 f   libcrypto:libcrypto-lib-ui_lib.obj
 0001:00124350       _UI_process                00525350 f   libcrypto:libcrypto-lib-ui_lib.obj
 0001:00124550       _UI_set_method             00525550 f   libcrypto:libcrypto-lib-ui_lib.obj
 0001:00124550       _RECORD_LAYER_init         00525550 f   libcrypto:libcrypto-lib-ui_lib.obj
 0001:00124550       _ossl_ecx_key_set0_libctx  00525550 f   libcrypto:libcrypto-lib-ui_lib.obj
 0001:00124560       _UI_create_method          00525560 f   libcrypto:libcrypto-lib-ui_lib.obj
 0001:00124610       _UI_destroy_method         00525610 f   libcrypto:libcrypto-lib-ui_lib.obj
 0001:00124660       _UI_method_set_opener      00525660 f   libcrypto:libcrypto-lib-ui_lib.obj
 0001:00124680       _UI_method_set_writer      00525680 f   libcrypto:libcrypto-lib-ui_lib.obj
 0001:001246a0       _UI_method_set_reader      005256a0 f   libcrypto:libcrypto-lib-ui_lib.obj
 0001:001246c0       _UI_method_set_closer      005256c0 f   libcrypto:libcrypto-lib-ui_lib.obj
 0001:001246e0       _UI_method_set_ex_data     005256e0 f   libcrypto:libcrypto-lib-ui_lib.obj
 0001:00124700       _UI_method_get_ex_data     00525700 f   libcrypto:libcrypto-lib-ui_lib.obj
 0001:00124720       _UI_get0_action_string     00525720 f   libcrypto:libcrypto-lib-ui_lib.obj
 0001:00124740       _UI_get0_result_string     00525740 f   libcrypto:libcrypto-lib-ui_lib.obj
 0001:00124760       _UI_get_result_string_length 00525760 f   libcrypto:libcrypto-lib-ui_lib.obj
 0001:00124780       _UI_get0_test_string       00525780 f   libcrypto:libcrypto-lib-ui_lib.obj
 0001:001247a0       _UI_get_result_maxsize     005257a0 f   libcrypto:libcrypto-lib-ui_lib.obj
 0001:001247c0       _UI_set_result             005257c0 f   libcrypto:libcrypto-lib-ui_lib.obj
 0001:001247f0       _UI_set_result_ex          005257f0 f   libcrypto:libcrypto-lib-ui_lib.obj
 0001:001249a0       _evp_encodeblock_int       005259a0 f   libcrypto:libcrypto-lib-enc_b64_scalar.obj
 0001:00124d90       _bn_mul_recursive          00525d90 f   libcrypto:libcrypto-lib-bn_mul.obj
 0001:001251c0       _bn_mul_part_recursive     005261c0 f   libcrypto:libcrypto-lib-bn_mul.obj
 0001:001255f0       _BN_mul                    005265f0 f   libcrypto:libcrypto-lib-bn_mul.obj
 0001:00125620       _bn_mul_fixed_top          00526620 f   libcrypto:libcrypto-lib-bn_mul.obj
 0001:001258b0       _bn_mul_normal             005268b0 f   libcrypto:libcrypto-lib-bn_mul.obj
 0001:001259d0       _BN_sqr                    005269d0 f   libcrypto:libcrypto-lib-bn_sqr.obj
 0001:00125a00       _bn_sqr_fixed_top          00526a00 f   libcrypto:libcrypto-lib-bn_sqr.obj
 0001:00125b80       _bn_sqr_normal             00526b80 f   libcrypto:libcrypto-lib-bn_sqr.obj
 0001:00125c40       _bn_sqr_recursive          00526c40 f   libcrypto:libcrypto-lib-bn_sqr.obj
 0001:00125e00       _bn_mul_mont               00526e00     libcrypto:libcrypto-lib-x86-mont.obj
 0001:00126430       _BN_div                    00527430 f   libcrypto:libcrypto-lib-bn_div.obj
 0001:001264f0       _bn_div_fixed_top          005274f0 f   libcrypto:libcrypto-lib-bn_div.obj
 0001:00126890       _int_bn_mod_inverse        00527890 f   libcrypto:libcrypto-lib-bn_gcd.obj
 0001:00127170       _BN_mod_inverse            00528170 f   libcrypto:libcrypto-lib-bn_gcd.obj
 0001:00127230       _BN_are_coprime            00528230 f   libcrypto:libcrypto-lib-bn_gcd.obj
 0001:00127290       _BN_gcd                    00528290 f   libcrypto:libcrypto-lib-bn_gcd.obj
 0001:00128c80       _EC_nistz256_pre_comp_dup  00529c80 f   libcrypto:libcrypto-lib-ecp_nistz256.obj
 0001:00128ca0       _EC_nistz256_pre_comp_free 00529ca0 f   libcrypto:libcrypto-lib-ecp_nistz256.obj
 0001:00129130       _EC_GFp_nistz256_method    0052a130 f   libcrypto:libcrypto-lib-ecp_nistz256.obj
 0001:00129140       _EC_ec_pre_comp_dup        0052a140 f   libcrypto:libcrypto-lib-ec_mult.obj
 0001:00129160       _EC_ec_pre_comp_free       0052a160 f   libcrypto:libcrypto-lib-ec_mult.obj
 0001:001291d0       _ossl_ec_scalar_mul_ladder 0052a1d0 f   libcrypto:libcrypto-lib-ec_mult.obj
 0001:001298f0       _ossl_ec_wNAF_mul          0052a8f0 f   libcrypto:libcrypto-lib-ec_mult.obj
 0001:0012a370       _ossl_ec_GFp_simple_group_init 0052b370 f   libcrypto:libcrypto-lib-ecp_smpl.obj
 0001:0012a3d0       _ossl_ec_GF2m_simple_group_finish 0052b3d0 f   libcrypto:libcrypto-lib-ecp_smpl.obj
 0001:0012a3d0       _ossl_ec_GFp_simple_group_finish 0052b3d0 f   libcrypto:libcrypto-lib-ecp_smpl.obj
 0001:0012a400       _ossl_ec_GFp_simple_group_clear_finish 0052b400 f   libcrypto:libcrypto-lib-ecp_smpl.obj
 0001:0012a430       _ossl_ec_GFp_simple_group_copy 0052b430 f   libcrypto:libcrypto-lib-ecp_smpl.obj
 0001:0012a4a0       _ossl_ec_GFp_simple_group_set_curve 0052b4a0 f   libcrypto:libcrypto-lib-ecp_smpl.obj
 0001:0012a640       _ossl_ec_GFp_simple_group_get_curve 0052b640 f   libcrypto:libcrypto-lib-ecp_smpl.obj
 0001:0012a740       _ossl_ec_GFp_simple_group_get_degree 0052b740 f   libcrypto:libcrypto-lib-ecp_smpl.obj
 0001:0012a760       _ossl_ec_GFp_simple_group_check_discriminant 0052b760 f   libcrypto:libcrypto-lib-ecp_smpl.obj
 0001:0012a960       _ossl_ec_GFp_simple_point_init 0052b960 f   libcrypto:libcrypto-lib-ecp_smpl.obj
 0001:0012a9c0       _ossl_ec_GFp_simple_point_finish 0052b9c0 f   libcrypto:libcrypto-lib-ecp_smpl.obj
 0001:0012a9c0       _ossl_ec_GF2m_simple_point_finish 0052b9c0 f   libcrypto:libcrypto-lib-ecp_smpl.obj
 0001:0012a9f0       _ossl_ec_GF2m_simple_point_clear_finish 0052b9f0 f   libcrypto:libcrypto-lib-ecp_smpl.obj
 0001:0012a9f0       _ossl_ec_GFp_simple_point_clear_finish 0052b9f0 f   libcrypto:libcrypto-lib-ecp_smpl.obj
 0001:0012aa20       _ossl_ec_GF2m_simple_point_copy 0052ba20 f   libcrypto:libcrypto-lib-ecp_smpl.obj
 0001:0012aa20       _ossl_ec_GFp_simple_point_copy 0052ba20 f   libcrypto:libcrypto-lib-ecp_smpl.obj
 0001:0012aa90       _ossl_ec_GF2m_simple_point_set_to_infinity 0052ba90 f   libcrypto:libcrypto-lib-ecp_smpl.obj
 0001:0012aa90       _ossl_ec_GFp_simple_point_set_to_infinity 0052ba90 f   libcrypto:libcrypto-lib-ecp_smpl.obj
 0001:0012aab0       _ossl_ec_GFp_simple_set_Jprojective_coordinates_GFp 0052bab0 f   libcrypto:libcrypto-lib-ecp_smpl.obj
 0001:0012ac10       _ossl_ec_GFp_simple_point_set_affine_coordinates 0052bc10 f   libcrypto:libcrypto-lib-ecp_smpl.obj
 0001:0012ac80       _ossl_ec_GFp_simple_point_get_affine_coordinates 0052bc80 f   libcrypto:libcrypto-lib-ecp_smpl.obj
 0001:0012af50       _ossl_ec_GFp_simple_add    0052bf50 f   libcrypto:libcrypto-lib-ecp_smpl.obj
 0001:0012b470       _ossl_ec_GFp_simple_dbl    0052c470 f   libcrypto:libcrypto-lib-ecp_smpl.obj
 0001:0012b890       _ossl_ec_GFp_simple_invert 0052c890 f   libcrypto:libcrypto-lib-ecp_smpl.obj
 0001:0012b8e0       _ossl_ec_GFp_simple_is_on_curve 0052c8e0 f   libcrypto:libcrypto-lib-ecp_smpl.obj
 0001:0012bb90       _ossl_ec_GFp_simple_cmp    0052cb90 f   libcrypto:libcrypto-lib-ecp_smpl.obj
 0001:0012be20       _ossl_ec_GFp_simple_make_affine 0052ce20 f   libcrypto:libcrypto-lib-ecp_smpl.obj
 0001:0012bf30       _ossl_ec_GFp_simple_points_make_affine 0052cf30 f   libcrypto:libcrypto-lib-ecp_smpl.obj
 0001:0012c3b0       _ossl_ec_GFp_simple_field_mul 0052d3b0 f   libcrypto:libcrypto-lib-ecp_smpl.obj
 0001:0012c3e0       _ossl_ec_GFp_simple_field_sqr 0052d3e0 f   libcrypto:libcrypto-lib-ecp_smpl.obj
 0001:0012c400       _ossl_ec_GFp_simple_field_inv 0052d400 f   libcrypto:libcrypto-lib-ecp_smpl.obj
 0001:0012c530       _ossl_ec_GFp_simple_blind_coordinates 0052d530 f   libcrypto:libcrypto-lib-ecp_smpl.obj
 0001:0012c6d0       _ossl_ec_GFp_simple_ladder_pre 0052d6d0 f   libcrypto:libcrypto-lib-ecp_smpl.obj
 0001:0012c980       _ossl_ec_GFp_simple_ladder_step 0052d980 f   libcrypto:libcrypto-lib-ecp_smpl.obj
 0001:0012ce20       _ossl_ec_GFp_simple_ladder_post 0052de20 f   libcrypto:libcrypto-lib-ecp_smpl.obj
 0001:0012d290       _BN_mod_exp                0052e290 f   libcrypto:libcrypto-lib-bn_exp.obj
 0001:0012d340       _BN_mod_exp_recp           0052e340 f   libcrypto:libcrypto-lib-bn_exp.obj
 0001:0012d730       _BN_mod_exp_mont           0052e730 f   libcrypto:libcrypto-lib-bn_exp.obj
 0001:0012db80       _bn_mod_exp_mont_fixed_top 0052eb80 f   libcrypto:libcrypto-lib-bn_exp.obj
 0001:0012e390       _BN_mod_exp_mont_consttime 0052f390 f   libcrypto:libcrypto-lib-bn_exp.obj
 0001:0012e3d0       _BN_mod_exp_mont_word      0052f3d0 f   libcrypto:libcrypto-lib-bn_exp.obj
 0001:0012e790       _BN_mod_exp_mont_consttime_x2 0052f790 f   libcrypto:libcrypto-lib-bn_exp.obj
 0001:0012e7e0       _OSSL_EC_curve_nid2name    0052f7e0 f   libcrypto:libcrypto-lib-ec_support.obj
 0001:0012e810       _ossl_ec_curve_name2nid    0052f810 f   libcrypto:libcrypto-lib-ec_support.obj
 0001:0012e860       _ossl_ec_curve_nid2nist_int 0052f860 f   libcrypto:libcrypto-lib-ec_support.obj
 0001:0012e890       _ossl_ec_curve_nist2nid_int 0052f890 f   libcrypto:libcrypto-lib-ec_support.obj
 0001:0012e970       _DHparams_it               0052f970 f   libcrypto:libcrypto-lib-dh_asn1.obj
 0001:0012e980       _d2i_DHparams              0052f980 f   libcrypto:libcrypto-lib-dh_asn1.obj
 0001:0012e9a0       _i2d_DHparams              0052f9a0 f   libcrypto:libcrypto-lib-dh_asn1.obj
 0001:0012e9d0       _d2i_int_dhx               0052f9d0 f   libcrypto:libcrypto-lib-dh_asn1.obj
 0001:0012ea00       _i2d_int_dhx               0052fa00 f   libcrypto:libcrypto-lib-dh_asn1.obj
 0001:0012ea20       _d2i_DHxparams             0052fa20 f   libcrypto:libcrypto-lib-dh_asn1.obj
 0001:0012eb20       _i2d_DHxparams             0052fb20 f   libcrypto:libcrypto-lib-dh_asn1.obj
 0001:0012ebf0       _ossl_dh_gen_type_id2name  0052fbf0 f   libcrypto:libcrypto-lib-dh_support.obj
 0001:0012ec20       _ossl_dh_gen_type_name2id  0052fc20 f   libcrypto:libcrypto-lib-dh_support.obj
 0001:0012ec90       _EVP_PKEY_public_check     0052fc90 f   libcrypto:libcrypto-lib-pmeth_check.obj
 0001:0012ee30       _EVP_PKEY_param_check_quick 0052fe30 f   libcrypto:libcrypto-lib-pmeth_check.obj
 0001:0012ee50       _ossl_ecx_public_from_private 0052fe50 f   libcrypto:libcrypto-lib-ecx_backend.obj
 0001:0012ef20       _ossl_ecx_key_fromdata     0052ff20 f   libcrypto:libcrypto-lib-ecx_backend.obj
 0001:0012f020       _ossl_ecx_key_dup          00530020 f   libcrypto:libcrypto-lib-ecx_backend.obj
 0001:0012f120       _ossl_ecx_key_op           00530120 f   libcrypto:libcrypto-lib-ecx_backend.obj
 0001:0012f3e0       _ossl_ecx_key_from_pkcs8   005303e0 f   libcrypto:libcrypto-lib-ecx_backend.obj
 0001:0012f470       _DH_check_params_ex        00530470 f   libcrypto:libcrypto-lib-dh_check.obj
 0001:0012f560       _DH_check_params           00530560 f   libcrypto:libcrypto-lib-dh_check.obj
 0001:0012f6a0       _DH_check_ex               005306a0 f   libcrypto:libcrypto-lib-dh_check.obj
 0001:0012f870       _DH_check                  00530870 f   libcrypto:libcrypto-lib-dh_check.obj
 0001:0012fab0       _DH_check_pub_key_ex       00530ab0 f   libcrypto:libcrypto-lib-dh_check.obj
 0001:0012fb80       _DH_check_pub_key          00530b80 f   libcrypto:libcrypto-lib-dh_check.obj
 0001:0012fc20       _ossl_dh_check_pub_key_partial 00530c20 f   libcrypto:libcrypto-lib-dh_check.obj
 0001:0012fc60       _ossl_dh_check_priv_key    00530c60 f   libcrypto:libcrypto-lib-dh_check.obj
 0001:0012fd50       _ossl_dh_check_pairwise    00530d50 f   libcrypto:libcrypto-lib-dh_check.obj
 0001:0012fe50       _ECPKParameters_print      00530e50 f   libcrypto:libcrypto-lib-eck_prn.obj
 0001:001303e0       _DSA_do_sign               005313e0 f   libcrypto:libcrypto-lib-dsa_sign.obj
 0001:00130400       _DSA_SIG_new               00531400 f   libcrypto:libcrypto-lib-dsa_sign.obj
 0001:00130420       _DSA_SIG_free              00531420 f   libcrypto:libcrypto-lib-dsa_sign.obj
 0001:00130450       _d2i_DSA_SIG               00531450 f   libcrypto:libcrypto-lib-dsa_sign.obj
 0001:001304e0       _DSA_size                  005314e0 f   libcrypto:libcrypto-lib-dsa_sign.obj
 0001:00130520       _X509_SIG_get0             00531520 f   libcrypto:libcrypto-lib-dsa_sign.obj
 0001:00130520       _DSA_SIG_get0              00531520 f   libcrypto:libcrypto-lib-dsa_sign.obj
 0001:00130540       _ossl_dsa_sign_int         00531540 f   libcrypto:libcrypto-lib-dsa_sign.obj
 0001:001305e0       _DSA_verify                005315e0 f   libcrypto:libcrypto-lib-dsa_sign.obj
 0001:001306a0       _COMP_CTX_new              005316a0 f   libcrypto:libcrypto-lib-comp_lib.obj
 0001:00130700       _COMP_CTX_free             00531700 f   libcrypto:libcrypto-lib-comp_lib.obj
 0001:00130730       _COMP_compress_block       00531730 f   libcrypto:libcrypto-lib-comp_lib.obj
 0001:00130780       _COMP_expand_block         00531780 f   libcrypto:libcrypto-lib-comp_lib.obj
 0001:001307d0       _ossl_crypto_thread_native_start 005317d0 f   libcrypto:libcrypto-lib-arch.obj
 0001:00130880       _ossl_crypto_thread_native_join 00531880 f   libcrypto:libcrypto-lib-arch.obj
 0001:00130970       _ossl_crypto_thread_native_clean 00531970 f   libcrypto:libcrypto-lib-arch.obj
 0001:00130a00       _ossl_prov_seeding_from_dispatch 00531a00 f   libcrypto:libdefault-lib-provider_seeding.obj
 0001:00130b40       _ossl_prov_get_entropy     00531b40 f   libcrypto:libdefault-lib-provider_seeding.obj
 0001:00130b80       _ossl_prov_cleanup_entropy 00531b80 f   libcrypto:libdefault-lib-provider_seeding.obj
 0001:00130bc0       _ossl_prov_get_nonce       00531bc0 f   libcrypto:libdefault-lib-provider_seeding.obj
 0001:00130c20       _ossl_prov_cleanup_nonce   00531c20 f   libcrypto:libdefault-lib-provider_seeding.obj
 0001:00130c60       _ossl_prov_ctx_new         00531c60 f   libcrypto:libcommon-lib-provider_ctx.obj
 0001:00130c80       _ossl_prov_ctx_free        00531c80 f   libcrypto:libcommon-lib-provider_ctx.obj
 0001:00130ca0       _ossl_prov_ctx_set0_libctx 00531ca0 f   libcrypto:libcommon-lib-provider_ctx.obj
 0001:00130cc0       _ossl_prov_ctx_set0_handle 00531cc0 f   libcrypto:libcommon-lib-provider_ctx.obj
 0001:00130ce0       _ossl_prov_ctx_set0_core_bio_method 00531ce0 f   libcrypto:libcommon-lib-provider_ctx.obj
 0001:00130d00       _ossl_prov_ctx_set0_core_get_params 00531d00 f   libcrypto:libcommon-lib-provider_ctx.obj
 0001:00130d20       _ossl_prov_ctx_get_param   00531d20 f   libcrypto:libcommon-lib-provider_ctx.obj
 0001:00130dc0       _ossl_prov_ctx_get_bool_param 00531dc0 f   libcrypto:libcommon-lib-provider_ctx.obj
 0001:00130ef0       _conf_ssl_get              00531ef0 f   libcrypto:libcrypto-lib-conf_ssl.obj
 0001:00130f40       _conf_ssl_name_find        00531f40 f   libcrypto:libcrypto-lib-conf_ssl.obj
 0001:00130fd0       _conf_ssl_get_cmd          00531fd0 f   libcrypto:libcrypto-lib-conf_ssl.obj
 0001:00130ff0       _ossl_config_add_ssl_module 00531ff0 f   libcrypto:libcrypto-lib-conf_ssl.obj
 0001:00131370       _EVP_add_alg_module        00532370 f   libcrypto:libcrypto-lib-evp_cnf.obj
 0001:00131590       _ASN1_add_stable_module    00532590 f   libcrypto:libcrypto-lib-asn_mstbl.obj
 0001:001319f0       _ASN1_add_oid_module       005329f0 f   libcrypto:libcrypto-lib-asn_moid.obj
 0001:00131c20       _DSO_METHOD_openssl        00532c20 f   libcrypto:libcrypto-lib-dso_win32.obj
 0001:00132990       _BIO_s_datagram            00533990 f   libcrypto:libcrypto-lib-bss_dgram.obj
 0001:001329a0       _BIO_new_dgram             005339a0 f   libcrypto:libcrypto-lib-bss_dgram.obj
 0001:00133700       _BIO_dgram_non_fatal_error 00534700 f   libcrypto:libcrypto-lib-bss_dgram.obj
 0001:00133730       _BIO_s_null                00534730 f   libcrypto:libcrypto-lib-bss_null.obj
 0001:001337c0       _BIO_f_cipher              005347c0 f   libcrypto:libcrypto-lib-bio_enc.obj
 0001:00134020       _BIO_f_md                  00535020 f   libcrypto:libcrypto-lib-bio_md.obj
 0001:001344a0       _EVP_SignFinal_ex          005354a0 f   libcrypto:libcrypto-lib-p_sign.obj
 0001:001345f0       _PKCS7_add0_attrib_signing_time 005355f0 f   libcrypto:libcrypto-lib-pk7_attr.obj
 0001:00134670       _PKCS7_add1_attrib_digest  00535670 f   libcrypto:libcrypto-lib-pk7_attr.obj
 0001:001346c0       _BN_print                  005356c0 f   libcrypto:libcrypto-lib-bn_print.obj
 0001:00134770       _RSA_padding_add_PKCS1_type_1 00535770 f   libcrypto:libcrypto-lib-rsa_pk1.obj
 0001:00134800       _RSA_padding_check_PKCS1_type_1 00535800 f   libcrypto:libcrypto-lib-rsa_pk1.obj
 0001:00134990       _ossl_rsa_padding_add_PKCS1_type_2_ex 00535990 f   libcrypto:libcrypto-lib-rsa_pk1.obj
 0001:00134a90       _RSA_padding_check_PKCS1_type_2 00535a90 f   libcrypto:libcrypto-lib-rsa_pk1.obj
 0001:00134dc0       _ossl_rsa_padding_check_PKCS1_type_2 00535dc0 f   libcrypto:libcrypto-lib-rsa_pk1.obj
 0001:001353e0       _ossl_rsa_padding_check_PKCS1_type_2_TLS 005363e0 f   libcrypto:libcrypto-lib-rsa_pk1.obj
 0001:001355e0       _RSA_padding_add_none      005365e0 f   libcrypto:libcrypto-lib-rsa_none.obj
 0001:00135660       _ossl_rsa_padding_add_PKCS1_OAEP_mgf1_ex 00536660 f   libcrypto:libcrypto-lib-rsa_oaep.obj
 0001:001358a0       _RSA_padding_check_PKCS1_OAEP 005368a0 f   libcrypto:libcrypto-lib-rsa_oaep.obj
 0001:001358d0       _RSA_padding_check_PKCS1_OAEP_mgf1 005368d0 f   libcrypto:libcrypto-lib-rsa_oaep.obj
 0001:00135d40       _PKCS1_MGF1                00536d40 f   libcrypto:libcrypto-lib-rsa_oaep.obj
 0001:00135e80       _BN_BLINDING_new           00536e80 f   libcrypto:libcrypto-lib-bn_blind.obj
 0001:00135f70       _BN_BLINDING_free          00536f70 f   libcrypto:libcrypto-lib-bn_blind.obj
 0001:00135fc0       _BN_BLINDING_update        00536fc0 f   libcrypto:libcrypto-lib-bn_blind.obj
 0001:001360d0       _BN_BLINDING_convert_ex    005370d0 f   libcrypto:libcrypto-lib-bn_blind.obj
 0001:00136180       _BN_BLINDING_invert_ex     00537180 f   libcrypto:libcrypto-lib-bn_blind.obj
 0001:00136250       _BN_BLINDING_set_current_thread 00537250 f   libcrypto:libcrypto-lib-bn_blind.obj
 0001:00136260       _BN_BLINDING_create_param  00537260 f   libcrypto:libcrypto-lib-bn_blind.obj
 0001:00136410       _RSA_padding_add_X931      00537410 f   libcrypto:libcrypto-lib-rsa_x931.obj
 0001:001364b0       _RSA_padding_check_X931    005374b0 f   libcrypto:libcrypto-lib-rsa_x931.obj
 0001:001365c0       _RSA_X931_hash_id          005375c0 f   libcrypto:libcrypto-lib-rsa_x931.obj
 0001:00136610       _BN_nnmod                  00537610 f   libcrypto:libcrypto-lib-bn_mod.obj
 0001:001366a0       _BN_mod_add                005376a0 f   libcrypto:libcrypto-lib-bn_mod.obj
 0001:001366e0       _bn_mod_add_fixed_top      005376e0 f   libcrypto:libcrypto-lib-bn_mod.obj
 0001:00136870       _BN_mod_add_quick          00537870 f   libcrypto:libcrypto-lib-bn_mod.obj
 0001:001368b0       _BN_mod_sub                005378b0 f   libcrypto:libcrypto-lib-bn_mod.obj
 0001:001368f0       _bn_mod_sub_fixed_top      005378f0 f   libcrypto:libcrypto-lib-bn_mod.obj
 0001:00136a80       _BN_mod_sub_quick          00537a80 f   libcrypto:libcrypto-lib-bn_mod.obj
 0001:00136b00       _BN_mod_mul                00537b00 f   libcrypto:libcrypto-lib-bn_mod.obj
 0001:00136b80       _BN_mod_sqr                00537b80 f   libcrypto:libcrypto-lib-bn_mod.obj
 0001:00136bc0       _BN_mod_lshift1_quick      00537bc0 f   libcrypto:libcrypto-lib-bn_mod.obj
 0001:00136c10       _BN_mod_lshift_quick       00537c10 f   libcrypto:libcrypto-lib-bn_mod.obj
 0001:00136ce0       _ossl_gen_deterministic_nonce_rfc6979 00537ce0 f   libcrypto:libcrypto-lib-deterministic_nonce.obj
 0001:001370e0       _BN_mod_exp2_mont          005380e0 f   libcrypto:libcrypto-lib-bn_exp2.obj
 0001:00137670       _ossl_ecdsa_sign_setup     00538670 f   libcrypto:libcrypto-lib-ecdsa_ossl.obj
 0001:001376d0       _ossl_ecdsa_sign_sig       005386d0 f   libcrypto:libcrypto-lib-ecdsa_ossl.obj
 0001:00137730       _ossl_ecdsa_verify_sig     00538730 f   libcrypto:libcrypto-lib-ecdsa_ossl.obj
 0001:00137790       _ossl_ecdsa_sign           00538790 f   libcrypto:libcrypto-lib-ecdsa_ossl.obj
 0001:00137810       _ossl_ecdsa_deterministic_sign 00538810 f   libcrypto:libcrypto-lib-ecdsa_ossl.obj
 0001:00137d30       _ossl_ecdsa_simple_sign_setup 00538d30 f   libcrypto:libcrypto-lib-ecdsa_ossl.obj
 0001:00137d60       _ossl_ecdsa_simple_sign_sig 00538d60 f   libcrypto:libcrypto-lib-ecdsa_ossl.obj
 0001:001381d0       _ossl_ecdsa_verify         005391d0 f   libcrypto:libcrypto-lib-ecdsa_ossl.obj
 0001:00138280       _ossl_ecdsa_simple_verify_sig 00539280 f   libcrypto:libcrypto-lib-ecdsa_ossl.obj
 0001:001386f0       _ossl_ecdh_compute_key     005396f0 f   libcrypto:libcrypto-lib-ecdh_ossl.obj
 0001:00138750       _ossl_ecdh_simple_compute_key 00539750 f   libcrypto:libcrypto-lib-ecdh_ossl.obj
 0001:00138a40       _ossl_HPKE_KEM_INFO_find_curve 00539a40 f   libcrypto:libcrypto-lib-hpke_util.obj
 0001:00138ac0       _ossl_HPKE_KEM_INFO_find_id 00539ac0 f   libcrypto:libcrypto-lib-hpke_util.obj
 0001:00138b30       _ossl_HPKE_KEM_INFO_find_random 00539b30 f   libcrypto:libcrypto-lib-hpke_util.obj
 0001:00138b80       _ossl_HPKE_KDF_INFO_find_id 00539b80 f   libcrypto:libcrypto-lib-hpke_util.obj
 0001:00138be0       _ossl_HPKE_KDF_INFO_find_random 00539be0 f   libcrypto:libcrypto-lib-hpke_util.obj
 0001:00138c30       _ossl_HPKE_AEAD_INFO_find_id 00539c30 f   libcrypto:libcrypto-lib-hpke_util.obj
 0001:00138c90       _ossl_HPKE_AEAD_INFO_find_random 00539c90 f   libcrypto:libcrypto-lib-hpke_util.obj
 0001:00138ce0       _ossl_hpke_kdf_extract     00539ce0 f   libcrypto:libcrypto-lib-hpke_util.obj
 0001:00138e40       _ossl_hpke_kdf_expand      00539e40 f   libcrypto:libcrypto-lib-hpke_util.obj
 0001:00138e70       _ossl_hpke_labeled_extract 00539e70 f   libcrypto:libcrypto-lib-hpke_util.obj
 0001:00139020       _ossl_hpke_labeled_expand  0053a020 f   libcrypto:libcrypto-lib-hpke_util.obj
 0001:001391f0       _ossl_kdf_ctx_create       0053a1f0 f   libcrypto:libcrypto-lib-hpke_util.obj
 0001:00139310       _ossl_hpke_str2suite       0053a310 f   libcrypto:libcrypto-lib-hpke_util.obj
 0001:00139560       _ossl_eckem_modename2id    0053a560 f   libcrypto:libdefault-lib-kem_util.obj
 0001:001395b0       _ossl_ec_GF2m_simple_set_compressed_coordinates 0053a5b0 f   libcrypto:libcrypto-lib-ec2_oct.obj
 0001:00139800       _ossl_ec_GF2m_simple_point2oct 0053a800 f   libcrypto:libcrypto-lib-ec2_oct.obj
 0001:00139b70       _ossl_ec_GF2m_simple_oct2point 0053ab70 f   libcrypto:libcrypto-lib-ec2_oct.obj
 0001:00139eb0       _ossl_ec_GFp_simple_set_compressed_coordinates 0053aeb0 f   libcrypto:libcrypto-lib-ecp_oct.obj
 0001:0013a2a0       _ossl_ec_GFp_simple_point2oct 0053b2a0 f   libcrypto:libcrypto-lib-ecp_oct.obj
 0001:0013a5f0       _ossl_ec_GFp_simple_oct2point 0053b5f0 f   libcrypto:libcrypto-lib-ecp_oct.obj
 0001:0013a8f0       _EC_GFp_mont_method        0053b8f0 f   libcrypto:libcrypto-lib-ecp_mont.obj
 0001:0013a900       _ossl_ec_GFp_mont_group_init 0053b900 f   libcrypto:libcrypto-lib-ecp_mont.obj
 0001:0013a920       _ossl_ec_GFp_mont_group_finish 0053b920 f   libcrypto:libcrypto-lib-ecp_mont.obj
 0001:0013a960       _ossl_ec_GFp_mont_group_clear_finish 0053b960 f   libcrypto:libcrypto-lib-ecp_mont.obj
 0001:0013a9a0       _ossl_ec_GFp_mont_group_copy 0053b9a0 f   libcrypto:libcrypto-lib-ecp_mont.obj
 0001:0013aa40       _ossl_ec_GFp_mont_group_set_curve 0053ba40 f   libcrypto:libcrypto-lib-ecp_mont.obj
 0001:0013ab80       _ossl_ec_GFp_mont_field_mul 0053bb80 f   libcrypto:libcrypto-lib-ecp_mont.obj
 0001:0013abe0       _ossl_ec_GFp_mont_field_sqr 0053bbe0 f   libcrypto:libcrypto-lib-ecp_mont.obj
 0001:0013ac30       _ossl_ec_GFp_mont_field_inv 0053bc30 f   libcrypto:libcrypto-lib-ecp_mont.obj
 0001:0013ad30       _ossl_ec_GFp_mont_field_encode 0053bd30 f   libcrypto:libcrypto-lib-ecp_mont.obj
 0001:0013ad80       _ossl_ec_GFp_mont_field_decode 0053bd80 f   libcrypto:libcrypto-lib-ecp_mont.obj
 0001:0013add0       _ossl_ec_GFp_mont_field_set_to_one 0053bdd0 f   libcrypto:libcrypto-lib-ecp_mont.obj
 0001:0013ae20       _ossl_ec_GF2m_simple_group_init 0053be20 f   libcrypto:libcrypto-lib-ec2_smpl.obj
 0001:0013ae80       _ossl_ec_GF2m_simple_group_clear_finish 0053be80 f   libcrypto:libcrypto-lib-ec2_smpl.obj
 0001:0013aec0       _ossl_ec_GF2m_simple_group_copy 0053bec0 f   libcrypto:libcrypto-lib-ec2_smpl.obj
 0001:0013afa0       _ossl_ec_GF2m_simple_group_set_curve 0053bfa0 f   libcrypto:libcrypto-lib-ec2_smpl.obj
 0001:0013b090       _ossl_ec_GF2m_simple_group_get_curve 0053c090 f   libcrypto:libcrypto-lib-ec2_smpl.obj
 0001:0013b100       _ossl_ec_GF2m_simple_group_get_degree 0053c100 f   libcrypto:libcrypto-lib-ec2_smpl.obj
 0001:0013b120       _ossl_ec_GF2m_simple_group_check_discriminant 0053c120 f   libcrypto:libcrypto-lib-ec2_smpl.obj
 0001:0013b1e0       _ossl_ec_GF2m_simple_point_init 0053c1e0 f   libcrypto:libcrypto-lib-ec2_smpl.obj
 0001:0013b240       _ossl_ec_GF2m_simple_point_set_affine_coordinates 0053c240 f   libcrypto:libcrypto-lib-ec2_smpl.obj
 0001:0013b300       _ossl_ec_GF2m_simple_point_get_affine_coordinates 0053c300 f   libcrypto:libcrypto-lib-ec2_smpl.obj
 0001:0013b3e0       _ossl_ec_GF2m_simple_add   0053c3e0 f   libcrypto:libcrypto-lib-ec2_smpl.obj
 0001:0013b7a0       _ossl_ec_GF2m_simple_dbl   0053c7a0 f   libcrypto:libcrypto-lib-ec2_smpl.obj
 0001:0013b7c0       _ossl_ec_GF2m_simple_invert 0053c7c0 f   libcrypto:libcrypto-lib-ec2_smpl.obj
 0001:0013b830       _ossl_ec_GF2m_simple_is_at_infinity 0053c830 f   libcrypto:libcrypto-lib-ec2_smpl.obj
 0001:0013b830       _ossl_ec_GFp_simple_is_at_infinity 0053c830 f   libcrypto:libcrypto-lib-ec2_smpl.obj
 0001:0013b850       _ossl_ec_GF2m_simple_is_on_curve 0053c850 f   libcrypto:libcrypto-lib-ec2_smpl.obj
 0001:0013b9c0       _ossl_ec_GF2m_simple_cmp   0053c9c0 f   libcrypto:libcrypto-lib-ec2_smpl.obj
 0001:0013bb40       _ossl_ec_GF2m_simple_make_affine 0053cb40 f   libcrypto:libcrypto-lib-ec2_smpl.obj
 0001:0013bc40       _ossl_ec_GF2m_simple_points_make_affine 0053cc40 f   libcrypto:libcrypto-lib-ec2_smpl.obj
 0001:0013bc90       _ossl_ec_GF2m_simple_field_mul 0053cc90 f   libcrypto:libcrypto-lib-ec2_smpl.obj
 0001:0013bcc0       _ossl_ec_GF2m_simple_field_sqr 0053ccc0 f   libcrypto:libcrypto-lib-ec2_smpl.obj
 0001:0013bce0       _ossl_ec_GF2m_simple_field_div 0053cce0 f   libcrypto:libcrypto-lib-ec2_smpl.obj
 0001:0013c640       _EC_GF2m_simple_method     0053d640 f   libcrypto:libcrypto-lib-ec2_smpl.obj
 0001:0013c650       _ossl_bn_get0_small_factors 0053d650 f   libcrypto:libcrypto-lib-bn_prime.obj
 0001:0013c660       _BN_GENCB_call             0053d660 f   libcrypto:libcrypto-lib-bn_prime.obj
 0001:0013c6b0       _BN_generate_prime_ex2     0053d6b0 f   libcrypto:libcrypto-lib-bn_prime.obj
 0001:0013c8f0       _ossl_bn_check_prime       0053d8f0 f   libcrypto:libcrypto-lib-bn_prime.obj
 0001:0013c930       _ossl_bn_check_generated_prime 0053d930 f   libcrypto:libcrypto-lib-bn_prime.obj
 0001:0013c950       _BN_check_prime            0053d950 f   libcrypto:libcrypto-lib-bn_prime.obj
 0001:0013cb30       _ossl_bn_miller_rabin_is_prime 0053db30 f   libcrypto:libcrypto-lib-bn_prime.obj
 0001:0013d390       _ossl_rsa_check_public_exponent 0053e390 f   libcrypto:libcrypto-lib-rsa_sp800_56b_check.obj
 0001:0013d3d0       _ossl_rsa_check_pminusq_diff 0053e3d0 f   libcrypto:libcrypto-lib-rsa_sp800_56b_check.obj
 0001:0013d440       _ossl_rsa_get_lcm          0053e440 f   libcrypto:libcrypto-lib-rsa_sp800_56b_check.obj
 0001:0013d4d0       _ossl_rsa_sp800_56b_check_public 0053e4d0 f   libcrypto:libcrypto-lib-rsa_sp800_56b_check.obj
 0001:0013d6c0       _ossl_rsa_sp800_56b_check_private 0053e6c0 f   libcrypto:libcrypto-lib-rsa_sp800_56b_check.obj
 0001:0013d710       _ossl_bn_rsa_fips186_5_gen_prob_primes 0053e710 f   libcrypto:libcrypto-lib-bn_rsa_fips186_5.obj
 0001:0013dab0       _ossl_bn_rsa_fips186_5_derive_prime 0053eab0 f   libcrypto:libcrypto-lib-bn_rsa_fips186_5.obj
 0001:0013df80       _ossl_null_provider_init   0053ef80 f   libcrypto:libcrypto-lib-nullprov.obj
 0001:0013e0f0       _ossl_base_provider_init   0053f0f0 f   libcrypto:libcrypto-lib-baseprov.obj
 0001:0013e330       _ossl_legacy_provider_init 0053f330 f   libcrypto:libcrypto-lib-legacyprov.obj
 0001:0013e550       _ossl_default_provider_init 0053f550 f   libcrypto:libcrypto-lib-defltprov.obj
 0001:0013e660       _EVP_PBE_scrypt_ex         0053f660 f   libcrypto:libcrypto-lib-pbe_scrypt.obj
 0001:0013e860       _PBEPARAM_it               0053f860 f   libcrypto:libcrypto-lib-p5_pbe.obj
 0001:0013e870       _PBEPARAM_new              0053f870 f   libcrypto:libcrypto-lib-p5_pbe.obj
 0001:0013e880       _PBEPARAM_free             0053f880 f   libcrypto:libcrypto-lib-p5_pbe.obj
 0001:0013e8a0       _PKCS5_pbe_set0_algor_ex   0053f8a0 f   libcrypto:libcrypto-lib-p5_pbe.obj
 0001:0013ea30       _PKCS5_pbe_set_ex          0053fa30 f   libcrypto:libcrypto-lib-p5_pbe.obj
 0001:0013eaa0       _PKCS12_key_gen_utf8_ex    0053faa0 f   libcrypto:libcrypto-lib-p12_key.obj
 0001:0013eb50       _PKCS12_key_gen_uni_ex     0053fb50 f   libcrypto:libcrypto-lib-p12_key.obj
 0001:0013ecb0       _OPENSSL_DIR_read          0053fcb0 f   libcrypto:libcrypto-lib-o_dir.obj
 0001:0013ef30       _OPENSSL_DIR_end           0053ff30 f   libcrypto:libcrypto-lib-o_dir.obj
 0001:0013ef80       _SCT_CTX_new               0053ff80 f   libcrypto:libcrypto-lib-ct_sct_ctx.obj
 0001:0013efe0       _SCT_CTX_free              0053ffe0 f   libcrypto:libcrypto-lib-ct_sct_ctx.obj
 0001:0013f060       _SCT_CTX_set1_cert         00540060 f   libcrypto:libcrypto-lib-ct_sct_ctx.obj
 0001:0013f360       _SCT_CTX_set1_issuer_pubkey 00540360 f   libcrypto:libcrypto-lib-ct_sct_ctx.obj
 0001:0013f480       _SCT_CTX_set1_pubkey       00540480 f   libcrypto:libcrypto-lib-ct_sct_ctx.obj
 0001:0013f4e0       _SCT_CTX_set_time          005404e0 f   libcrypto:libcrypto-lib-ct_sct_ctx.obj
 0001:0013f500       _SCT_CTX_verify            00540500 f   libcrypto:libcrypto-lib-ct_vfy.obj
 0001:0013f8b0       _CTLOG_STORE_new_ex        005408b0 f   libcrypto:libcrypto-lib-ct_log.obj
 0001:0013f950       _CTLOG_STORE_free          00540950 f   libcrypto:libcrypto-lib-ct_log.obj
 0001:0013f9a0       _CTLOG_free                005409a0 f   libcrypto:libcrypto-lib-ct_log.obj
 0001:0013f9f0       _CTLOG_STORE_get0_log_by_id 005409f0 f   libcrypto:libcrypto-lib-ct_log.obj
 0001:0013fa50       _UI_UTIL_wrap_read_pem_callback 00540a50 f   libcrypto:libcrypto-lib-ui_util.obj
 0001:0013fcb0       _ossl_ffc_params_validate_unverifiable_g 00540cb0 f   libcrypto:libcrypto-lib-ffc_params_validate.obj
 0001:0013fd30       _ossl_ffc_params_FIPS186_4_validate 00540d30 f   libcrypto:libcrypto-lib-ffc_params_validate.obj
 0001:0013fd80       _ossl_ffc_params_FIPS186_2_validate 00540d80 f   libcrypto:libcrypto-lib-ffc_params_validate.obj
 0001:0013fde0       _ossl_ffc_params_simple_validate 00540de0 f   libcrypto:libcrypto-lib-ffc_params_validate.obj
 0001:0013fec0       _ossl_ffc_params_full_validate 00540ec0 f   libcrypto:libcrypto-lib-ffc_params_validate.obj
 0001:0013fff0       _ossl_ffc_generate_private_key 00540ff0 f   libcrypto:libcrypto-lib-ffc_key_generate.obj
 0001:00140100       _ossl_gf_mul               00541100 f   libcrypto:libcrypto-lib-f_impl32.obj
 0001:001403a0       _ossl_gf_mulw_unsigned     005413a0 f   libcrypto:libcrypto-lib-f_impl32.obj
 0001:001404d0       _ossl_gf_sqr               005414d0 f   libcrypto:libcrypto-lib-f_impl32.obj
 0001:001404f0       _gf_serialize              005414f0 f   libcrypto:libcrypto-lib-f_generic.obj
 0001:001405a0       _gf_hibit                  005415a0 f   libcrypto:libcrypto-lib-f_generic.obj
 0001:001405e0       _gf_lobit                  005415e0 f   libcrypto:libcrypto-lib-f_generic.obj
 0001:00140620       _gf_deserialize            00541620 f   libcrypto:libcrypto-lib-f_generic.obj
 0001:00140770       _gf_strong_reduce          00541770 f   libcrypto:libcrypto-lib-f_generic.obj
 0001:00140870       _gf_sub                    00541870 f   libcrypto:libcrypto-lib-f_generic.obj
 0001:00140900       _gf_add                    00541900 f   libcrypto:libcrypto-lib-f_generic.obj
 0001:00140970       _gf_eq                     00541970 f   libcrypto:libcrypto-lib-f_generic.obj
 0001:001409d0       _gf_isr                    005419d0 f   libcrypto:libcrypto-lib-f_generic.obj
 0001:00140d30       _ossl_curve448_scalar_mul  00541d30 f   libcrypto:libcrypto-lib-scalar.obj
 0001:00140f70       _ossl_curve448_scalar_sub  00541f70 f   libcrypto:libcrypto-lib-scalar.obj
 0001:00140f90       _ossl_curve448_scalar_add  00541f90 f   libcrypto:libcrypto-lib-scalar.obj
 0001:00141010       _ossl_curve448_scalar_decode 00542010 f   libcrypto:libcrypto-lib-scalar.obj
 0001:001410c0       _ossl_curve448_scalar_destroy 005420c0 f   libcrypto:libcrypto-lib-scalar.obj
 0001:001410e0       _ossl_curve448_scalar_decode_long 005420e0 f   libcrypto:libcrypto-lib-scalar.obj
 0001:00141210       _ossl_curve448_scalar_encode 00542210 f   libcrypto:libcrypto-lib-scalar.obj
 0001:00141250       _ossl_curve448_scalar_halve 00542250 f   libcrypto:libcrypto-lib-scalar.obj
 0001:00141300       _UI_null                   00542300 f   libcrypto:libcrypto-lib-ui_null.obj
 0001:001419e0       _UI_get_default_method     005429e0 f   libcrypto:libcrypto-lib-ui_openssl.obj
 0001:00141a00       _bn_mul_comba8             00542a00     libcrypto:libcrypto-lib-co-586.obj
 0001:00141e50       _bn_mul_comba4             00542e50     libcrypto:libcrypto-lib-co-586.obj
 0001:00141f90       _bn_sqr_comba8             00542f90     libcrypto:libcrypto-lib-co-586.obj
 0001:001422c0       _bn_sqr_comba4             005432c0     libcrypto:libcrypto-lib-co-586.obj
 0001:00143000       _ecp_nistz256_precomputed  00544000     libcrypto:libcrypto-lib-ecp_nistz256-x86.obj
 0001:001680c0       _ecp_nistz256_mul_by_2     005690c0     libcrypto:libcrypto-lib-ecp_nistz256-x86.obj
 0001:001680e0       _ecp_nistz256_mul_by_3     005690e0     libcrypto:libcrypto-lib-ecp_nistz256-x86.obj
 0001:00168110       _ecp_nistz256_div_by_2     00569110     libcrypto:libcrypto-lib-ecp_nistz256-x86.obj
 0001:00168200       _ecp_nistz256_add          00569200     libcrypto:libcrypto-lib-ecp_nistz256-x86.obj
 0001:001682f0       _ecp_nistz256_sub          005692f0     libcrypto:libcrypto-lib-ecp_nistz256-x86.obj
 0001:001683a0       _ecp_nistz256_neg          005693a0     libcrypto:libcrypto-lib-ecp_nistz256-x86.obj
 0001:001683f0       _ecp_nistz256_to_mont      005693f0     libcrypto:libcrypto-lib-ecp_nistz256-x86.obj
 0001:00168420       _ecp_nistz256_from_mont    00569420     libcrypto:libcrypto-lib-ecp_nistz256-x86.obj
 0001:00168450       _ecp_nistz256_mul_mont     00569450     libcrypto:libcrypto-lib-ecp_nistz256-x86.obj
 0001:00168480       _ecp_nistz256_sqr_mont     00569480     libcrypto:libcrypto-lib-ecp_nistz256-x86.obj
 0001:00169080       _ecp_nistz256_scatter_w5   0056a080     libcrypto:libcrypto-lib-ecp_nistz256-x86.obj
 0001:001690d0       _ecp_nistz256_gather_w5    0056a0d0     libcrypto:libcrypto-lib-ecp_nistz256-x86.obj
 0001:001691f0       _ecp_nistz256_scatter_w7   0056a1f0     libcrypto:libcrypto-lib-ecp_nistz256-x86.obj
 0001:00169240       _ecp_nistz256_gather_w7    0056a240     libcrypto:libcrypto-lib-ecp_nistz256-x86.obj
 0001:00169560       _ecp_nistz256_point_double 0056a560     libcrypto:libcrypto-lib-ecp_nistz256-x86.obj
 0001:00169760       _ecp_nistz256_point_add    0056a760     libcrypto:libcrypto-lib-ecp_nistz256-x86.obj
 0001:00169f00       _ecp_nistz256_point_add_affine 0056af00     libcrypto:libcrypto-lib-ecp_nistz256-x86.obj
 0001:0016a520       _BN_RECP_CTX_init          0056b520 f   libcrypto:libcrypto-lib-bn_recp.obj
 0001:0016a550       _BN_RECP_CTX_free          0056b550 f   libcrypto:libcrypto-lib-bn_recp.obj
 0001:0016a590       _BN_RECP_CTX_set           0056b590 f   libcrypto:libcrypto-lib-bn_recp.obj
 0001:0016a5f0       _BN_mod_mul_reciprocal     0056b5f0 f   libcrypto:libcrypto-lib-bn_recp.obj
 0001:0016a670       _BN_div_recp               0056b670 f   libcrypto:libcrypto-lib-bn_recp.obj
 0001:0016a8c0       _BN_reciprocal             0056b8c0 f   libcrypto:libcrypto-lib-bn_recp.obj
 0001:0016a9b0       _ossl_c448_ed448_derive_public_key 0056b9b0 f   libcrypto:libcrypto-lib-eddsa.obj
 0001:0016aa90       _ossl_c448_ed448_sign      0056ba90 f   libcrypto:libcrypto-lib-eddsa.obj
 0001:0016ae80       _ossl_c448_ed448_verify    0056be80 f   libcrypto:libcrypto-lib-eddsa.obj
 0001:0016b020       _ossl_ed448_sign           0056c020 f   libcrypto:libcrypto-lib-eddsa.obj
 0001:0016b060       _ossl_ed448_verify         0056c060 f   libcrypto:libcrypto-lib-eddsa.obj
 0001:0016b0a0       _ossl_ed448_public_from_private 0056c0a0 f   libcrypto:libcrypto-lib-eddsa.obj
 0001:0016b0d0       _ossl_ffc_validate_public_key_partial 0056c0d0 f   libcrypto:libcrypto-lib-ffc_key_validate.obj
 0001:0016b1d0       _ossl_ffc_validate_public_key 0056c1d0 f   libcrypto:libcrypto-lib-ffc_key_validate.obj
 0001:0016b290       _ossl_ffc_validate_private_key 0056c290 f   libcrypto:libcrypto-lib-ffc_key_validate.obj
 0001:0016b300       _DSA_do_verify             0056c300 f   libcrypto:libcrypto-lib-dsa_vrf.obj
 0001:0016b320       _ossl_rand_uniform_uint32  0056c320 f   libcrypto:libcrypto-lib-rand_uniform.obj
 0001:0016b420       _BN_GF2m_add               0056c420 f   libcrypto:libcrypto-lib-bn_gf2m.obj
 0001:0016b4b0       _BN_GF2m_mod_arr           0056c4b0 f   libcrypto:libcrypto-lib-bn_gf2m.obj
 0001:0016b720       _BN_GF2m_mod               0056c720 f   libcrypto:libcrypto-lib-bn_gf2m.obj
 0001:0016b790       _BN_GF2m_mod_mul_arr       0056c790 f   libcrypto:libcrypto-lib-bn_gf2m.obj
 0001:0016b920       _BN_GF2m_mod_mul           0056c920 f   libcrypto:libcrypto-lib-bn_gf2m.obj
 0001:0016b9d0       _BN_GF2m_mod_sqr_arr       0056c9d0 f   libcrypto:libcrypto-lib-bn_gf2m.obj
 0001:0016bbf0       _BN_GF2m_mod_inv           0056cbf0 f   libcrypto:libcrypto-lib-bn_gf2m.obj
 0001:0016c030       _BN_GF2m_mod_div           0056d030 f   libcrypto:libcrypto-lib-bn_gf2m.obj
 0001:0016c0b0       _BN_GF2m_mod_exp_arr       0056d0b0 f   libcrypto:libcrypto-lib-bn_gf2m.obj
 0001:0016c1d0       _BN_GF2m_mod_sqrt_arr      0056d1d0 f   libcrypto:libcrypto-lib-bn_gf2m.obj
 0001:0016c270       _BN_GF2m_mod_solve_quad_arr 0056d270 f   libcrypto:libcrypto-lib-bn_gf2m.obj
 0001:0016c5f0       _BN_GF2m_poly2arr          0056d5f0 f   libcrypto:libcrypto-lib-bn_gf2m.obj
 0001:0016c6b0       _BN_kronecker              0056d6b0 f   libcrypto:libcrypto-lib-bn_kron.obj
 0001:0016c920       _BN_mod_sqrt               0056d920 f   libcrypto:libcrypto-lib-bn_sqrt.obj
 0001:0016f0a0       _ossl_epki2pki_der_decode  005700a0 f   libcrypto:libdefault-lib-decode_epki2pki.obj
 0001:0016fa80       _ossl_spki2typespki_der_decode 00570a80 f   libcrypto:libdefault-lib-decode_spki2typespki.obj
 0001:0017e860       _ossl_prov_bio_from_dispatch 0057f860 f   libcrypto:libdefault-lib-bio_prov.obj
 0001:0017e9c0       _ossl_prov_bio_read_ex     0057f9c0 f   libcrypto:libdefault-lib-bio_prov.obj
 0001:0017e9f0       _ossl_prov_bio_write_ex    0057f9f0 f   libcrypto:libdefault-lib-bio_prov.obj
 0001:0017ea20       _ossl_prov_bio_gets        0057fa20 f   libcrypto:libdefault-lib-bio_prov.obj
 0001:0017ea50       _ossl_prov_bio_puts        0057fa50 f   libcrypto:libdefault-lib-bio_prov.obj
 0001:0017ea70       _ossl_prov_bio_ctrl        0057fa70 f   libcrypto:libdefault-lib-bio_prov.obj
 0001:0017eaa0       _ossl_prov_bio_up_ref      0057faa0 f   libcrypto:libdefault-lib-bio_prov.obj
 0001:0017eac0       _ossl_prov_bio_free        0057fac0 f   libcrypto:libdefault-lib-bio_prov.obj
 0001:0017eae0       _ossl_bio_prov_init_bio_method 0057fae0 f   libcrypto:libdefault-lib-bio_prov.obj
 0001:0017ecc0       _ossl_bio_new_from_core_bio 0057fcc0 f   libcrypto:libdefault-lib-bio_prov.obj
 0001:0017ed20       _generic_free              0057fd20 f   libcrypto:libdefault-lib-generic.obj
 0001:0017ed60       _generic_import            0057fd60 f   libcrypto:libdefault-lib-generic.obj
 0001:0017eec0       _generic_imp_settable_params 0057fec0 f   libcrypto:libdefault-lib-generic.obj
 0001:0017eed0       _generic_export            0057fed0 f   libcrypto:libdefault-lib-generic.obj
 0001:00180820       _rc5_gettable_ctx_params   00581820 f   libcrypto:liblegacy-lib-cipher_rc5.obj
 0001:00180830       _rc5_settable_ctx_params   00581830 f   libcrypto:liblegacy-lib-cipher_rc5.obj
 0001:00182540       _ossl_prov_get_capabilities 00583540 f   libcrypto:libdefault-lib-capabilities.obj
 0001:00184db0       _ossl_prov_ml_kem_new      00585db0 f   libcrypto:libdefault-lib-ml_kem_kmgmt.obj
 0001:001868e0       _ossl_mac_key_new          005878e0 f   libcrypto:libdefault-lib-mac_legacy_kmgmt.obj
 0001:00186920       _ossl_mac_key_free         00587920 f   libcrypto:libdefault-lib-mac_legacy_kmgmt.obj
 0001:00187b00       _ossl_kdf_data_new         00588b00 f   libcrypto:libdefault-lib-kdf_legacy_kmgmt.obj
 0001:00187b50       _ossl_kdf_data_free        00588b50 f   libcrypto:libdefault-lib-kdf_legacy_kmgmt.obj
 0001:00187b80       _ossl_kdf_data_up_ref      00588b80 f   libcrypto:libdefault-lib-kdf_legacy_kmgmt.obj
 0001:00187b80       _ossl_mac_key_up_ref       00588b80 f   libcrypto:libdefault-lib-kdf_legacy_kmgmt.obj
 0001:00187be0       _ossl_prov_ml_dsa_new      00588be0 f   libcrypto:libdefault-lib-ml_dsa_kmgmt.obj
 0001:001922c0       _ossl_ecx_dhkem_derive_private 005932c0 f   libcrypto:libdefault-lib-ecx_kem.obj
 0001:0019f8a0       _ossl_drbg_hmac_init       005a08a0 f   libcrypto:libdefault-lib-drbg_hmac.obj
 0001:0019fe50       _ossl_drbg_hmac_generate   005a0e50 f   libcrypto:libdefault-lib-drbg_hmac.obj
 0001:001bc760       _ossl_chacha20_initctx     005bd760 f   libcrypto:libdefault-lib-cipher_chacha20.obj
 0001:001bce10       _ossl_chacha20_einit       005bde10 f   libcrypto:libdefault-lib-cipher_chacha20.obj
 0001:001bce70       _ossl_chacha20_dinit       005bde70 f   libcrypto:libdefault-lib-cipher_chacha20.obj
 0001:001bd5d0       _EVP_aes_256_cbc_hmac_sha256 005be5d0 f   libcrypto:libdefault-lib-cipher_aes_cbc_hmac_sha512_etm_hw.obj
 0001:001bd5d0       _BIO_f_brotli              005be5d0 f   libcrypto:libdefault-lib-cipher_aes_cbc_hmac_sha512_etm_hw.obj
 0001:001bd5d0       _EVP_aes_128_cbc_hmac_sha1 005be5d0 f   libcrypto:libdefault-lib-cipher_aes_cbc_hmac_sha512_etm_hw.obj
 0001:001bd5d0       _OSSL_trace_set_channel    005be5d0 f   libcrypto:libdefault-lib-cipher_aes_cbc_hmac_sha512_etm_hw.obj
 0001:001bd5d0       _ossl_quic_num_ciphers     005be5d0 f   libcrypto:libdefault-lib-cipher_aes_cbc_hmac_sha512_etm_hw.obj
 0001:001bd5d0       _ossl_quic_get_cipher      005be5d0 f   libcrypto:libdefault-lib-cipher_aes_cbc_hmac_sha512_etm_hw.obj
 0001:001bd5d0       ?SendCommunicate@SPShiori@@QAEHXZ 005be5d0 f   libcrypto:libdefault-lib-cipher_aes_cbc_hmac_sha512_etm_hw.obj
 0001:001bd5d0       _ossl_cipher_capable_aes_cbc_hmac_sha256_etm 005be5d0 f   libcrypto:libdefault-lib-cipher_aes_cbc_hmac_sha512_etm_hw.obj
 0001:001bd5d0       _OPENSSL_issetugid         005be5d0 f   libcrypto:libdefault-lib-cipher_aes_cbc_hmac_sha512_etm_hw.obj
 0001:001bd5d0       _BIO_f_zstd                005be5d0 f   libcrypto:libdefault-lib-cipher_aes_cbc_hmac_sha512_etm_hw.obj
 0001:001bd5d0       _openssl_init_fork_handlers 005be5d0 f   libcrypto:libdefault-lib-cipher_aes_cbc_hmac_sha512_etm_hw.obj
 0001:001bd5d0       _EVP_aes_256_cbc_hmac_sha1 005be5d0 f   libcrypto:libdefault-lib-cipher_aes_cbc_hmac_sha512_etm_hw.obj
 0001:001bd5d0       _ossl_quic_renegotiate_check 005be5d0 f   libcrypto:libdefault-lib-cipher_aes_cbc_hmac_sha512_etm_hw.obj
 0001:001bd5d0       _COMP_brotli_oneshot       005be5d0 f   libcrypto:libdefault-lib-cipher_aes_cbc_hmac_sha512_etm_hw.obj
 0001:001bd5d0       _COMP_zstd_oneshot         005be5d0 f   libcrypto:libdefault-lib-cipher_aes_cbc_hmac_sha512_etm_hw.obj
 0001:001bd5d0       _ossl_cipher_capable_aes_cbc_hmac_sha1 005be5d0 f   libcrypto:libdefault-lib-cipher_aes_cbc_hmac_sha512_etm_hw.obj
 0001:001bd5d0       _ossl_cipher_capable_aes_cbc_hmac_sha256 005be5d0 f   libcrypto:libdefault-lib-cipher_aes_cbc_hmac_sha512_etm_hw.obj
 0001:001bd5d0       _ossl_aes_cfb128_vaes_eligible 005be5d0 f   libcrypto:libdefault-lib-cipher_aes_cbc_hmac_sha512_etm_hw.obj
 0001:001bd5d0       ?SPShiori_LoadCompatModuleW@@YAPAUHINSTANCE__@@PBG@Z 005be5d0 f   libcrypto:libdefault-lib-cipher_aes_cbc_hmac_sha512_etm_hw.obj
 0001:001bd5d0       _openssl_get_fork_id       005be5d0 f   libcrypto:libdefault-lib-cipher_aes_cbc_hmac_sha512_etm_hw.obj
 0001:001bd5d0       _ossl_cipher_capable_aes_cbc_hmac_sha1_etm 005be5d0 f   libcrypto:libdefault-lib-cipher_aes_cbc_hmac_sha512_etm_hw.obj
 0001:001bd5d0       _EVP_aes_128_cbc_hmac_sha256 005be5d0 f   libcrypto:libdefault-lib-cipher_aes_cbc_hmac_sha512_etm_hw.obj
 0001:001bd5d0       _ossl_cipher_capable_aes_cbc_hmac_sha512_etm 005be5d0 f   libcrypto:libdefault-lib-cipher_aes_cbc_hmac_sha512_etm_hw.obj
 0001:001c2df0       _ossl_blake2s_get_ctx_params 005c3df0 f   libcrypto:libdefault-lib-blake2_prov.obj
 0001:001c2f00       _ossl_blake2s_set_ctx_params 005c3f00 f   libcrypto:libdefault-lib-blake2_prov.obj
 0001:001c3210       _ossl_blake2b_get_ctx_params 005c4210 f   libcrypto:libdefault-lib-blake2_prov.obj
 0001:001c3280       _ossl_blake2b_set_ctx_params 005c4280 f   libcrypto:libdefault-lib-blake2_prov.obj
 0001:001c6d90       _ossl_prov_cipher_reset    005c7d90 f   libcrypto:libdefault-lib-provider_util.obj
 0001:001c6dc0       _ossl_prov_cipher_copy     005c7dc0 f   libcrypto:libdefault-lib-provider_util.obj
 0001:001c6e00       _ossl_prov_cipher_load     005c7e00 f   libcrypto:libdefault-lib-provider_util.obj
 0001:001c6ea0       _ossl_prov_digest_reset    005c7ea0 f   libcrypto:libdefault-lib-provider_util.obj
 0001:001c6ed0       _ossl_prov_digest_copy     005c7ed0 f   libcrypto:libdefault-lib-provider_util.obj
 0001:001c6f10       _ossl_prov_digest_fetch    005c7f10 f   libcrypto:libdefault-lib-provider_util.obj
 0001:001c6f40       _ossl_prov_digest_load     005c7f40 f   libcrypto:libdefault-lib-provider_util.obj
 0001:001c6fa0       _ossl_prov_digest_set_md   005c7fa0 f   libcrypto:libdefault-lib-provider_util.obj
 0001:001c6fc0       _ossl_prov_set_macctx      005c7fc0 f   libcrypto:libdefault-lib-provider_util.obj
 0001:001c70c0       _ossl_prov_macctx_load     005c80c0 f   libcrypto:libdefault-lib-provider_util.obj
 0001:001c71f0       _ossl_prov_cache_exported_algorithms 005c81f0 f   libcrypto:libdefault-lib-provider_util.obj
 0001:001c7290       _ossl_prov_memdup          005c8290 f   libcrypto:libdefault-lib-provider_util.obj
 0001:001c72f0       _OPENSSL_asc2uni           005c82f0 f   libcrypto:libcrypto-lib-p12_utl.obj
 0001:001c7380       _OPENSSL_utf82uni          005c8380 f   libcrypto:libcrypto-lib-p12_utl.obj
 0001:001c74e0       _ossl_ffc_params_FIPS186_4_gen_verify 005c84e0 f   libcrypto:libcrypto-lib-ffc_params_generate.obj
 0001:001c8360       _ossl_ffc_params_FIPS186_2_gen_verify 005c9360 f   libcrypto:libcrypto-lib-ffc_params_generate.obj
 0001:001c8a80       _ossl_ffc_params_FIPS186_4_generate 005c9a80 f   libcrypto:libcrypto-lib-ffc_params_generate.obj
 0001:001c8ab0       _ossl_ffc_params_FIPS186_2_generate 005c9ab0 f   libcrypto:libcrypto-lib-ffc_params_generate.obj
 0001:001c8dc0       _bn_GF2m_mul_2x2           005c9dc0     libcrypto:libcrypto-lib-x86-gf2m.obj
 0001:001c9700       _PKCS12_pbe_crypt_ex       005ca700 f   libcrypto:libcrypto-lib-p12_decr.obj
 0001:001c9a60       _PKCS12_pbe_crypt          005caa60 f   libcrypto:libcrypto-lib-p12_decr.obj
 0001:001c9aa0       _PKCS12_item_decrypt_d2i_ex 005caaa0 f   libcrypto:libcrypto-lib-p12_decr.obj
 0001:001c9bb0       _PKCS12_item_i2d_encrypt_ex 005cabb0 f   libcrypto:libcrypto-lib-p12_decr.obj
 0001:001c9d10       _ossl_prov_get_keymgmt_new 005cad10 f   libcrypto:libdefault-lib-endecoder_common.obj
 0001:001c9d40       _ossl_prov_get_keymgmt_free 005cad40 f   libcrypto:libdefault-lib-endecoder_common.obj
 0001:001c9d70       _ossl_prov_get_keymgmt_import 005cad70 f   libcrypto:libdefault-lib-endecoder_common.obj
 0001:001c9da0       _ossl_prov_get_keymgmt_export 005cada0 f   libcrypto:libdefault-lib-endecoder_common.obj
 0001:001c9dd0       _ossl_prov_import_key      005cadd0 f   libcrypto:libdefault-lib-endecoder_common.obj
 0001:001c9e40       _ossl_prov_free_key        005cae40 f   libcrypto:libdefault-lib-endecoder_common.obj
 0001:001c9e60       _ossl_read_der             005cae60 f   libcrypto:libdefault-lib-endecoder_common.obj
 0001:001c9ee0       _ossl_ml_dsa_key_get_seed  005caee0 f   libcrypto:libcrypto-lib-ml_dsa_key.obj
 0001:001c9ef0       _ossl_ml_dsa_key_get_prov_flags 005caef0 f   libcrypto:libcrypto-lib-ml_dsa_key.obj
 0001:001c9f00       _ossl_ml_dsa_set_prekey    005caf00 f   libcrypto:libcrypto-lib-ml_dsa_key.obj
 0001:001ca060       _ossl_ml_dsa_key_fetch_digests 005cb060 f   libcrypto:libcrypto-lib-ml_dsa_key.obj
 0001:001ca0c0       _ossl_ml_dsa_key_new       005cb0c0 f   libcrypto:libcrypto-lib-ml_dsa_key.obj
 0001:001ca130       _ossl_ml_dsa_key_pub_alloc 005cb130 f   libcrypto:libcrypto-lib-ml_dsa_key.obj
 0001:001ca180       _ossl_ml_dsa_key_priv_alloc 005cb180 f   libcrypto:libcrypto-lib-ml_dsa_key.obj
 0001:001ca210       _ossl_ml_dsa_key_free      005cb210 f   libcrypto:libcrypto-lib-ml_dsa_key.obj
 0001:001ca250       _ossl_ml_dsa_key_reset     005cb250 f   libcrypto:libcrypto-lib-ml_dsa_key.obj
 0001:001ca350       _ossl_ml_dsa_key_dup       005cb350 f   libcrypto:libcrypto-lib-ml_dsa_key.obj
 0001:001ca5f0       _ossl_ml_dsa_key_equal     005cb5f0 f   libcrypto:libcrypto-lib-ml_dsa_key.obj
 0001:001ca690       _ossl_ml_dsa_key_has       005cb690 f   libcrypto:libcrypto-lib-ml_dsa_key.obj
 0001:001ca6d0       _ossl_ml_dsa_key_public_from_private 005cb6d0 f   libcrypto:libcrypto-lib-ml_dsa_key.obj
 0001:001caa70       _ossl_ml_dsa_key_pairwise_check 005cba70 f   libcrypto:libcrypto-lib-ml_dsa_key.obj
 0001:001cabf0       _ossl_ml_dsa_generate_key  005cbbf0 f   libcrypto:libcrypto-lib-ml_dsa_key.obj
 0001:001caf10       _ossl_ml_dsa_key_matches   005cbf10 f   libcrypto:libcrypto-lib-ml_dsa_key.obj
 0001:001caf30       _ossl_ml_dsa_key_get_pub   005cbf30 f   libcrypto:libcrypto-lib-ml_dsa_key.obj
 0001:001caf40       _ossl_ml_dsa_key_get_pub_len 005cbf40 f   libcrypto:libcrypto-lib-ml_dsa_key.obj
 0001:001caf50       _ossl_ml_dsa_key_get_collision_strength_bits 005cbf50 f   libcrypto:libcrypto-lib-ml_dsa_key.obj
 0001:001caf60       _ossl_ml_dsa_key_get_security_category 005cbf60 f   libcrypto:libcrypto-lib-ml_dsa_key.obj
 0001:001caf70       _ossl_ml_dsa_key_get_priv  005cbf70 f   libcrypto:libcrypto-lib-ml_dsa_key.obj
 0001:001caf80       _ossl_ml_dsa_key_get_priv_len 005cbf80 f   libcrypto:libcrypto-lib-ml_dsa_key.obj
 0001:001caf90       _ossl_ml_dsa_key_get_sig_len 005cbf90 f   libcrypto:libcrypto-lib-ml_dsa_key.obj
 0001:001cafa0       _ossl_ml_dsa_key_get_name  005cbfa0 f   libcrypto:libcrypto-lib-ml_dsa_key.obj
 0001:001cafb0       _ossl_slh_dsa_key_new      005cbfb0 f   libcrypto:libcrypto-lib-slh_dsa_key.obj
 0001:001cb180       _ossl_slh_dsa_key_free     005cc180 f   libcrypto:libcrypto-lib-slh_dsa_key.obj
 0001:001cb1b0       _ossl_slh_dsa_key_dup      005cc1b0 f   libcrypto:libcrypto-lib-slh_dsa_key.obj
 0001:001cb2d0       _ossl_slh_dsa_key_equal    005cc2d0 f   libcrypto:libcrypto-lib-slh_dsa_key.obj
 0001:001cb360       _ossl_slh_dsa_key_has      005cc360 f   libcrypto:libcrypto-lib-slh_dsa_key.obj
 0001:001cb3a0       _ossl_slh_dsa_key_pairwise_check 005cc3a0 f   libcrypto:libcrypto-lib-slh_dsa_key.obj
 0001:001cb3f0       _ossl_slh_dsa_key_reset    005cc3f0 f   libcrypto:libcrypto-lib-slh_dsa_key.obj
 0001:001cb420       _ossl_slh_dsa_key_fromdata 005cc420 f   libcrypto:libcrypto-lib-slh_dsa_key.obj
 0001:001cb5d0       _ossl_slh_dsa_generate_key 005cc5d0 f   libcrypto:libcrypto-lib-slh_dsa_key.obj
 0001:001cb6c0       _ossl_slh_dsa_key_type_matches 005cc6c0 f   libcrypto:libcrypto-lib-slh_dsa_key.obj
 0001:001cb6f0       _ossl_slh_dsa_key_get_pub  005cc6f0 f   libcrypto:libcrypto-lib-slh_dsa_key.obj
 0001:001cb700       _ossl_slh_dsa_key_get_pub_len 005cc700 f   libcrypto:libcrypto-lib-slh_dsa_key.obj
 0001:001cb720       _ossl_slh_dsa_key_get_priv 005cc720 f   libcrypto:libcrypto-lib-slh_dsa_key.obj
 0001:001cb740       _ossl_slh_dsa_key_get_priv_len 005cc740 f   libcrypto:libcrypto-lib-slh_dsa_key.obj
 0001:001cb760       _ossl_slh_dsa_key_get_n    005cc760 f   libcrypto:libcrypto-lib-slh_dsa_key.obj
 0001:001cb780       _ossl_slh_dsa_key_get_security_category 005cc780 f   libcrypto:libcrypto-lib-slh_dsa_key.obj
 0001:001cb7a0       _ossl_slh_dsa_key_get_sig_len 005cc7a0 f   libcrypto:libcrypto-lib-slh_dsa_key.obj
 0001:001cb7c0       _ossl_slh_dsa_key_get_name 005cc7c0 f   libcrypto:libcrypto-lib-slh_dsa_key.obj
 0001:001cb7d0       _ossl_slh_dsa_key_get_type 005cc7d0 f   libcrypto:libcrypto-lib-slh_dsa_key.obj
 0001:001cb7f0       _ossl_slh_dsa_set_priv     005cc7f0 f   libcrypto:libcrypto-lib-slh_dsa_key.obj
 0001:001cb850       _ossl_slh_dsa_set_pub      005cc850 f   libcrypto:libcrypto-lib-slh_dsa_key.obj
 0001:001cb8b0       _ossl_slh_dsa_key_to_text  005cc8b0 f   libcrypto:libcrypto-lib-slh_dsa_key.obj
 0001:001cba00       _ossl_ml_kem_key_reset     005cca00 f   libcrypto:libcrypto-lib-ml_kem.obj
 0001:001cbaa0       _ossl_ml_kem_get_vinfo     005ccaa0 f   libcrypto:libcrypto-lib-ml_kem.obj
 0001:001cbae0       _ossl_ml_kem_key_fetch_digest 005ccae0 f   libcrypto:libcrypto-lib-ml_kem.obj
 0001:001cbb90       _ossl_ml_kem_key_new       005ccb90 f   libcrypto:libcrypto-lib-ml_kem.obj
 0001:001cbc90       _ossl_ml_kem_key_dup       005ccc90 f   libcrypto:libcrypto-lib-ml_kem.obj
 0001:001cbed0       _ossl_ml_kem_key_free      005cced0 f   libcrypto:libcrypto-lib-ml_kem.obj
 0001:001cbf20       _ossl_ml_kem_encode_public_key 005ccf20 f   libcrypto:libcrypto-lib-ml_kem.obj
 0001:001cc180       _ossl_ml_kem_encode_private_key 005cd180 f   libcrypto:libcrypto-lib-ml_kem.obj
 0001:001cc220       _ossl_ml_kem_encode_seed   005cd220 f   libcrypto:libcrypto-lib-ml_kem.obj
 0001:001cc260       _ossl_ml_kem_set_seed      005cd260 f   libcrypto:libcrypto-lib-ml_kem.obj
 0001:001cc2e0       _ossl_ml_kem_parse_public_key 005cd2e0 f   libcrypto:libcrypto-lib-ml_kem.obj
 0001:001cc7f0       _ossl_ml_kem_parse_private_key 005cd7f0 f   libcrypto:libcrypto-lib-ml_kem.obj
 0001:001cc9a0       _ossl_ml_kem_genkey        005cd9a0 f   libcrypto:libcrypto-lib-ml_kem.obj
 0001:001cd4f0       _ossl_ml_kem_encap_seed    005ce4f0 f   libcrypto:libcrypto-lib-ml_kem.obj
 0001:001ce050       _ossl_ml_kem_encap_rand    005cf050 f   libcrypto:libcrypto-lib-ml_kem.obj
 0001:001ce0c0       _ossl_ml_kem_decap         005cf0c0 f   libcrypto:libcrypto-lib-ml_kem.obj
 0001:001ce830       _ossl_ml_kem_pubkey_cmp    005cf830 f   libcrypto:libcrypto-lib-ml_kem.obj
 0001:001ce880       _ossl_ml_kem_d2i_PUBKEY    005cf880 f   libcrypto:libdefault-lib-ml_kem_codecs.obj
 0001:001ce990       _ossl_ml_kem_d2i_PKCS8     005cf990 f   libcrypto:libdefault-lib-ml_kem_codecs.obj
 0001:001ced60       _ossl_ml_kem_i2d_pubkey    005cfd60 f   libcrypto:libdefault-lib-ml_kem_codecs.obj
 0001:001cee30       _ossl_ml_kem_i2d_prvkey    005cfe30 f   libcrypto:libdefault-lib-ml_kem_codecs.obj
 0001:001cf1a0       _ossl_ml_kem_key_to_text   005d01a0 f   libcrypto:libdefault-lib-ml_kem_codecs.obj
 0001:001cf3d0       _ossl_ml_dsa_d2i_PUBKEY    005d03d0 f   libcrypto:libdefault-lib-ml_dsa_codecs.obj
 0001:001cf4e0       _ossl_ml_dsa_d2i_PKCS8     005d04e0 f   libcrypto:libdefault-lib-ml_dsa_codecs.obj
 0001:001cf850       _ossl_ml_dsa_i2d_pubkey    005d0850 f   libcrypto:libdefault-lib-ml_dsa_codecs.obj
 0001:001cf8e0       _ossl_ml_dsa_i2d_prvkey    005d08e0 f   libcrypto:libdefault-lib-ml_dsa_codecs.obj
 0001:001cfcb0       _ossl_ml_dsa_key_to_text   005d0cb0 f   libcrypto:libdefault-lib-ml_dsa_codecs.obj
 0001:001cfe60       _ossl_do_blob_header       005d0e60 f   libcrypto:libcrypto-lib-pvkfmt.obj
 0001:001d0100       _ossl_blob_length          005d1100 f   libcrypto:libcrypto-lib-pvkfmt.obj
 0001:001d0260       _ossl_b2i_DSA_after_header 005d1260 f   libcrypto:libcrypto-lib-pvkfmt.obj
 0001:001d04a0       _ossl_b2i_RSA_after_header 005d14a0 f   libcrypto:libcrypto-lib-pvkfmt.obj
 0001:001d06e0       _i2b_PrivateKey_bio        005d16e0 f   libcrypto:libcrypto-lib-pvkfmt.obj
 0001:001d0da0       _i2b_PublicKey_bio         005d1da0 f   libcrypto:libcrypto-lib-pvkfmt.obj
 0001:001d0dc0       _ossl_do_PVK_header        005d1dc0 f   libcrypto:libcrypto-lib-pvkfmt.obj
 0001:001d0fc0       _b2i_DSA_PVK_bio_ex        005d1fc0 f   libcrypto:libcrypto-lib-pvkfmt.obj
 0001:001d1590       _b2i_RSA_PVK_bio_ex        005d2590 f   libcrypto:libcrypto-lib-pvkfmt.obj
 0001:001d15d0       _i2b_PVK_bio_ex            005d25d0 f   libcrypto:libcrypto-lib-pvkfmt.obj
 0001:001d1970       _ossl_DER_w_RSASSA_PSS_params 005d2970 f   libcrypto:libcommon-lib-der_rsa_key.obj
 0001:001d1c00       _ossl_DER_w_algorithmIdentifier_RSA_PSS 005d2c00 f   libcrypto:libcommon-lib-der_rsa_key.obj
 0001:001d1cb0       _PKCS8_encrypt_ex          005d2cb0 f   libcrypto:libcrypto-lib-p12_p8e.obj
 0001:001d1df0       _PKCS8_set0_pbe_ex         005d2df0 f   libcrypto:libcrypto-lib-p12_p8e.obj
 0001:001d1e80       _PEM_write_bio_PKCS8       005d2e80 f   libcrypto:libcrypto-lib-pem_pk8.obj
 0001:001d1eb0       _PEM_write_bio_PKCS8_PRIV_KEY_INFO 005d2eb0 f   libcrypto:libcrypto-lib-pem_pk8.obj
 0001:001d1ee0       _PEM_read_bio_X509_CRL     005d2ee0 f   libcrypto:libcrypto-lib-pem_all.obj
 0001:001d1f10       _PEM_write_bio_X509_PUBKEY 005d2f10 f   libcrypto:libcrypto-lib-pem_all.obj
 0001:001d1f40       _ossl_cipher_generic_gettable_params 005d2f40 f   libcrypto:libcommon-lib-ciphercommon.obj
 0001:001d1f50       _ossl_cipher_generic_get_params 005d2f50 f   libcrypto:libcommon-lib-ciphercommon.obj
 0001:001d2620       _ossl_cipher_generic_gettable_ctx_params 005d3620 f   libcrypto:libcommon-lib-ciphercommon.obj
 0001:001d2630       _ossl_cipher_generic_settable_ctx_params 005d3630 f   libcrypto:libcommon-lib-ciphercommon.obj
 0001:001d2640       _ossl_cipher_var_keylen_settable_ctx_params 005d3640 f   libcrypto:libcommon-lib-ciphercommon.obj
 0001:001d2650       _ossl_cipher_var_keylen_set_ctx_params 005d3650 f   libcrypto:libcommon-lib-ciphercommon.obj
 0001:001d2a00       _ossl_cipher_generic_reset_ctx 005d3a00 f   libcrypto:libcommon-lib-ciphercommon.obj
 0001:001d2a40       _ossl_cipher_generic_einit 005d3a40 f   libcrypto:libcommon-lib-ciphercommon.obj
 0001:001d2b80       _ossl_cipher_generic_dinit 005d3b80 f   libcrypto:libcommon-lib-ciphercommon.obj
 0001:001d2bb0       _ossl_cipher_generic_skey_einit 005d3bb0 f   libcrypto:libcommon-lib-ciphercommon.obj
 0001:001d2be0       _ossl_cipher_generic_skey_dinit 005d3be0 f   libcrypto:libcommon-lib-ciphercommon.obj
 0001:001d2c10       _ossl_cipher_generic_block_update 005d3c10 f   libcrypto:libcommon-lib-ciphercommon.obj
 0001:001d2ff0       _ossl_cipher_generic_block_final 005d3ff0 f   libcrypto:libcommon-lib-ciphercommon.obj
 0001:001d3250       _ossl_cipher_generic_stream_update 005d4250 f   libcrypto:libcommon-lib-ciphercommon.obj
 0001:001d3390       _ossl_cipher_generic_stream_final 005d4390 f   libcrypto:libcommon-lib-ciphercommon.obj
 0001:001d33f0       _ossl_cipher_generic_cipher 005d43f0 f   libcrypto:libcommon-lib-ciphercommon.obj
 0001:001d34c0       _ossl_cipher_common_get_ctx_params 005d44c0 f   libcrypto:libcommon-lib-ciphercommon.obj
 0001:001d3630       _ossl_cipher_generic_get_ctx_params 005d4630 f   libcrypto:libcommon-lib-ciphercommon.obj
 0001:001d39b0       _ossl_cipher_common_set_ctx_params 005d49b0 f   libcrypto:libcommon-lib-ciphercommon.obj
 0001:001d3b10       _ossl_cipher_generic_set_ctx_params 005d4b10 f   libcrypto:libcommon-lib-ciphercommon.obj
 0001:001d3e10       _ossl_cipher_generic_initiv 005d4e10 f   libcrypto:libcommon-lib-ciphercommon.obj
 0001:001d3e90       _ossl_cipher_generic_initkey 005d4e90 f   libcrypto:libcommon-lib-ciphercommon.obj
 0001:001d3f10       _DES_set_odd_parity        005d4f10 f   libcrypto:liblegacy-lib-set_key.obj
 0001:001d3f30       _DES_set_key_unchecked     005d4f30 f   libcrypto:liblegacy-lib-set_key.obj
 0001:001d4690       _ossl_prov_cipher_hw_des_ecb 005d5690 f   libcrypto:liblegacy-lib-cipher_des_hw.obj
 0001:001d46a0       _ossl_prov_cipher_hw_des_cbc 005d56a0 f   libcrypto:liblegacy-lib-cipher_des_hw.obj
 0001:001d46b0       _ossl_prov_cipher_hw_des_ofb64 005d56b0 f   libcrypto:liblegacy-lib-cipher_des_hw.obj
