 ssp

 Timestamp is 621adaf4 (Sun Feb 27 10:59:16 2022)

 Preferred load address is 00400000

 Start         Length     Name                   Class
 0001:00000000 00444170H .text                   CODE
 0001:00444170 00000150H .text$AFX_AUX           CODE
 0001:004442c0 000009d0H .text$AFX_CMNCTL        CODE
 0001:00444c90 000000f0H .text$AFX_COL1          CODE
 0001:00444d80 00000390H .text$AFX_COL2          CODE
 0001:00445110 00006340H .text$AFX_CORE1         CODE
 0001:0044b450 00000da0H .text$AFX_CORE2         CODE
 0001:0044c1f0 00000570H .text$AFX_CORE3         CODE
 0001:0044c760 000004c0H .text$AFX_CORE4         CODE
 0001:0044cc20 00000090H .text$AFX_INET          CODE
 0001:0044ccb0 000026c0H .text$AFX_INIT          CODE
 0001:0044f370 00000710H .text$AFX_OLE1          CODE
 0001:0044fa80 00000200H .text$AFX_OLE2          CODE
 0001:0044fc80 00000310H .text$AFX_OLE3          CODE
 0001:0044ff90 00000470H .text$AFX_OLE4          CODE
 0001:00450400 00000000H .text$AFX_OLE5          CODE
 0001:00450400 00000280H .text$AFX_TERM          CODE
 0001:00450680 000280e4H .text$x                 CODE
 0002:00000000 00000a7cH .idata$5                DATA
 0002:00000a80 000bf408H .rdata                  DATA
 0002:000bfe88 00007664H .rdata$r                DATA
 0002:000c74f0 000287e0H .xdata$x                DATA
 0002:000efcd0 00000020H .didat$2                DATA
 0002:000efcf0 00000020H .didat$3                DATA
 0002:000efd10 00000034H .didat$4                DATA
 0002:000efd44 0000010eH .didat$6                DATA
 0002:000efe54 00000034H .didat$7                DATA
 0002:000efe88 00000154H .idata$2                DATA
 0002:000effdc 00000014H .idata$3                DATA
 0002:000efff0 00000a7cH .idata$4                DATA
 0002:000f0a6c 00002beeH .idata$6                DATA
 0002:000f365a 00000000H .edata                  DATA
 0003:00000000 00000004H .CRT$XCA                DATA
 0003:00000004 0000002cH .CRT$XCC                DATA
 0003:00000030 0000000cH .CRT$XCL                DATA
 0003:0000003c 0000017cH .CRT$XCU                DATA
 0003:000001b8 00000004H .CRT$XCZ                DATA
 0003:000001bc 00000004H .CRT$XIA                DATA
 0003:000001c0 0000000cH .CRT$XIC                DATA
 0003:000001cc 00000004H .CRT$XIY                DATA
 0003:000001d0 00000004H .CRT$XIZ                DATA
 0003:000001d4 00000004H .CRT$XLA                DATA
 0003:000001d8 00000004H .CRT$XLZ                DATA
 0003:000001dc 00000004H .CRT$XPA                DATA
 0003:000001e0 00000004H .CRT$XPX                DATA
 0003:000001e4 00000004H .CRT$XPZ                DATA
 0003:000001e8 00000004H .CRT$XTA                DATA
 0003:000001ec 00000004H .CRT$XTB                DATA
 0003:000001f0 00000004H .CRT$XTZ                DATA
 0003:00000200 00011cbaH .data                   DATA
 0003:00011ebc 00000034H .didat$5                DATA
 0003:00011ef0 0000e99cH .bss                    DATA
 0004:00000000 00000004H .tls                    DATA
 0004:00000008 00004738H .tls$                   DATA
 0004:00004740 00000004H .tls$ZZZ                DATA
 0005:00000000 0000187cH .rsrc$01                DATA
 0005:00001880 0002aa90H .rsrc$02                DATA

  Address         Publics by Value              Rva+Base     Lib:Object

 0001:00000000       ??0CAboutDlg@@QAE@PAVCWnd@@@Z 00401000 f   AboutDlg.obj
 0001:00000050       ?BeginModalState@CWnd@@UAEXXZ 00401050 f i AboutDlg.obj
 0001:00000060       ?EndModalState@CWnd@@UAEXXZ 00401060 f i AboutDlg.obj
 0001:00000070       ??_ECFontExtend@@UAEPAXI@Z 00401070 f i AboutDlg.obj
 0001:00000070       ??_GCFontExtend@@UAEPAXI@Z 00401070 f i AboutDlg.obj
 0001:000000a0       ??1CFontExtend@@UAE@XZ     004010a0 f i AboutDlg.obj
 0001:000000e0       ??_GCGdiObject@@UAEPAXI@Z  004010e0 f i AboutDlg.obj
 0001:000000e0       ??_ECGdiObject@@UAEPAXI@Z  004010e0 f i AboutDlg.obj
 0001:00000110       ??1CGdiObject@@UAE@XZ      00401110 f i AboutDlg.obj
 0001:00000150       ??_GCAboutDlg@@UAEPAXI@Z   00401150 f i AboutDlg.obj
 0001:00000150       ??_ECAboutDlg@@UAEPAXI@Z   00401150 f i AboutDlg.obj
 0001:00000180       ??1CAboutDlg@@UAE@XZ       00401180 f i AboutDlg.obj
 0001:00000210       ??_ECDialogCustom@@UAEPAXI@Z 00401210 f i AboutDlg.obj
 0001:00000210       ??_GCDialogCustom@@UAEPAXI@Z 00401210 f i AboutDlg.obj
 0001:00000240       ?GetMessageMap@CAboutDlg@@MBEPBUAFX_MSGMAP@@XZ 00401240 f   AboutDlg.obj
 0001:00000250       ?OnOK@CAboutDlg@@MAEXXZ    00401250 f   AboutDlg.obj
 0001:00000260       ?OnInitDialog@CAboutDlg@@MAEHXZ 00401260 f   AboutDlg.obj
 0001:00000f30       ?OnCreate@CAboutDlg@@IAEHPAUtagCREATESTRUCTA@@@Z 00401f30 f   AboutDlg.obj
 0001:00001040       ??1JLibPNG@@QAE@XZ         00402040 f i AboutDlg.obj
 0001:000010a0       ?OnPaint@CAboutDlg@@IAEXXZ 004020a0 f   AboutDlg.obj
 0001:00001120       ?OnDestroy@CAboutDlg@@IAEXXZ 00402120 f   AboutDlg.obj
 0001:00001150       ?OnCtlColor@CAboutDlg@@IAEPAUHBRUSH__@@PAVCDC@@PAVCWnd@@I@Z 00402150 f   AboutDlg.obj
 0001:000011e0       ?OnAboutUrlClick@CAboutDlg@@IAEXXZ 004021e0 f   AboutDlg.obj
 0001:00001220       ?OnSetCursor@CAboutDlg@@IAEHPAVCWnd@@II@Z 00402220 f   AboutDlg.obj
 0001:00001270       ?DoModalExt@CAboutDlg@@QAEHPAVCWnd@@@Z 00402270 f   AboutDlg.obj
 0001:00001280       ?PreTranslateMessage@CAboutDlg@@UAEHPAUtagMSG@@@Z 00402280 f   AboutDlg.obj
 0001:000012f0       ??0?$JArray@D@@QAE@K@Z     004022f0 f i AboutDlg.obj
 0001:00001380       ?Last@?$JArray@D@@QAEAADXZ 00402380 f i AboutDlg.obj
 0001:000013a0       ?Realloc@?$JArray@D@@QAE_NK@Z 004023a0 f i AboutDlg.obj
 0001:000013a0       ?Realloc@?$JArray@E@@QAE_NK@Z 004023a0 f i AboutDlg.obj
 0001:00001460       ?Add@?$JArray@D@@QAEAADXZ  00402460 f i AboutDlg.obj
 0001:00001540       ?Realloc@?$JArray@G@@QAE_NK@Z 00402540 f i AboutDlg.obj
 0001:00001610       ??0CBindExplorer@@QAE@PAVCWnd@@@Z 00402610 f   BindExplorer.obj
 0001:000016f0       ??_GCListCtrl@@UAEPAXI@Z   004026f0 f i BindExplorer.obj
 0001:000016f0       ??_ECListCtrl@@UAEPAXI@Z   004026f0 f i BindExplorer.obj
 0001:00001720       ??1SPControlAdjuster@@QAE@XZ 00402720 f i BindExplorer.obj
 0001:00001780       ??_ECBindExplorer@@UAEPAXI@Z 00402780 f i BindExplorer.obj
 0001:00001780       ??_GCBindExplorer@@UAEPAXI@Z 00402780 f i BindExplorer.obj
 0001:000017b0       ??1CBindExplorer@@UAE@XZ   004027b0 f i BindExplorer.obj
 0001:00001860       ?DoDataExchange@CBindExplorer@@MAEXPAVCDataExchange@@@Z 00402860 f   BindExplorer.obj
 0001:000018b0       ?GetMessageMap@CBindExplorer@@MBEPBUAFX_MSGMAP@@XZ 004028b0 f   BindExplorer.obj
 0001:000018c0       ?OnInitDialog@CBindExplorer@@MAEHXZ 004028c0 f   BindExplorer.obj
 0001:00001bf0       ?OnDestroy@CBindExplorer@@IAEXXZ 00402bf0 f   BindExplorer.obj
 0001:00001c60       ?OnCancel@CBindExplorer@@MAEXXZ 00402c60 f   BindExplorer.obj
 0001:00001c60       ?OnClose@CBindExplorer@@IAEXXZ 00402c60 f   BindExplorer.obj
 0001:00001c90       ?OnSize@CBindExplorer@@IAEXIHH@Z 00402c90 f   BindExplorer.obj
 0001:00001cc0       ?UpdateListWidth@CBindExplorer@@QAEXXZ 00402cc0 f   BindExplorer.obj
 0001:00001db0       ?OnGetMinMaxInfo@CBindExplorer@@IAEXPAUtagMINMAXINFO@@@Z 00402db0 f   BindExplorer.obj
 0001:00001e50       ?OnClickBindList@CBindExplorer@@IAEXPAUtagNMHDR@@PAJ@Z 00402e50 f   BindExplorer.obj
 0001:00001ed0       ?OnKeydownBindList@CBindExplorer@@IAEXPAUtagNMHDR@@PAJ@Z 00402ed0 f   BindExplorer.obj
 0001:00001f70       ?WindowProc@CBindExplorer@@MAEJIIJ@Z 00402f70 f   BindExplorer.obj
 0001:000021b0       ?OnItemchangedBindGroup@CBindExplorer@@IAEXPAUtagNMHDR@@PAJ@Z 004031b0 f   BindExplorer.obj
 0001:00002390       ?OnItemchangedBindWnd@CBindExplorer@@IAEXPAUtagNMHDR@@PAJ@Z 00403390 f   BindExplorer.obj
 0001:00002550       ?UpdateBindWnd@CBindExplorer@@IAEXXZ 00403550 f   BindExplorer.obj
 0001:00002770       ?UpdateBindListCheck@CBindExplorer@@IAEXXZ 00403770 f   BindExplorer.obj
 0001:00002870       ?UpdateBindGroupIcon@CBindExplorer@@IAEXXZ 00403870 f   BindExplorer.obj
 0001:00002970       ?GetSelData@CBindExplorer@@IAEJAAVCListCtrl@@@Z 00403970 f   BindExplorer.obj
 0001:000029d0       ?GetListSelData@CBindExplorer@@IAEJXZ 004039d0 f   BindExplorer.obj
 0001:000029e0       ?GetGroupSelData@CBindExplorer@@IAEJXZ 004039e0 f   BindExplorer.obj
 0001:000029f0       ?GetWndSelData@CBindExplorer@@IAEJXZ 004039f0 f   BindExplorer.obj
 0001:00002a00       ?Add@?$JArray@G@@QAEAAGXZ  00403a00 f i BindExplorer.obj
 0001:00002af0       ??0CCalendarWnd@@QAE@XZ    00403af0 f   CalendarWnd.obj
 0001:00002b80       ??1CSimpleMenu@@QAE@XZ     00403b80 f i CalendarWnd.obj
 0001:00002b90       ??_GCCalendarWnd@@UAEPAXI@Z 00403b90 f i CalendarWnd.obj
 0001:00002b90       ??_ECCalendarWnd@@UAEPAXI@Z 00403b90 f i CalendarWnd.obj
 0001:00002bc0       ??1CCalendarWnd@@UAE@XZ    00403bc0 f   CalendarWnd.obj
 0001:00002c50       ?GetMessageMap@CCalendarWnd@@MBEPBUAFX_MSGMAP@@XZ 00403c50 f   CalendarWnd.obj
 0001:00002c60       ?OnCreate@CCalendarWnd@@IAEHPAUtagCREATESTRUCTA@@@Z 00403c60 f   CalendarWnd.obj
 0001:00002db0       ?SelectCell@CCalendarWnd@@AAEHAAVCPoint@@@Z 00403db0 f   CalendarWnd.obj
 0001:00002e60       ?OnLButtonDown@CCalendarWnd@@IAEXIVCPoint@@@Z 00403e60 f   CalendarWnd.obj
 0001:00002ea0       ?OnLButtonDblClk@CCalendarWnd@@IAEXIVCPoint@@@Z 00403ea0 f   CalendarWnd.obj
 0001:00002ef0       ?MakeAndSelectMenu@CCalendarWnd@@AAEHHHH@Z 00403ef0 f   CalendarWnd.obj
 0001:00002fc0       ?SetMonth@CCalendarWnd@@AAEXHH@Z 00403fc0 f   CalendarWnd.obj
 0001:00003000       ?OnLButtonUp@CCalendarWnd@@IAEXIVCPoint@@@Z 00404000 f   CalendarWnd.obj
 0001:000030f0       ?OnRButtonUp@CCalendarWnd@@IAEXIVCPoint@@@Z 004040f0 f   CalendarWnd.obj
 0001:000031f0       ?OnKeyDown@CCalendarWnd@@IAEXIII@Z 004041f0 f   CalendarWnd.obj
 0001:000032e0       ?OnMouseMove@CCalendarWnd@@IAEXIVCPoint@@@Z 004042e0 f   CalendarWnd.obj
 0001:00003430       ?OnPaint@CCalendarWnd@@IAEXXZ 00404430 f   CalendarWnd.obj
 0001:00003490       ?OnEraseBkgnd@CGhostTimeWnd@@IAEHPAVCDC@@@Z 00404490 f   CalendarWnd.obj
 0001:00003490       ?OnEraseBkgnd@CCalendarWnd@@IAEHPAVCDC@@@Z 00404490 f   CalendarWnd.obj
 0001:00003490       ?OnEraseBkgnd@CMessageWnd@@IAEHPAVCDC@@@Z 00404490 f   CalendarWnd.obj
 0001:00003490       ?OnEraseBkgnd@CGhostAIGraph@@IAEHPAVCDC@@@Z 00404490 f   CalendarWnd.obj
 0001:000034a0       ?OnMenuClose@CCalendarWnd@@IAEXXZ 004044a0 f   CalendarWnd.obj
 0001:000034b0       ?OnMenuEdit@CCalendarWnd@@IAEXXZ 004044b0 f   CalendarWnd.obj
 0001:000034c0       ?OnMenuNext@CCalendarWnd@@IAEXXZ 004044c0 f   CalendarWnd.obj
 0001:000034d0       ?OnMenuPrev@CCalendarWnd@@IAEXXZ 004044d0 f   CalendarWnd.obj
 0001:000034e0       ?MoveMonth@CCalendarWnd@@QAEXH@Z 004044e0 f   CalendarWnd.obj
 0001:00003530       ?OnMouseWheel@CCalendarWnd@@IAEHIFVCPoint@@@Z 00404530 f   CalendarWnd.obj
 0001:00003570       ?UpdateWindowSize@CCalendarWnd@@QAEXXZ 00404570 f   CalendarWnd.obj
 0001:00003590       ?UpdateSkinMenu@CCalendarWnd@@QAEXXZ 00404590 f   CalendarWnd.obj
 0001:00003710       ?UpdateSensorMenu@CCalendarWnd@@QAEXXZ 00404710 f   CalendarWnd.obj
 0001:000037d0       ?OnCommand@CCalendarWnd@@MAEHIJ@Z 004047d0 f   CalendarWnd.obj
 0001:00003980       ?DoPostSchedule@CCalendarWnd@@QAEXPAVSPScheduleSensorProp@@PAVSPScheduleEntry@@@Z 00404980 f   CalendarWnd.obj
 0001:000039a0       ?OnMenuReadevent@CCalendarWnd@@IAEXXZ 004049a0 f   CalendarWnd.obj
 0001:000039b0       ?OnMenuTodaysschedule@CCalendarWnd@@IAEXXZ 004049b0 f   CalendarWnd.obj
 0001:000039d0       ?TimerExec@CCalendarWnd@@QAEXPAVSPGhost@@AAU_SYSTEMTIME@@@Z 004049d0 f   CalendarWnd.obj
 0001:00003ae0       ?OnMenuTopmost@CCalendarWnd@@IAEXXZ 00404ae0 f   CalendarWnd.obj
 0001:00003b90       ?OnMenuDelete@CCalendarWnd@@IAEXXZ 00404b90 f   CalendarWnd.obj
 0001:00003bc0       ?OnMenuDeleteMonth@CCalendarWnd@@IAEXXZ 00404bc0 f   CalendarWnd.obj
 0001:00003c00       ?OnMenuDeleteYear@CCalendarWnd@@IAEXXZ 00404c00 f   CalendarWnd.obj
 0001:00003c30       ?OnDestroy@CCalendarWnd@@IAEXXZ 00404c30 f   CalendarWnd.obj
 0001:00003cc0       ?SaveWindowPos@CCalendarWnd@@AAEXXZ 00404cc0 f   CalendarWnd.obj
 0001:00003cf0       ?ShowScheduleSetting@CCalendarWnd@@AAEXXZ 00404cf0 f   CalendarWnd.obj
 0001:00003f00       ??3CObject@@SGXPAX@Z       00404f00 f i CalendarWnd.obj
 0001:00003f20       ??1SPDlgTemplate@@QAE@XZ   00404f20 f i CalendarWnd.obj
 0001:00003fc0       ?OnMenuCenter@CCalendarWnd@@IAEXXZ 00404fc0 f   CalendarWnd.obj
 0001:00003fe0       ?OnDrawItem@CCalendarWnd@@IAEXHPAUtagDRAWITEMSTRUCT@@@Z 00404fe0 f   CalendarWnd.obj
 0001:00004020       ?OnMeasureItem@CCalendarWnd@@IAEXHPAUtagMEASUREITEMSTRUCT@@@Z 00405020 f   CalendarWnd.obj
 0001:00004060       ?Size@?$JArray@D@@QBEKXZ   00405060 f i CalendarWnd.obj
 0001:00004060       ?Size@?$JArray@E@@QBEKXZ   00405060 f i CalendarWnd.obj
 0001:00004080       ??0?$JArray@G@@QAE@K@Z     00405080 f i CalendarWnd.obj
 0001:00004110       ??0CCharBodyWnd@@QAE@XZ    00405110 f   CharBodyWnd.obj
 0001:00004170       ??_GCCharBodyWnd@@UAEPAXI@Z 00405170 f i CharBodyWnd.obj
 0001:00004170       ??_ECCharBodyWnd@@UAEPAXI@Z 00405170 f i CharBodyWnd.obj
 0001:000041a0       ??1CCharBodyWnd@@UAE@XZ    004051a0 f   CharBodyWnd.obj
 0001:00004200       ??_ECCharWndBase@@UAEPAXI@Z 00405200 f i CharBodyWnd.obj
 0001:00004200       ??_GCCharWndBase@@UAEPAXI@Z 00405200 f i CharBodyWnd.obj
 0001:00004230       ??1CCharWndBase@@UAE@XZ    00405230 f i CharBodyWnd.obj
 0001:00004290       ?GetMessageMap@CCharBodyWnd@@MBEPBUAFX_MSGMAP@@XZ 00405290 f   CharBodyWnd.obj
 0001:000042a0       ?OnLButtonDblClk@CCharBodyWnd@@IAEXIVCPoint@@@Z 004052a0 f   CharBodyWnd.obj
 0001:000042d0       ?OnMouseMove@CCharBodyWnd@@IAEXIVCPoint@@@Z 004052d0 f   CharBodyWnd.obj
 0001:00004300       ?WindowProc@CCharBodyWnd@@MAEJIIJ@Z 00405300 f   CharBodyWnd.obj
 0001:00004350       ?GetDefaultWndPosX@CCharBodyWnd@@UAEHAAJAAVJRect@@1AAVJPoint@@@Z 00405350 f   CharBodyWnd.obj
 0001:00004400       ?SetCharWndProp@CCharBodyWnd@@QAEXHPAVCSakuraWnd@@@Z 00405400 f   CharBodyWnd.obj
 0001:00004430       ??_ECCharBodyWnd@@WDM@AEPAXI@Z 00405430 f i CharBodyWnd.obj
 0001:00004440       ??_ECCharWndBase@@WDM@AEPAXI@Z 00405440 f i CharBodyWnd.obj
 0001:00004490       ?GetCharWndCodeManager@@YAAAVCCharWndCodeManager@@XZ 00405490 f   CharWndCode.obj
 0001:000044d0       ??0CCharWndCodeManager@@QAE@XZ 004054d0 f i CharWndCode.obj
 0001:00004650       ??1CCharWndCodeManager@@QAE@XZ 00405650 f i CharWndCode.obj
 0001:000046f0       ??0CCharWndCode@@QAE@XZ    004056f0 f   CharWndCode.obj
 0001:000049b0       ??0JRect@@QAE@XZ           004059b0 f i CharWndCode.obj
 0001:000049c0       ??_ECCharWndCode@@UAEPAXI@Z 004059c0 f i CharWndCode.obj
 0001:000049c0       ??_GCCharWndCode@@UAEPAXI@Z 004059c0 f i CharWndCode.obj
 0001:000049f0       ??1CMouseHitMap@@QAE@XZ    004059f0 f i CharWndCode.obj
 0001:000049f0       ?Flush@JMemStream@@UAEXXZ  004059f0 f i CharWndCode.obj
 0001:000049f0       ??1CObject@@UAE@XZ         004059f0 f i CharWndCode.obj
 0001:000049f0       ??1JPalette@@QAE@XZ        004059f0 f i CharWndCode.obj
 0001:000049f0       ?AlphaPlaneInvert@JSurface@@UAEXXZ 004059f0 f i CharWndCode.obj
 0001:000049f0       ??1SPInstallEvent@@QAE@XZ  004059f0 f i CharWndCode.obj
 0001:000049f0       ?Unlock@JDummyLockSection@@UAEXXZ 004059f0 f i CharWndCode.obj
 0001:000049f0       ??1SPMonitorInfo@@QAE@XZ   004059f0 f i CharWndCode.obj
 0001:000049f0       ??1JExtent@@QAE@XZ         004059f0 f i CharWndCode.obj
 0001:000049f0       ?dummy@?4??SafeGet@?$JArray@VCExplorerDialogData@@@@QAEAAVCExplorerDialogData@@K@Z@$AV2@A 004059f0 f i CharWndCode.obj
 0001:000049f0       ?Unlock@JThread@@UAEXXZ    004059f0 f i CharWndCode.obj
 0001:000049f0       ??1JRect@@QAE@XZ           004059f0 f i CharWndCode.obj
 0001:000049f0       ?Unlock@JSurfaceObject@@UAEXXZ 004059f0 f i CharWndCode.obj
 0001:000049f0       ?Eof@JMemStream@@UAEXXZ    004059f0 f i CharWndCode.obj
 0001:000049f0       ??1JLZWDecoder@@QAE@XZ     004059f0 f i CharWndCode.obj
 0001:000049f0       ??1SPBalloonImage@@QAE@XZ  004059f0 f i CharWndCode.obj
 0001:000049f0       ??1SPVE_HStringReference@@QAE@XZ 004059f0 f i CharWndCode.obj
 0001:000049f0       ?Deactivated@SPCmdNotifier@@UAEXXZ 004059f0 f i CharWndCode.obj
 0001:000049f0       ??1CNoTrackObject@@UAE@XZ  004059f0 f i CharWndCode.obj
 0001:000049f0       ??1CCharWndCodeManagerData@@QAE@XZ 004059f0 f i CharWndCode.obj
 0001:000049f0       ??1SPGhostBoolResult@@QAE@XZ 004059f0 f i CharWndCode.obj
 0001:000049f0       ?Update@JSurfaceObject@@UAEXXZ 004059f0 f i CharWndCode.obj
 0001:000049f0       ??1JDummyLock@@QAE@XZ      004059f0 f i CharWndCode.obj
 0001:000049f0       ?Activated@SPCmdNotifier@@UAEXXZ 004059f0 f i CharWndCode.obj
 0001:000049f0       ??1SPCreateSurfaceResult@@QAE@XZ 004059f0 f i CharWndCode.obj
 0001:00004a00       ??1CCharWndCode@@UAE@XZ    00405a00 f   CharWndCode.obj
 0001:00004af0       ?CCWC_Initialize@CCharWndCode@@IAEXXZ 00405af0 f   CharWndCode.obj
 0001:00004e70       ??0CCharWndCodeFuncTable@@QAE@XZ 00405e70 f i CharWndCode.obj
 0001:00005140       ??1JDynLoadStub@@UAE@XZ    00406140 f i CharWndCode.obj
 0001:00005150       ?Serialize@CObject@@UAEXAAVCArchive@@@Z 00406150 f i CharWndCode.obj
 0001:00005150       ?DoDataExchange@CWnd@@MAEXPAVCDataExchange@@@Z 00406150 f i CharWndCode.obj
 0001:00005150       ?SetModuleName@JDynLoadStub@@UAEXPBD@Z 00406150 f i CharWndCode.obj
 0001:00005150       ?ShowWindow@CGhostATSoundImpl@@UAEX_N@Z 00406150 f i CharWndCode.obj
 0001:00005150       ?AlphaPlaneFill@JSurface@@UAEXE@Z 00406150 f i CharWndCode.obj
 0001:00005150       ?Load@JDynLoadStub@@UAEXPBD@Z 00406150 f i CharWndCode.obj
 0001:00005150       ?ExitInstance@JThreadLoop@@UAEXH@Z 00406150 f i CharWndCode.obj
 0001:00005150       ?AttachStream@JMappedStream@@EAEXPAVJStreamObject@@@Z 00406150 f i CharWndCode.obj
 0001:00005150       ?ReceiveNotification@CGhostATSoundImpl@@UAEXPAUHWND__@@@Z 00406150 f i CharWndCode.obj
 0001:00005150       ?ModifyTemplate@CDialogCustom@@UAEXPAVSPDlgTemplate@@@Z 00406150 f i CharWndCode.obj
 0001:00005160       ?SetSourceFilter@SPStreamFilterSocket@@UAEHPAVSPStreamFilter@@@Z 00406160 f i CharWndCode.obj
 0001:00005160       ?GetProc@JDynLoadStub@@UAEPAXPBD@Z 00406160 f i CharWndCode.obj
 0001:00005160       ?MatchNext@?$CBoundaryElxT@G@@UBEHPAVCContext@@@Z 00406160 f i CharWndCode.obj
 0001:00005160       ?GetPalette@JSurfaceObject@@UAEHAAVJPalette@@@Z 00406160 f i CharWndCode.obj
 0001:00005160       ?MatchNext@?$CGlobalElxT@$0A@@@UBEHPAVCContext@@@Z 00406160 f i CharWndCode.obj
 0001:00005160       ?MatchNext@?$CEmptyElxT@$0A@@@UBEHPAVCContext@@@Z 00406160 f i CharWndCode.obj
 0001:00005160       ?SetPalette@JSurfaceObject@@UAEHAAVJPalette@@@Z 00406160 f i CharWndCode.obj
 0001:00005160       ?ReadLineImpl@SPStreamFilterGZip@@UAEPADAA_J@Z 00406160 f i CharWndCode.obj
 0001:00005160       ?Write@JMappedStream@@EAEKE@Z 00406160 f i CharWndCode.obj
 0001:00005160       ?ReadLineImpl@SPStreamFilterHttpChunk@@UAEPADAA_J@Z 00406160 f i CharWndCode.obj
 0001:00005160       ?ShallowClone@XMLDocument@tinyxml2@@UBEPAVXMLNode@2@PAV12@@Z 00406160 f i CharWndCode.obj
 0001:00005160       ?Load@JSurfaceObject@@UAEHAAVJStream@@@Z 00406160 f i CharWndCode.obj
 0001:00005170       ??_EJDynLoadStub@@UAEPAXI@Z 00406170 f i CharWndCode.obj
 0001:00005170       ??_GJDynLoadStub@@UAEPAXI@Z 00406170 f i CharWndCode.obj
 0001:000051a0       ??1JDynLoad@@UAE@XZ        004061a0 f i CharWndCode.obj
 0001:00005200       ?Load@JDynLoad@@UAEXPBD@Z  00406200 f i CharWndCode.obj
 0001:00005230       ??_EJDynLoad@@UAEPAXI@Z    00406230 f i CharWndCode.obj
 0001:00005230       ??_GJDynLoad@@UAEPAXI@Z    00406230 f i CharWndCode.obj
 0001:00005260       ??1JDynLoadSystem@@UAE@XZ  00406260 f i CharWndCode.obj
 0001:000052c0       ??_EJDynLoadSystem@@UAEPAXI@Z 004062c0 f i CharWndCode.obj
 0001:000052c0       ??_GJDynLoadSystem@@UAEPAXI@Z 004062c0 f i CharWndCode.obj
 0001:00005300       ??1CCharWndCodeFuncTable@@QAE@XZ 00406300 f i CharWndCode.obj
 0001:00005370       ?CCWC_Close@CCharWndCode@@IAEXXZ 00406370 f   CharWndCode.obj
 0001:00005390       ?CCWC_Destroy@CCharWndCode@@IAEXXZ 00406390 f   CharWndCode.obj
 0001:000055d0       ?InitWndMenu@CCharWndCode@@QAEXXZ 004065d0 f   CharWndCode.obj
 0001:000056f0       ?ResetMenuState@CCharWndCode@@QAEXXZ 004066f0 f   CharWndCode.obj
 0001:00005700       ?IsVisible@CCharWndCode@@QBE_NXZ 00406700 f   CharWndCode.obj
 0001:00005720       ?GetWindowRectOffsetMove@CCharWndCode@@QAEXAAVJRect@@@Z 00406720 f   CharWndCode.obj
 0001:00005790       ?GGetCursorPos@CCharWndCode@@IBEXAAVJPoint@@@Z 00406790 f   CharWndCode.obj
 0001:000057c0       ?CWGetCursorPos@CCharWndCode@@IBEXAAVJPoint@@@Z 004067c0 f   CharWndCode.obj
 0001:00005820       ?GetHWND@CCharWndCode@@QAEPAUHWND__@@XZ 00406820 f   CharWndCode.obj
 0001:00005830       ?CCWC_OnMouseMove@CCharWndCode@@IAEHIABUtagPOINT@@@Z 00406830 f   CharWndCode.obj
 0001:00005870       ?OnEXMouseMove@CCharWndCode@@AAEHABVJPoint@@_N1@Z 00406870 f   CharWndCode.obj
 0001:00005f60       ?OnEXMouseMove_DragUpdate@CCharWndCode@@AAEXVJPoint@@_N@Z 00406f60 f   CharWndCode.obj
 0001:00006010       ?SelectModeCol@CCharWndCode@@IAE?AW4SPSelectModeColID@@XZ 00407010 f   CharWndCode.obj
 0001:00006150       ?SelectModeProc@CCharWndCode@@IAEXABVJPoint@@@Z 00407150 f   CharWndCode.obj
 0001:00006470       ?SendGestureEvent@CCharWndCode@@AAEHPAGABUtagPOINT@@0H@Z 00407470 f   CharWndCode.obj
 0001:00006600       ??_ESPModuleEvent@@UAEPAXI@Z 00407600 f i CharWndCode.obj
 0001:00006600       ??_GSPModuleEvent@@UAEPAXI@Z 00407600 f i CharWndCode.obj
 0001:00006630       ??_GSPShioriEvent@@UAEPAXI@Z 00407630 f i CharWndCode.obj
 0001:00006630       ??_ESPShioriEvent@@UAEPAXI@Z 00407630 f i CharWndCode.obj
 0001:00006660       ?CCWC_OnMouseDoubleClick@CCharWndCode@@IAEHJJ@Z 00407660 f   CharWndCode.obj
 0001:000066f0       ?CCWC_PreTranslateMessage@CCharWndCode@@IAEHAAUtagMSG@@@Z 004076f0 f   CharWndCode.obj
 0001:000067d0       ?CCWC_WindowProc@CCharWndCode@@IAEHAAI0AAJ1@Z 004077d0 f   CharWndCode.obj
 0001:00006af0       ?OnCWPaint@CCharWndCode@@IAEHIJAAJ@Z 00407af0 f   CharWndCode.obj
 0001:00006b30       ?OnCWPrintClient@CCharWndCode@@IAEHIJAAJ@Z 00407b30 f   CharWndCode.obj
 0001:00006b60       ?OnCWEraseBkgnd@CCharWndCode@@IAEHIJAAJ@Z 00407b60 f   CharWndCode.obj
 0001:00006b80       ?OnCWMouseWheel@CCharWndCode@@IAEHIJAAJ@Z 00407b80 f   CharWndCode.obj
 0001:00006bd0       ?OnEXMouseWheel@CCharWndCode@@AAEHABVJPoint@@H_N@Z 00407bd0 f   CharWndCode.obj
 0001:00006cb0       ?OnCWHScroll@CCharWndCode@@IAEHIJAAJ@Z 00407cb0 f   CharWndCode.obj
 0001:00006d60       ?OnCWVScroll@CCharWndCode@@IAEHIJAAJ@Z 00407d60 f   CharWndCode.obj
 0001:00006e10       ?OnCWWindowPosChanged@CCharWndCode@@IAEHIJAAJ@Z 00407e10 f   CharWndCode.obj
 0001:00006eb0       ?SetForeground@CCharWndCode@@QAEXXZ 00407eb0 f   CharWndCode.obj
 0001:00006ed0       ?ExecDisplayHandover@CCharWndCode@@QAEXXZ 00407ed0 f   CharWndCode.obj
 0001:00007160       ?Clear@SPModuleEvent@@QAEXXZ 00408160 f i CharWndCode.obj
 0001:00007180       ??1SPPluginEvent@@UAE@XZ   00408180 f i CharWndCode.obj
 0001:00007180       ??1SPModuleEvent@@UAE@XZ   00408180 f i CharWndCode.obj
 0001:00007180       ??1SPShioriEvent@@UAE@XZ   00408180 f i CharWndCode.obj
 0001:00007190       ?OnCWMXButtonDown@CCharWndCode@@IAEHIJAAJ@Z 00408190 f   CharWndCode.obj
 0001:00007270       ?OnCWMXButtonUp@CCharWndCode@@IAEHIJAAJ@Z 00408270 f   CharWndCode.obj
 0001:000073b0       ?OnCWMXButtonDoubleClick@CCharWndCode@@IAEHIJAAJ@Z 004083b0 f   CharWndCode.obj
 0001:00007440       ?OnCWMXButtonMultipleClick@CCharWndCode@@IAEHIJAAJ@Z 00408440 f   CharWndCode.obj
 0001:00007500       ?OnCWSetCursor@CCharWndCode@@IAEHIJAAJ@Z 00408500 f   CharWndCode.obj
 0001:00007680       ?OnCWLButtonDown@CCharWndCode@@IAEHIJAAJ@Z 00408680 f   CharWndCode.obj
 0001:000076c0       ?OnEXLButtonDown@CCharWndCode@@AAEHABVJPoint@@_N@Z 004086c0 f   CharWndCode.obj
 0001:00007860       ?OnCWLButtonUp@CCharWndCode@@IAEHIJAAJ@Z 00408860 f   CharWndCode.obj
 0001:000078a0       ?OnEXLButtonUp@CCharWndCode@@AAEHABVJPoint@@_N@Z 004088a0 f   CharWndCode.obj
 0001:00007a90       ?OnCWLButtonMultipleClick@CCharWndCode@@IAEHIJAAJ@Z 00408a90 f   CharWndCode.obj
 0001:00007b20       ?OnCWRButtonDown@CCharWndCode@@IAEHIJAAJ@Z 00408b20 f   CharWndCode.obj
 0001:00007b60       ?OnEXRButtonDown@CCharWndCode@@AAEHABVJPoint@@_N@Z 00408b60 f   CharWndCode.obj
 0001:00007c20       ?OnCWRButtonDoubleClick@CCharWndCode@@IAEHIJAAJ@Z 00408c20 f   CharWndCode.obj
 0001:00007c90       ?OnCWRButtonMultipleClick@CCharWndCode@@IAEHIJAAJ@Z 00408c90 f   CharWndCode.obj
 0001:00007d30       ?DragStartNoMouseDown@CCharWndCode@@QAEXXZ 00408d30 f   CharWndCode.obj
 0001:00007d60       ?InitDragValue@CCharWndCode@@AAEX_N@Z 00408d60 f   CharWndCode.obj
 0001:00007f60       ?OnCWRButtonUp@CCharWndCode@@IAEHIJAAJ@Z 00408f60 f   CharWndCode.obj
 0001:00007fa0       ?OnEXRButtonUp@CCharWndCode@@AAEHABVJPoint@@_N@Z 00408fa0 f   CharWndCode.obj
 0001:00008090       ?OnCWSysCommand@CCharWndCode@@IAEHIJAAJ@Z 00409090 f   CharWndCode.obj
 0001:00008120       ?OnCWSystemMenu@CCharWndCode@@IAEHIJAAJ@Z 00409120 f   CharWndCode.obj
 0001:00008170       ?OnCWContextMenu@CCharWndCode@@IAEHIJAAJ@Z 00409170 f   CharWndCode.obj
 0001:00008210       ?OnCWContextMenuSSP@CCharWndCode@@IAEHPAUtagPOINT@@_N@Z 00409210 f   CharWndCode.obj
 0001:00008400       ?ShowContextMenu@CCharWndCode@@IAEXPAUtagPOINT@@@Z 00409400 f   CharWndCode.obj
 0001:00008490       ?OnCWKeyDown@CCharWndCode@@IAEHIJAAJ@Z 00409490 f   CharWndCode.obj
 0001:000084e0       ?OnCWSysKeyDown@CCharWndCode@@IAEHIJAAJ@Z 004094e0 f   CharWndCode.obj
 0001:00008510       ?OnCWKeyUp@CCharWndCode@@IAEHIJAAJ@Z 00409510 f   CharWndCode.obj
 0001:00008580       ?OnCWSysKeyUp@CCharWndCode@@IAEHIJAAJ@Z 00409580 f   CharWndCode.obj
 0001:000085b0       ?EX_OnKeyDown@CCharWndCode@@QAE_NIJPAUHWND__@@@Z 004095b0 f   CharWndCode.obj
 0001:00008680       ?ProcessKeyDown@CCharWndCode@@IAE_NIJ@Z 00409680 f   CharWndCode.obj
 0001:000088b0       ?OnCWDrawItem@CCharWndCode@@IAEHIJAAJ@Z 004098b0 f   CharWndCode.obj
 0001:00008910       ?OnCWMeasureItem@CCharWndCode@@IAEHIJAAJ@Z 00409910 f   CharWndCode.obj
 0001:00008940       ?OnCWGetMinMaxInfo@CCharWndCode@@IAEHIJAAJ@Z 00409940 f   CharWndCode.obj
 0001:00008990       ?OnCWMenuSelect@CCharWndCode@@IAEHIJAAJ@Z 00409990 f   CharWndCode.obj
 0001:00008b00       ?OnCWTimer@CCharWndCode@@IAEHIJAAJ@Z 00409b00 f   CharWndCode.obj
 0001:00008d50       ?OnCWMouseLeave@CCharWndCode@@IAEHIJAAJ@Z 00409d50 f   CharWndCode.obj
 0001:00008f40       ?OnCWNotifyFormat@CCharWndCode@@IAEHIJAAJ@Z 00409f40 f   CharWndCode.obj
 0001:00008f60       ?OnCWNotify@CCharWndCode@@IAEHIJAAJ@Z 00409f60 f   CharWndCode.obj
 0001:00008fa0       ?OnCWNCHitTest@CCharWndCode@@IAEHIJAAJ@Z 00409fa0 f   CharWndCode.obj
 0001:00008fc0       ?OnCWEnterSizeMove@CCharWndCode@@IAEHIJAAJ@Z 00409fc0 f   CharWndCode.obj
 0001:00009010       ?OnCWTouch@CCharWndCode@@IAEHIJAAJ@Z 0040a010 f   CharWndCode.obj
 0001:00009200       ?OnEXTouchDown@CCharWndCode@@AAEXKPBUtagSP_TOUCHINPUT@@KK@Z 0040a200 f   CharWndCode.obj
 0001:000092e0       ?OnEXTouchUp@CCharWndCode@@AAEXKPBUtagSP_TOUCHINPUT@@KK@Z 0040a2e0 f   CharWndCode.obj
 0001:000093b0       ?OnEXTouchMove@CCharWndCode@@AAEXPBUtagSP_TOUCHINPUT@@KK@Z 0040a3b0 f   CharWndCode.obj
 0001:00009400       ?OnEXTouchTimer@CCharWndCode@@AAEXXZ 0040a400 f   CharWndCode.obj
 0001:00009410       ?ProcessThumbnail@CCharWndCode@@IAEXI@Z 0040a410 f   CharWndCode.obj
 0001:00009880       ??1JLock@@QAE@XZ           0040a880 f i CharWndCode.obj
 0001:00009880       ??1JUnlock@@QAE@XZ         0040a880 f i CharWndCode.obj
 0001:00009890       ??0JWString@@QAE@XZ        0040a890 f i CharWndCode.obj
 0001:00009950       ?ModifyMenuWithTable@CCharWndCode@@IAEXPAVSPMenuItem@@PBUtagSPMENUMODIFYTABLE@@I@Z 0040a950 f   CharWndCode.obj
 0001:00009cf0       ?UpdateChildWndPos@CCharWndCode@@QAEXXZ 0040acf0 f   CharWndCode.obj
 0001:00009d30       ?UpdateMessageScale@CCharWndCode@@QAEXXZ 0040ad30 f   CharWndCode.obj
 0001:00009d70       ?UpdateWndRecommendation@CCharWndCode@@UAEXXZ 0040ad70 f   CharWndCode.obj
 0001:00009f00       ?ModifyPopupMenu@CCharWndCode@@MAEXXZ 0040af00 f   CharWndCode.obj
 0001:0000a160       ?ModifyPopupMenuEnableStateChar@CCharWndCode@@AAEX_N@Z 0040b160 f   CharWndCode.obj
 0001:0000a250       ?CCWC_OnCommand@CCharWndCode@@IAEHIJ@Z 0040b250 f   CharWndCode.obj
 0001:0000a5d0       ?CCWC_OnSSPSysMsg@CCharWndCode@@IAEHIJ@Z 0040b5d0 f   CharWndCode.obj
 0001:0000aa00       ?GetDefaultWndPosX@CCharWndCode@@MAEHAAJAAVJRect@@1AAVJPoint@@@Z 0040ba00 f   CharWndCode.obj
 0001:0000aae0       ?GetDefaultWndPosXImpl@CCharWndCode@@AAEHPBGAAJAAVJRect@@2AAVJPoint@@@Z 0040bae0 f   CharWndCode.obj
 0001:0000ac40       ?GetDefaultWndPosY@CCharWndCode@@MAEHAAJAAVJRect@@1AAVJPoint@@@Z 0040bc40 f   CharWndCode.obj
 0001:0000ace0       ?GetDefaultWndPosYImpl@CCharWndCode@@AAEHPBGAAJAAVJRect@@2AAVJPoint@@@Z 0040bce0 f   CharWndCode.obj
 0001:0000ae40       ?UpdateWndSizeInitial@CCharWndCode@@QAEXXZ 0040be40 f   CharWndCode.obj
 0001:0000ae60       ?UpdateWndSize@CCharWndCode@@QAEXIJJ@Z 0040be60 f   CharWndCode.obj
 0001:0000b3f0       ?CalcMaxMenuItemCount@CCharWndCode@@QAEKK@Z 0040c3f0 f   CharWndCode.obj
 0001:0000b440       ?UpdateBindMenu@CCharWndCode@@QAEXXZ 0040c440 f   CharWndCode.obj
 0001:0000bbc0       ?UpdateBindMenuCheck@CCharWndCode@@QAEXXZ 0040cbc0 f   CharWndCode.obj
 0001:0000bd60       ?MouseDragStartEnd@CCharWndCode@@AAEX_N0@Z 0040cd60 f   CharWndCode.obj
 0001:0000bf40       ?MouseDragFadeExec@CCharWndCode@@AAEX_N@Z 0040cf40 f   CharWndCode.obj
 0001:0000bfb0       ?ToolTipDispInfo@CCharWndCode@@AAE_NAAUtagNMTTDISPINFOW@@@Z 0040cfb0 f   CharWndCode.obj
 0001:0000c4c0       ?ToolTipActivate@CCharWndCode@@AAEX_N@Z 0040d4c0 f   CharWndCode.obj
 0001:0000c4f0       ?ShowSystemPopup@CCharWndCode@@AAEX_N@Z 0040d4f0 f   CharWndCode.obj
 0001:0000c600       ?OnCWVirtualDesktopNotify@CCharWndCode@@IAEHIJAAJ@Z 0040d600 f   CharWndCode.obj
 0001:0000c620       ?OnStatusChanged@SPLocationEvent@@UAGJABU_GUID@@W4LOCATION_REPORT_STATUS@@@Z 0040d620 f   CharWndCode.obj
 0001:0000c620       ?OnCWVirtualDesktopNotifyOverride@CCharWndCode@@MAEHIJAAJ@Z 0040d620 f   CharWndCode.obj
 0001:0000c620       ?OnLocationChanged@SPLocationEvent@@UAGJABU_GUID@@PAUILocationReport@@@Z 0040d620 f   CharWndCode.obj
 0001:0000c630       ?Add@CCharWndCodeManager@@QAEXPAVCCharWndCode@@@Z 0040d630 f   CharWndCode.obj
 0001:0000c710       ?Delete@CCharWndCodeManager@@QAEXPAVCCharWndCode@@@Z 0040d710 f   CharWndCode.obj
 0001:0000c810       ?Find@CCharWndCodeManager@@AAEJPAVCCharWndCode@@@Z 0040d810 f   CharWndCode.obj
 0001:0000c840       ?StartDrag@CCharWndCodeManager@@QAEXXZ 0040d840 f   CharWndCode.obj
 0001:0000c850       ?EndDrag@CCharWndCodeManager@@QAEXXZ 0040d850 f   CharWndCode.obj
 0001:0000c880       ?Check@CCharWndCodeManager@@QAEXXZ 0040d880 f   CharWndCode.obj
 0001:0000d1a0       ?Clear@SPShioriEvent@@QAEXXZ 0040e1a0 f i CharWndCode.obj
 0001:0000d1e0       ?Last@?$JArray@G@@QAEAAGXZ 0040e1e0 f i CharWndCode.obj
 0001:0000d200       ?Size@?$JArray@G@@QBEKXZ   0040e200 f i CharWndCode.obj
 0001:0000d220       ?SetNum@?$JArray@G@@QAEXK@Z 0040e220 f i CharWndCode.obj
 0001:0000d270       ?SetNumNoPurge@?$JArray@G@@QAEXK_N@Z 0040e270 f i CharWndCode.obj
 0001:0000d2d0       ?Size@?$JArray@PAVSPProp@@@@QBEKXZ 0040e2d0 f i CharWndCode.obj
 0001:0000d2d0       ?Size@?$JArray@J@@QBEKXZ   0040e2d0 f i CharWndCode.obj
 0001:0000d2d0       ?Size@?$JArray@K@@QBEKXZ   0040e2d0 f i CharWndCode.obj
 0001:0000d2d0       ?Size@?$JArray@PAX@@QBEKXZ 0040e2d0 f i CharWndCode.obj
 0001:0000d2f0       ?Add@?$JArray@PAX@@QAEXPBQAXJ@Z 0040e2f0 f i CharWndCode.obj
 0001:0000d440       ?Realloc@?$JArray@VCCharWndCodeManagerData@@@@QAE_NK@Z 0040e440 f i CharWndCode.obj
 0001:0000d540       ??0CDeveloperSettingDlg@@QAE@PAVCWnd@@@Z 0040e540 f   DeveloperSetting.obj
 0001:0000d630       ??_ECDeveloperSettingDlg@@UAEPAXI@Z 0040e630 f i DeveloperSetting.obj
 0001:0000d630       ??_GCDeveloperSettingDlg@@UAEPAXI@Z 0040e630 f i DeveloperSetting.obj
 0001:0000d660       ??1CDeveloperSettingDlg@@UAE@XZ 0040e660 f i DeveloperSetting.obj
 0001:0000d6c0       ?DoDataExchange@CDeveloperSettingDlg@@MAEXPAVCDataExchange@@@Z 0040e6c0 f   DeveloperSetting.obj
 0001:0000d6e0       ?GetMessageMap@CDeveloperSettingDlg@@MBEPBUAFX_MSGMAP@@XZ 0040e6e0 f   DeveloperSetting.obj
 0001:0000d6f0       ?ModifyTemplate@CDeveloperSettingDlg@@UAEXPAVSPDlgTemplate@@@Z 0040e6f0 f   DeveloperSetting.obj
 0001:0000d710       ?OnInitDialog@CDeveloperSettingDlg@@MAEHXZ 0040e710 f   DeveloperSetting.obj
 0001:0000dc60       ?OnDestroy@CDeveloperSettingDlg@@IAEXXZ 0040ec60 f   DeveloperSetting.obj
 0001:0000de60       ?OnEnableChangeFmoName@CDeveloperSettingDlg@@IAEXXZ 0040ee60 f   DeveloperSetting.obj
 0001:0000df10       ?OnChangeFmoName@CDeveloperSettingDlg@@IAEXXZ 0040ef10 f   DeveloperSetting.obj
 0001:0000e010       ?OnUpdateDefChange@CDeveloperSettingDlg@@IAEXXZ 0040f010 f   DeveloperSetting.obj
 0001:0000e0d0       ?OnUpdateUTF8@CDeveloperSettingDlg@@IAEXXZ 0040f0d0 f   DeveloperSetting.obj
 0001:0000e100       ?OnSetDirDrop@CDeveloperSettingDlg@@IAEXXZ 0040f100 f   DeveloperSetting.obj
 0001:0000e130       ?OnNarpathRadio@CDeveloperSettingDlg@@IAEXXZ 0040f130 f   DeveloperSetting.obj
 0001:0000e190       ?OnNarPathUserAsk@CDeveloperSettingDlg@@IAEXXZ 0040f190 f   DeveloperSetting.obj
 0001:0000e350       ??1SPFolderDialog@@QAE@XZ  0040f350 f i DeveloperSetting.obj
 0001:0000e3d0       ?OnUpdateBackupfiles@CDeveloperSettingDlg@@IAEXXZ 0040f3d0 f   DeveloperSetting.obj
 0001:0000e400       ?OnUpdateIgnoreReadonly@CDeveloperSettingDlg@@IAEXXZ 0040f400 f   DeveloperSetting.obj
 0001:0000e430       ?OnHideSurfaceError@CDeveloperSettingDlg@@IAEXXZ 0040f430 f   DeveloperSetting.obj
 0001:0000e470       ?OnSakuraMutex@CDeveloperSettingDlg@@IAEXXZ 0040f470 f   DeveloperSetting.obj
 0001:0000e4a0       ?OnDisableVanish@CDeveloperSettingDlg@@IAEXXZ 0040f4a0 f   DeveloperSetting.obj
 0001:0000e4e0       ?OnDisableLock@CDeveloperSettingDlg@@IAEXXZ 0040f4e0 f   DeveloperSetting.obj
 0001:0000e520       ?OnTortoiseSVN@CDeveloperSettingDlg@@IAEXXZ 0040f520 f   DeveloperSetting.obj
 0001:0000e550       ?OnSelchangeNotifyError@CDeveloperSettingDlg@@IAEXXZ 0040f550 f   DeveloperSetting.obj
 0001:0000e5a0       ?OnExhandler@CDeveloperSettingDlg@@IAEXXZ 0040f5a0 f   DeveloperSetting.obj
 0001:0000e5e0       ?OnEnableTestUpdate@CDeveloperSettingDlg@@IAEXXZ 0040f5e0 f   DeveloperSetting.obj
 0001:0000e650       ??0CDevPalette@@QAE@PAVCWnd@@@Z 0040f650 f   DevPalette.obj
 0001:0000e680       ??_GCDevPalette@@UAEPAXI@Z 0040f680 f i DevPalette.obj
 0001:0000e680       ??_ECDevPalette@@UAEPAXI@Z 0040f680 f i DevPalette.obj
 0001:0000e6b0       ?AfterTrackPopup@CSimpleMenu@@QBEXPAUHWND__@@@Z 0040f6b0 f   DevPalette.obj
 0001:0000e6b0       ?DoDataExchange@CNoGhostDlg@@MAEXPAVCDataExchange@@@Z 0040f6b0 f   DevPalette.obj
 0001:0000e6b0       ?RelayEvent@CToolTipCustom@@QAEXAAUtagMSG@@@Z 0040f6b0 f   DevPalette.obj
 0001:0000e6b0       ?DoDataExchange@CMessengerSettingDlg@@MAEXPAVCDataExchange@@@Z 0040f6b0 f   DevPalette.obj
 0001:0000e6b0       ?DoDataExchange@CExtAppDlg@@MAEXPAVCDataExchange@@@Z 0040f6b0 f   DevPalette.obj
 0001:0000e6b0       ?DoDataExchange@CModuleCharset@@MAEXPAVCDataExchange@@@Z 0040f6b0 f   DevPalette.obj
 0001:0000e6b0       ?DoDataExchange@CSaveShareDlg@@MAEXPAVCDataExchange@@@Z 0040f6b0 f   DevPalette.obj
 0001:0000e6b0       ?DoDataExchange@CMessengerUserDlg@@MAEXPAVCDataExchange@@@Z 0040f6b0 f   DevPalette.obj
 0001:0000e6b0       ?DoDataExchange@CDevPalette@@MAEXPAVCDataExchange@@@Z 0040f6b0 f   DevPalette.obj
 0001:0000e6b0       ?DoDataExchange@CDevSerikoDump@@MAEXPAVCDataExchange@@@Z 0040f6b0 f   DevPalette.obj
 0001:0000e6b0       ?DoDataExchange@CScalingDlg@@MAEXPAVCDataExchange@@@Z 0040f6b0 f   DevPalette.obj
 0001:0000e6b0       ?DoDataExchange@CGhostTermsDlg@@MAEXPAVCDataExchange@@@Z 0040f6b0 f   DevPalette.obj
 0001:0000e6b0       ?DoDataExchange@CPlaySSFDlg@@MAEXPAVCDataExchange@@@Z 0040f6b0 f   DevPalette.obj
 0001:0000e6b0       ?DoDataExchange@CAboutDlg@@MAEXPAVCDataExchange@@@Z 0040f6b0 f   DevPalette.obj
 0001:0000e6b0       ?DoDataExchange@CStdInput@@MAEXPAVCDataExchange@@@Z 0040f6b0 f   DevPalette.obj
 0001:0000e6b0       ?DoDataExchange@CGhostATSoundWnd@@MAEXPAVCDataExchange@@@Z 0040f6b0 f   DevPalette.obj
 0001:0000e6b0       ?DoDataExchange@CFolderDlg@@MAEXPAVCDataExchange@@@Z 0040f6b0 f   DevPalette.obj
 0001:0000e6c0       ?GetMessageMap@CDevPalette@@MBEPBUAFX_MSGMAP@@XZ 0040f6c0 f   DevPalette.obj
 0001:0000e6d0       ?OnClose@CDevPalette@@IAEXXZ 0040f6d0 f   DevPalette.obj
 0001:0000e6d0       ?OnCancel@CDevPalette@@MAEXXZ 0040f6d0 f   DevPalette.obj
 0001:0000e6f0       ?CreateMe@CDevPalette@@QAEXPAVCWnd@@PAVCSakuraWnd@@@Z 0040f6f0 f   DevPalette.obj
 0001:0000e8c0       ?OnInitDialog@CDevPalette@@MAEHXZ 0040f8c0 f   DevPalette.obj
 0001:0000eb60       ?OnDestroy@CDevPalette@@IAEXXZ 0040fb60 f   DevPalette.obj
 0001:0000eba0       ?OnOpenScript@CDevPalette@@IAEXXZ 0040fba0 f   DevPalette.obj
 0001:0000ebc0       ?OnOpenSurfacetest@CDevPalette@@IAEXXZ 0040fbc0 f   DevPalette.obj
 0001:0000ebe0       ?OnOpenTimeMachine@CDevPalette@@IAEXXZ 0040fbe0 f   DevPalette.obj
 0001:0000ebf0       ?OnOpenSeriko@CDevPalette@@IAEXXZ 0040fbf0 f   DevPalette.obj
 0001:0000ec00       ?OnOpenErrorlog@CDevPalette@@IAEXXZ 0040fc00 f   DevPalette.obj
 0001:0000ec20       ?OnShowHitRect@CDevPalette@@IAEXXZ 0040fc20 f   DevPalette.obj
 0001:0000ec90       ?OnBalloonTest@CDevPalette@@IAEXXZ 0040fc90 f   DevPalette.obj
 0001:0000ecf0       ?OnAdjustSerikoWait@CDevPalette@@IAEXXZ 0040fcf0 f   DevPalette.obj
 0001:0000ee80       ??1CStdInput@@UAE@XZ       0040fe80 f i DevPalette.obj
 0001:0000eef0       ?OnShioriLog@CDevPalette@@IAEXXZ 0040fef0 f   DevPalette.obj
 0001:0000ef50       ?OnShioriLogNotify@CDevPalette@@IAEXXZ 0040ff50 f   DevPalette.obj
 0001:0000efb0       ?OnShioriDebugNotify@CDevPalette@@IAEXXZ 0040ffb0 f   DevPalette.obj
 0001:0000f010       ?UpdateEnabled@CDevPalette@@AAEXXZ 00410010 f   DevPalette.obj
 0001:0000f030       ?OnExecReload@CDevPalette@@IAEXXZ 00410030 f   DevPalette.obj
 0001:0000f270       ?OnDummyUpdate@CDevPalette@@IAEXXZ 00410270 f   DevPalette.obj
 0001:0000f2b0       ?OnChangeSender@CDevPalette@@IAEXXZ 004102b0 f   DevPalette.obj
 0001:0000f450       ?UpdateTestProc@CDevPaletteUpdateTestInfo@@QAEXPCH@Z 00410450 f   DevPalette.obj
 0001:0000ff40       ??0SPStaticStringArrayW@@QAE@XZ 00410f40 f i DevPalette.obj
 0001:0000ff90       ??1SPStaticStringArrayW@@QAE@XZ 00410f90 f i DevPalette.obj
 0001:00010020       ??0SPUpdateListenerBase@@QAE@PAVSPGhost@@PBG11_N@Z 00411020 f i DevPalette.obj
 0001:000100e0       ??1SPCmdListener@@UAE@XZ   004110e0 f i DevPalette.obj
 0001:00010150       ??_GSPCmdListener@@UAEPAXI@Z 00411150 f i DevPalette.obj
 0001:00010150       ??_ESPCmdListener@@UAEPAXI@Z 00411150 f i DevPalette.obj
 0001:00010180       ??1SPUpdateListenerBase@@UAE@XZ 00411180 f i DevPalette.obj
 0001:00010220       ??_ESPUpdateListenerBase@@UAEPAXI@Z 00411220 f i DevPalette.obj
 0001:00010220       ??_GSPUpdateListenerBase@@UAEPAXI@Z 00411220 f i DevPalette.obj
 0001:00010250       ??_ESPUpdateListener@@UAEPAXI@Z 00411250 f i DevPalette.obj
 0001:00010250       ??_GSPUpdateListener@@UAEPAXI@Z 00411250 f i DevPalette.obj
 0001:00010280       ??1SPUpdateListener@@UAE@XZ 00411280 f i DevPalette.obj
 0001:00010330       ?OnExecOpen@CDevPalette@@IAEXXZ 00411330 f   DevPalette.obj
 0001:00010df0       ??0JWString@@QAE@PBG@Z     00411df0 f i DevPalette.obj
 0001:00010e40       ??1SPCmdNotifier@@UAE@XZ   00411e40 f i DevPalette.obj
 0001:00010ee0       ??_GSPCmdNotifier@@UAEPAXI@Z 00411ee0 f i DevPalette.obj
 0001:00010ee0       ??_ESPCmdNotifier@@UAEPAXI@Z 00411ee0 f i DevPalette.obj
 0001:00010f10       ??1SPDeleteTxt@@QAE@XZ     00411f10 f i DevPalette.obj
 0001:00010fb0       ?SPCNotify@CDevPaletteUpdateTestInfo@@UAE_NKPAPAXK@Z 00411fb0 f i DevPalette.obj
 0001:00010fe0       ??_ECDevPaletteUpdateTestInfo@@UAEPAXI@Z 00411fe0 f i DevPalette.obj
 0001:00010fe0       ??_GCDevPaletteUpdateTestInfo@@UAEPAXI@Z 00411fe0 f i DevPalette.obj
 0001:00011010       ??1CDevPaletteUpdateTestInfo@@UAE@XZ 00412010 f i DevPalette.obj
 0001:000110d0       ?OnGroupFlagChange@CDevPalette@@IAEXXZ 004120d0 f   DevPalette.obj
 0001:000110f0       ?OnSuppressExit@CDevPalette@@IAEXXZ 004120f0 f   DevPalette.obj
 0001:00011130       ?OnExecOpenSurfaceDump@CDevPalette@@AAEXXZ 00412130 f   DevPalette.obj
 0001:000114b0       ??0JString@@QAE@XZ         004124b0 f i DevPalette.obj
 0001:00011560       ??1CDevSerikoDump@@UAE@XZ  00412560 f i DevPalette.obj
 0001:000115c0       ??0?$JPtrArray@PAG@@QAE@J@Z 004125c0 f i DevPalette.obj
 0001:00011620       ??0?$JArray@J@@QAE@K@Z     00412620 f i DevPalette.obj
 0001:00011620       ??0?$JArray@K@@QAE@K@Z     00412620 f i DevPalette.obj
 0001:00011620       ??0?$JArray@PAX@@QAE@K@Z   00412620 f i DevPalette.obj
 0001:000116c0       ??0?$JPtrArray@PAVSPCmdNotifier@@@@QAE@J@Z 004126c0 f i DevPalette.obj
 0001:00011720       ??0?$JPtrArray@PAVSPDlgTemplateItem@@@@QAE@J@Z 00412720 f i DevPalette.obj
 0001:00011780       ??0CDevSerikoDump@@QAE@PAVCWnd@@@Z 00412780 f   DevSerikoDump.obj
 0001:00011870       ??_GCDevSerikoDump@@UAEPAXI@Z 00412870 f i DevSerikoDump.obj
 0001:00011870       ??_ECDevSerikoDump@@UAEPAXI@Z 00412870 f i DevSerikoDump.obj
 0001:000118a0       ?GetMessageMap@CDevSerikoDump@@MBEPBUAFX_MSGMAP@@XZ 004128a0 f   DevSerikoDump.obj
 0001:000118b0       ?OnOK@CDevSerikoDump@@MAEXXZ 004128b0 f   DevSerikoDump.obj
 0001:000118f0       ?OnInitDialog@CDevSerikoDump@@MAEHXZ 004128f0 f   DevSerikoDump.obj
 0001:00011920       ??0CDevSerikoTree@@QAE@PAVCWnd@@@Z 00412920 f   DevSerikoTree.obj
 0001:00011a10       ??_GCTreeCtrl@@UAEPAXI@Z   00412a10 f i DevSerikoTree.obj
 0001:00011a10       ??_ECTreeCtrl@@UAEPAXI@Z   00412a10 f i DevSerikoTree.obj
 0001:00011a40       ??_ECDevSerikoTree@@UAEPAXI@Z 00412a40 f i DevSerikoTree.obj
 0001:00011a40       ??_GCDevSerikoTree@@UAEPAXI@Z 00412a40 f i DevSerikoTree.obj
 0001:00011a70       ??1CDevSerikoTree@@UAE@XZ  00412a70 f i DevSerikoTree.obj
 0001:00011b20       ?DoDataExchange@CDevSerikoTree@@MAEXPAVCDataExchange@@@Z 00412b20 f   DevSerikoTree.obj
 0001:00011b40       ?GetMessageMap@CDevSerikoTree@@MBEPBUAFX_MSGMAP@@XZ 00412b40 f   DevSerikoTree.obj
 0001:00011b50       ?OnInitDialog@CDevSerikoTree@@MAEHXZ 00412b50 f   DevSerikoTree.obj
 0001:00011d50       ?OnSize@CDevSerikoTree@@IAEXIHH@Z 00412d50 f   DevSerikoTree.obj
 0001:00011d80       ?OnCancel@CDevSerikoTree@@MAEXXZ 00412d80 f   DevSerikoTree.obj
 0001:00011d80       ?OnClose@CDevSerikoTree@@IAEXXZ 00412d80 f   DevSerikoTree.obj
 0001:00011db0       ?SetGhost@CDevSerikoTree@@QAEXPAVCSakuraWnd@@@Z 00412db0 f   DevSerikoTree.obj
 0001:00011dc0       ?OnDestroy@CDevSerikoTree@@IAEXXZ 00412dc0 f   DevSerikoTree.obj
 0001:00011e00       ?OnGetMinMaxInfo@CDevSerikoTree@@IAEXPAUtagMINMAXINFO@@@Z 00412e00 f   DevSerikoTree.obj
 0001:00011ea0       ?InitTree@CDevSerikoTree@@AAEXXZ 00412ea0 f   DevSerikoTree.obj
 0001:00011ed0       ?AddToTree@CDevSerikoTree@@AAEX_NKPBGH@Z 00412ed0 f   DevSerikoTree.obj
 0001:00011fd0       ?ExpandChild@CDevSerikoTree@@AAEXPAU_TREEITEM@@_N@Z 00412fd0 f   DevSerikoTree.obj
 0001:00012010       ?ExpandChildReal@CDevSerikoTree@@AAEXPAU_TREEITEM@@_N@Z 00413010 f   DevSerikoTree.obj
 0001:00012150       ?OnItemExpandedSerikoTree@CDevSerikoTree@@IAEXPAUtagNMHDR@@PAJ@Z 00413150 f   DevSerikoTree.obj
 0001:000121e0       ?UpdateTreeInfo@CDevSerikoTree@@AAEX_N@Z 004131e0 f   DevSerikoTree.obj
 0001:00013300       ?OnDevSerikoExpand@CDevSerikoTree@@IAEXXZ 00414300 f   DevSerikoTree.obj
 0001:00013310       ?OnDevSerikoCollapse@CDevSerikoTree@@IAEXXZ 00414310 f   DevSerikoTree.obj
 0001:00013320       ?OnDevSerikoDump@CDevSerikoTree@@IAEXXZ 00414320 f   DevSerikoTree.obj
 0001:000134e0       ??1JStream@@UAE@XZ         004144e0 f i DevSerikoTree.obj
 0001:00013500       ?Open@JStream@@UAEHPAVJStreamObject@@PBDH@Z 00414500 f i DevSerikoTree.obj
 0001:00013540       ?Open@JStream@@UAEHPAVJStreamObject@@PBGH@Z 00414540 f i DevSerikoTree.obj
 0001:00013580       ?Open@JStream@@UAEHPBDH@Z  00414580 f i DevSerikoTree.obj
 0001:000135b0       ?Open@JStream@@UAEHPBGH@Z  004145b0 f i DevSerikoTree.obj
 0001:000135e0       ?AttachStream@JStream@@UAEXPAVJStreamObject@@@Z 004145e0 f i DevSerikoTree.obj
 0001:00013610       ?DetachStream@JStream@@UAEPAVJStreamObject@@XZ 00414610 f i DevSerikoTree.obj
 0001:00013620       ?Close@JStream@@UAEXXZ     00414620 f i DevSerikoTree.obj
 0001:00013630       ?Read@JStream@@UAEEXZ      00414630 f i DevSerikoTree.obj
 0001:00013660       ?Read@JStream@@UAEKPAXK@Z  00414660 f i DevSerikoTree.obj
 0001:000136a0       ?Write@JStream@@UAEKE@Z    004146a0 f i DevSerikoTree.obj
 0001:000136d0       ?Write@JStream@@UAEKPBXK@Z 004146d0 f i DevSerikoTree.obj
 0001:00013710       ?Seek@JStream@@UAEHJH@Z    00414710 f i DevSerikoTree.obj
 0001:00013740       ?Length@JStream@@UAEKXZ    00414740 f i DevSerikoTree.obj
 0001:00013750       ?Pos@JStream@@UAEKXZ       00414750 f i DevSerikoTree.obj
 0001:00013760       ?OnWrite@JStream@@UAEXPAEK@Z 00414760 f i DevSerikoTree.obj
 0001:00013760       ?OnRead@JStream@@UAEXPAEK@Z 00414760 f i DevSerikoTree.obj
 0001:00013770       ?Flush@JStream@@UAEXXZ     00414770 f i DevSerikoTree.obj
 0001:00013780       ??_EJStream@@UAEPAXI@Z     00414780 f i DevSerikoTree.obj
 0001:00013780       ??_GJStream@@UAEPAXI@Z     00414780 f i DevSerikoTree.obj
 0001:000137b0       ?ExpandCollapseAll@CDevSerikoTree@@AAEX_N@Z 004147b0 f   DevSerikoTree.obj
 0001:00013860       ?AddToArray@?$SPSparsePtrArrayDef@PAVSPAnimeBase@@@@QAEXAAV?$JArray@V?$SPSparsePtrArrayDefPair@PAVSPAnimeBase@@@@@@@Z 00414860 f i DevSerikoTree.obj
 0001:000139b0       ?Copy@?$JArray@J@@QAE_NPBJK@Z 004149b0 f i DevSerikoTree.obj
 0001:000139b0       ?Copy@?$JArray@PAX@@QAE_NPBQAXK@Z 004149b0 f i DevSerikoTree.obj
 0001:000139b0       ?Copy@?$JArray@K@@QAE_NPBKK@Z 004149b0 f i DevSerikoTree.obj
 0001:00013b20       ?Copy@?$JArray@VJPoint@@@@QAE_NPBVJPoint@@K@Z 00414b20 f i DevSerikoTree.obj
 0001:00013c90       ?Size@?$JArray@VSPSerikoAnimationPlayPat@@@@QBEKXZ 00414c90 f i DevSerikoTree.obj
 0001:00013c90       ?Size@?$JArray@VSPSerikoRange@@@@QBEKXZ 00414c90 f i DevSerikoTree.obj
 0001:00013c90       ?Size@?$JArray@UtagPOINT@@@@QBEKXZ 00414c90 f i DevSerikoTree.obj
 0001:00013c90       ?Size@?$JArray@V?$SPSparsePtrArrayDefPair@PAVSPAnimeBase@@@@@@QBEKXZ 00414c90 f i DevSerikoTree.obj
 0001:00013c90       ?Size@?$JArray@VJPoint@@@@QBEKXZ 00414c90 f i DevSerikoTree.obj
 0001:00013c90       ?Size@?$JArray@N@@QBEKXZ   00414c90 f i DevSerikoTree.obj
 0001:00013cb0       ?_Sort_0@std@@YAXPAPAVSPCollisionProp@@0U?$JArray_PointerPred@PAVSPCollisionProp@@@@0@Z 00414cb0 f i DevSerikoTree.obj
 0001:00013ed0       ?_Sort_0@std@@YAXPAPAVSPAnimeScript@@0U?$JArray_PointerPred@PAVSPAnimeScript@@@@0@Z 00414ed0 f i DevSerikoTree.obj
 0001:000140f0       ?_Sort_0@std@@YAXPAV?$SPSparsePtrArrayDefPair@PAVSPAnimeBase@@@@00@Z 004150f0 f i DevSerikoTree.obj
 0001:00014370       ?_Sort@std@@YAXPAPAVSPCollisionProp@@0U?$JArray_PointerPred@PAVSPCollisionProp@@@@0@Z 00415370 f i DevSerikoTree.obj
 0001:00014470       ?_Sort@std@@YAXPAPAVSPAnimeScript@@0U?$JArray_PointerPred@PAVSPAnimeScript@@@@0@Z 00415470 f i DevSerikoTree.obj
 0001:00014570       ?_Sort@std@@YAXPAV?$SPSparsePtrArrayDefPair@PAVSPAnimeBase@@@@00@Z 00415570 f i DevSerikoTree.obj
 0001:000146b0       ?CreateIndirectCustom@CDialogCustom@@QAE_NPAVCWnd@@@Z 004156b0 f   DialogCustom.obj
 0001:000146d0       ?CreateIndirectCustom@CDialogCustom@@QAE_NHPAVCWnd@@@Z 004156d0 f   DialogCustom.obj
 0001:000148a0       ?CreateIndirectCustomTemplate@CDialogCustom@@QAE_NAAVSPDlgTemplate@@PAVCWnd@@@Z 004158a0 f   DialogCustom.obj
 0001:00014920       ?CreateIndirectCustomPtr@CDialogCustom@@QAE_NPAXPAVCWnd@@@Z 00415920 f   DialogCustom.obj
 0001:00014940       ?DoModalCustom@CDialogCustom@@QAEHPAVCWnd@@@Z 00415940 f   DialogCustom.obj
 0001:00014960       ?DoModalCustom@CDialogCustom@@QAEHHPAVCWnd@@@Z 00415960 f   DialogCustom.obj
 0001:00014b20       ?DoModalCustomTemplate@CDialogCustom@@QAEHAAVSPDlgTemplate@@PAVCWnd@@@Z 00415b20 f   DialogCustom.obj
 0001:00014bf0       ??0CDictationPalette@@QAE@PAVCWnd@@@Z 00415bf0 f   DictationPalette.obj
 0001:00014c90       ??_GCDictationPalette@@UAEPAXI@Z 00415c90 f i DictationPalette.obj
 0001:00014c90       ??_ECDictationPalette@@UAEPAXI@Z 00415c90 f i DictationPalette.obj
 0001:00014cc0       ??1CDictationPalette@@UAE@XZ 00415cc0 f   DictationPalette.obj
 0001:00014d60       ?DoDataExchange@CDictationPalette@@MAEXPAVCDataExchange@@@Z 00415d60 f   DictationPalette.obj
 0001:00014d80       ?GetMessageMap@CDictationPalette@@MBEPBUAFX_MSGMAP@@XZ 00415d80 f   DictationPalette.obj
 0001:00014d90       ?OnInitDialog@CDictationPalette@@MAEHXZ 00415d90 f   DictationPalette.obj
 0001:00015040       ?OnDestroy@CDictationPalette@@IAEXXZ 00416040 f   DictationPalette.obj
 0001:000150f0       ?OnCancel@CDictationPalette@@MAEXXZ 004160f0 f   DictationPalette.obj
 0001:000150f0       ?OnClose@CDictationPalette@@IAEXXZ 004160f0 f   DictationPalette.obj
 0001:00015120       ?OnRecoEvent@CDictationPalette@@IAEJIJ@Z 00416120 f   DictationPalette.obj
 0001:00015150       ?SetListenMode@CDictationPalette@@AAEXI@Z 00416150 f   DictationPalette.obj
 0001:00015180       ?ReloadDictationConfig@CDictationPalette@@QAEXXZ 00416180 f   DictationPalette.obj
 0001:00015190       ?UpdateState@CDictationPalette@@QAEXIJ@Z 00416190 f   DictationPalette.obj
 0001:000151b0       ?OnSSPSysMsg@CDictationPalette@@IAEJIJ@Z 004161b0 f   DictationPalette.obj
 0001:000151e0       ?OnEraseBkgnd@CDictationPalette@@IAEHPAVCDC@@@Z 004161e0 f   DictationPalette.obj
 0001:000152b0       ?OnCtlColor@CDictationPalette@@IAEPAUHBRUSH__@@PAVCDC@@PAVCWnd@@I@Z 004162b0 f   DictationPalette.obj
 0001:00015430       ?OnSize@CDictationPalette@@IAEXIHH@Z 00416430 f   DictationPalette.obj
 0001:000154b0       ?ResultProc@CDictationPalette@@QAEJPAUHWND__@@IIJ@Z 004164b0 f   DictationPalette.obj
 0001:00015590       ?OnCustomDrawResult@CDictationPalette@@IAEXPAUtagNMHDR@@PAJ@Z 00416590 f   DictationPalette.obj
 0001:00015630       ?CreateObject@CDictationSettingDlg@@SGPAVCObject@@XZ 00416630 f   DictationSettingDlg.obj
 0001:00015690       ?GetRuntimeClass@CDictationSettingDlg@@UBEPAUCRuntimeClass@@XZ 00416690 f   DictationSettingDlg.obj
 0001:000156a0       ??0CDictationSettingDlg@@QAE@PAVCWnd@@@Z 004166a0 f   DictationSettingDlg.obj
 0001:000158e0       ??0CSliderCtrl@@QAE@XZ     004168e0 f i DictationSettingDlg.obj
 0001:00015900       ??_ECSliderCtrl@@UAEPAXI@Z 00416900 f i DictationSettingDlg.obj
 0001:00015900       ??_GCSliderCtrl@@UAEPAXI@Z 00416900 f i DictationSettingDlg.obj
 0001:00015930       ??_ECDictationSettingDlg@@UAEPAXI@Z 00416930 f i DictationSettingDlg.obj
 0001:00015930       ??_GCDictationSettingDlg@@UAEPAXI@Z 00416930 f i DictationSettingDlg.obj
 0001:00015960       ??1CDictationSettingDlg@@UAE@XZ 00416960 f i DictationSettingDlg.obj
 0001:00015c10       ?DoDataExchange@CDictationSettingDlg@@MAEXPAVCDataExchange@@@Z 00416c10 f   DictationSettingDlg.obj
 0001:00015c50       ?GetMessageMap@CDictationSettingDlg@@MBEPBUAFX_MSGMAP@@XZ 00416c50 f   DictationSettingDlg.obj
 0001:00015c60       ?GetInfoFromID@CDictationSettingDlg@@AAE?AUtagCDSInfo@@H@Z 00416c60 f   DictationSettingDlg.obj
 0001:00015d50       ?UpdateComboBox@CDictationSettingDlg@@AAEXH@Z 00416d50 f   DictationSettingDlg.obj
 0001:00015e20       ?UpdateComboBoxPitch@CDictationSettingDlg@@AAEXHJ@Z 00416e20 f   DictationSettingDlg.obj
 0001:00015f10       ?OnInitDialog@CDictationSettingDlg@@MAEHXZ 00416f10 f   DictationSettingDlg.obj
 0001:000161c0       ?OnDestroy@CDictationSettingDlg@@IAEXXZ 004171c0 f   DictationSettingDlg.obj
 0001:000161e0       ?SelChange@CDictationSettingDlg@@AAEPBGH@Z 004171e0 f   DictationSettingDlg.obj
 0001:00016260       ?OnSelchangeDictationEngine@CDictationSettingDlg@@IAEXXZ 00417260 f   DictationSettingDlg.obj
 0001:00016300       ?OnDictationEngineConfig@CDictationSettingDlg@@IAEXXZ 00417300 f   DictationSettingDlg.obj
 0001:00016350       ?OnDictationEngineMic@CDictationSettingDlg@@IAEXXZ 00417350 f   DictationSettingDlg.obj
 0001:000163a0       ?OnDictationEngineTraining@CDictationSettingDlg@@IAEXXZ 004173a0 f   DictationSettingDlg.obj
 0001:000163f0       ?OnSelchangeDictationInput@CDictationSettingDlg@@IAEXXZ 004173f0 f   DictationSettingDlg.obj
 0001:00016430       ?OnDictationInputConfig@CDictationSettingDlg@@IAEXXZ 00417430 f   DictationSettingDlg.obj
 0001:00016480       ?OnSelchangeDictationProfile@CDictationSettingDlg@@IAEXXZ 00417480 f   DictationSettingDlg.obj
 0001:00016490       ?OnSelchangeTTSOutput@CDictationSettingDlg@@IAEXXZ 00417490 f   DictationSettingDlg.obj
 0001:000164e0       ?OnTTSOutputConfig@CDictationSettingDlg@@IAEXXZ 004174e0 f   DictationSettingDlg.obj
 0001:00016530       ?OnHScroll@CDictationSettingDlg@@IAEXIIPAVCScrollBar@@@Z 00417530 f   DictationSettingDlg.obj
 0001:000165d0       ?OnSelchangeTtsVoice0@CDictationSettingDlg@@IAEXXZ 004175d0 f   DictationSettingDlg.obj
 0001:00016620       ?OnSelchangeTtsVoice1@CDictationSettingDlg@@IAEXXZ 00417620 f   DictationSettingDlg.obj
 0001:00016670       ?OnSelchangeTtsVoice2@CDictationSettingDlg@@IAEXXZ 00417670 f   DictationSettingDlg.obj
 0001:000166c0       ?OnTtsVoiceConfig0@CDictationSettingDlg@@IAEXXZ 004176c0 f   DictationSettingDlg.obj
 0001:00016710       ?OnTtsVoiceConfig1@CDictationSettingDlg@@IAEXXZ 00417710 f   DictationSettingDlg.obj
 0001:00016760       ?OnTtsVoiceConfig2@CDictationSettingDlg@@IAEXXZ 00417760 f   DictationSettingDlg.obj
 0001:000167b0       ?OnSelchangeTtsPitch0@CDictationSettingDlg@@IAEXXZ 004177b0 f   DictationSettingDlg.obj
 0001:00016800       ?OnSelchangeTtsPitch1@CDictationSettingDlg@@IAEXXZ 00417800 f   DictationSettingDlg.obj
 0001:00016850       ?OnSelchangeTtsPitch2@CDictationSettingDlg@@IAEXXZ 00417850 f   DictationSettingDlg.obj
 0001:000168e0       ?CreateObject@CDispDlg@@SGPAVCObject@@XZ 004178e0 f   DispDlg.obj
 0001:00016940       ?GetRuntimeClass@CDispDlg@@UBEPAUCRuntimeClass@@XZ 00417940 f   DispDlg.obj
 0001:00016950       ??0CDispDlg@@QAE@PAVCWnd@@@Z 00417950 f   DispDlg.obj
 0001:000169f0       ??_GCDispDlg@@UAEPAXI@Z    004179f0 f i DispDlg.obj
 0001:000169f0       ??_ECDispDlg@@UAEPAXI@Z    004179f0 f i DispDlg.obj
 0001:00016a20       ??1CDispDlg@@UAE@XZ        00417a20 f i DispDlg.obj
 0001:00016a90       ?DoDataExchange@CDispDlg@@MAEXPAVCDataExchange@@@Z 00417a90 f   DispDlg.obj
 0001:00016ae0       ?GetMessageMap@CDispDlg@@MBEPBUAFX_MSGMAP@@XZ 00417ae0 f   DispDlg.obj
 0001:00016af0       ?ModifyTemplate@CDispDlg@@UAEXPAVSPDlgTemplate@@@Z 00417af0 f   DispDlg.obj
 0001:00016b10       ?OnInitDialog@CDispDlg@@MAEHXZ 00417b10 f   DispDlg.obj
 0001:00016eb0       ?OnHScroll@CDispDlg@@IAEXIIPAVCScrollBar@@@Z 00417eb0 f   DispDlg.obj
 0001:00017110       ?UpdateLWinConfigEnabled@CDispDlg@@IAEXXZ 00418110 f   DispDlg.obj
 0001:00017170       ?OnLayered@CDispDlg@@IAEXXZ 00418170 f   DispDlg.obj
 0001:000171b0       ?OnCrossfader@CDispDlg@@IAEXXZ 004181b0 f   DispDlg.obj
 0001:00017200       ?OnExtendMenuWidthClick@CDispDlg@@IAEXXZ 00418200 f   DispDlg.obj
 0001:00017240       ?OnDontSetCursorClick@CDispDlg@@IAEXXZ 00418240 f   DispDlg.obj
 0001:00017290       ?OnChangeDesktopOffset@CDispDlg@@IAEXXZ 00418290 f   DispDlg.obj
 0001:000172e0       ?OnShowThumbnail@CDispDlg@@IAEXXZ 004182e0 f   DispDlg.obj
 0001:00017330       ?OnCreateSubmenu@CDispDlg@@IAEXXZ 00418330 f   DispDlg.obj
 0001:00017380       ?OnChangeMenuLimit@CDispDlg@@IAEXXZ 00418380 f   DispDlg.obj
 0001:000173e0       ?OnDestroy@CDispDlg@@IAEXXZ 004183e0 f   DispDlg.obj
 0001:00017500       ?OnChangeHistoryLimit@CDispDlg@@IAEXXZ 00418500 f   DispDlg.obj
 0001:00017530       ?OnChangeMenuHeight@CDispDlg@@IAEXXZ 00418530 f   DispDlg.obj
 0001:00017590       ?OnDragdrop@CDispDlg@@IAEXXZ 00418590 f   DispDlg.obj
 0001:000175e0       ?OnFlip3d@CDispDlg@@IAEXXZ 004185e0 f   DispDlg.obj
 0001:00017760       ?OnTaskbar@CDispDlg@@IAEXXZ 00418760 f   DispDlg.obj
 0001:00017850       ?OnHideFullscreen@CDispDlg@@IAEXXZ 00418850 f   DispDlg.obj
 0001:000178a0       ?OnPinVD@CDispDlg@@IAEXXZ  004188a0 f   DispDlg.obj
 0001:000178f0       ?GetCheckedRadioButton@CDlgUtil@@SAHPAUHWND__@@PBHK@Z 004188f0 f   DlgUtil.obj
 0001:00017920       ?GetCheckedRadioButtonNum@CDlgUtil@@SAHPAUHWND__@@PBHK@Z 00418920 f   DlgUtil.obj
 0001:00017990       ?SetCheckedRadioButton@CDlgUtil@@SAXPAUHWND__@@HPBHK@Z 00418990 f   DlgUtil.obj
 0001:00017a40       ?GetItemCheck@CDlgUtil@@SAHPAUHWND__@@H@Z 00418a40 f   DlgUtil.obj
 0001:00017a60       ?GetItemCheck3State@CDlgUtil@@SAHPAUHWND__@@H@Z 00418a60 f   DlgUtil.obj
 0001:00017a90       ?SetItemCheck@CDlgUtil@@SA_NPAUHWND__@@HH@Z 00418a90 f   DlgUtil.obj
 0001:00017ad0       ?EnableItem@CDlgUtil@@SA_NPAUHWND__@@HH@Z 00418ad0 f   DlgUtil.obj
 0001:00017b30       ?ShowItem@CDlgUtil@@SA_NPAUHWND__@@HH@Z 00418b30 f   DlgUtil.obj
 0001:00017ba0       ?SetFocusItem@CDlgUtil@@SA_NPAUHWND__@@H@Z 00418ba0 f   DlgUtil.obj
 0001:00017bf0       ?GetItemRect@CDlgUtil@@SA_NPAUHWND__@@HAAUtagRECT@@@Z 00418bf0 f   DlgUtil.obj
 0001:00017c20       ?SetItemRect@CDlgUtil@@SA_NPAUHWND__@@HAAUtagRECT@@@Z 00418c20 f   DlgUtil.obj
 0001:00017c70       ?GetText@CDlgUtil@@SA_NPAUHWND__@@AAVJWString@@@Z 00418c70 f   DlgUtil.obj
 0001:00017e30       ?SetText@CDlgUtil@@SA_NPAUHWND__@@PBG@Z 00418e30 f   DlgUtil.obj
 0001:00017e90       ?GetItemText@CDlgUtil@@SA_NPAUHWND__@@HAAVJWString@@@Z 00418e90 f   DlgUtil.obj
 0001:00017ec0       ?GetItemText@CDlgUtil@@SA_NPAUHWND__@@HAAVJString@@@Z 00418ec0 f   DlgUtil.obj
 0001:00017ff0       ?IsItemEmpty@CDlgUtil@@SA_NPAUHWND__@@H@Z 00418ff0 f   DlgUtil.obj
 0001:00018020       ?SetItemText@CDlgUtil@@SA_NPAUHWND__@@HPBD@Z 00419020 f   DlgUtil.obj
 0001:000180b0       ?SetItemText@CDlgUtil@@SA_NPAUHWND__@@HPBG@Z 004190b0 f   DlgUtil.obj
 0001:000180e0       ?SetItemLimitText@CDlgUtil@@SA_NPAUHWND__@@HH@Z 004190e0 f   DlgUtil.obj
 0001:00018140       ?SetButtonIcon@CDlgUtil@@SA_NPAUHWND__@@HH@Z 00419140 f   DlgUtil.obj
 0001:00018190       ?SetItemNum@CDlgUtil@@SA_NPAUHWND__@@HH@Z 00419190 f   DlgUtil.obj
 0001:000181c0       ?SetItemNumU@CDlgUtil@@SA_NPAUHWND__@@HI@Z 004191c0 f   DlgUtil.obj
 0001:000181f0       ?SetItemNumAndSpin@CDlgUtil@@SA_NPAUHWND__@@HHHHH@Z 004191f0 f   DlgUtil.obj
 0001:000182e0       ?GetItemNum@CDlgUtil@@SAJPAUHWND__@@H@Z 004192e0 f   DlgUtil.obj
 0001:00018400       ?GetItemNumU@CDlgUtil@@SAKPAUHWND__@@H@Z 00419400 f   DlgUtil.obj
 0001:00018520       ?SetPos@CDlgUtil@@SA_NPAUHWND__@@HH@Z 00419520 f   DlgUtil.obj
 0001:00018560       ?SetRange@CDlgUtil@@SA_NPAUHWND__@@HHH@Z 00419560 f   DlgUtil.obj
 0001:00018600       ?SetComboBoxTableImpl@CDlgUtil@@CAXPAUHWND__@@PAPAGK@Z 00419600 f   DlgUtil.obj
 0001:000187d0       ?SetComboBoxTable@CDlgUtil@@SAXPAUHWND__@@PAD@Z 004197d0 f   DlgUtil.obj
 0001:000188b0       ?SetComboBoxTable@CDlgUtil@@SAXPAUHWND__@@AAVSPStaticStringArrayW@@@Z 004198b0 f   DlgUtil.obj
 0001:000188e0       ?AddComboBox@CDlgUtil@@SAXPAUHWND__@@PBG@Z 004198e0 f   DlgUtil.obj
 0001:000189e0       ?GetItemCurSel@CDlgUtil@@SAJPAUHWND__@@H@Z 004199e0 f   DlgUtil.obj
 0001:00018a50       ?SetItemCurSel@CDlgUtil@@SAXPAUHWND__@@HJ@Z 00419a50 f   DlgUtil.obj
 0001:00018ab0       ?GetItemCurSelData@CDlgUtil@@SAJPAUHWND__@@H@Z 00419ab0 f   DlgUtil.obj
 0001:00018b70       ??0CDlgUtilLockWindowUpdate@@QAE@AAVCWnd@@@Z 00419b70 f   DlgUtil.obj
 0001:00018ba0       ??1CDlgUtilLockWindowUpdate@@QAE@XZ 00419ba0 f   DlgUtil.obj
 0001:00018c10       ??0CExplorerDialog@@QAE@PAVCWnd@@@Z 00419c10 f   ExplorerDialog.obj
 0001:00018dd0       ??_ECExplorerDialog@@UAEPAXI@Z 00419dd0 f i ExplorerDialog.obj
 0001:00018dd0       ??_GCExplorerDialog@@UAEPAXI@Z 00419dd0 f i ExplorerDialog.obj
 0001:00018e00       ??1CExplorerDialog@@UAE@XZ 00419e00 f i ExplorerDialog.obj
 0001:00018f30       ?DoDataExchange@CExplorerDialog@@MAEXPAVCDataExchange@@@Z 00419f30 f   ExplorerDialog.obj
 0001:00018f50       ?GetMessageMap@CExplorerDialog@@MBEPBUAFX_MSGMAP@@XZ 00419f50 f   ExplorerDialog.obj
 0001:00018f60       ?OnInitDialog@CExplorerDialog@@MAEHXZ 00419f60 f   ExplorerDialog.obj
 0001:00019780       ??1SPMenuTemplate@@QAE@XZ  0041a780 f i ExplorerDialog.obj
 0001:00019810       ?ActivateWindow@CExplorerDialog@@QAEXXZ 0041a810 f   ExplorerDialog.obj
 0001:00019830       ?CreateIndirectExt@CExplorerDialog@@QAEXPAVCWnd@@@Z 0041a830 f   ExplorerDialog.obj
 0001:00019a00       ?DoModalExt@CExplorerDialog@@QAEHPAVCWnd@@@Z 0041aa00 f   ExplorerDialog.obj
 0001:00019bd0       ?SetListMode@CExplorerDialog@@QAEXPAVSPGhost@@H@Z 0041abd0 f   ExplorerDialog.obj
 0001:00019c40       ?IsAutoClose@CExplorerDialog@@AAE_NXZ 0041ac40 f   ExplorerDialog.obj
 0001:00019c60       ?OnPropAutoclose@CExplorerDialog@@IAEXXZ 0041ac60 f   ExplorerDialog.obj
 0001:00019ca0       ?UpdateAutoCloseCheck@CExplorerDialog@@AAEXXZ 0041aca0 f   ExplorerDialog.obj
 0001:00019ce0       ?GetTypeText@CExplorerDialog@@AAEXPAGJ@Z 0041ace0 f   ExplorerDialog.obj
 0001:00019e60       ?OnDblclkDlist@CExplorerDialog@@IAEXPAUtagNMHDR@@PAJ@Z 0041ae60 f   ExplorerDialog.obj
 0001:00019ec0       ?ChangeMenuState@CExplorerDialog@@AAEXXZ 0041aec0 f   ExplorerDialog.obj
 0001:0001a6f0       ?ShowListContextMenu@CExplorerDialog@@AAEX_N@Z 0041b6f0 f   ExplorerDialog.obj
 0001:0001a7b0       ?SetListNum@CExplorerDialog@@AAEXI@Z 0041b7b0 f   ExplorerDialog.obj
 0001:0001a850       ?InitListColumn@CExplorerDialog@@AAEXXZ 0041b850 f   ExplorerDialog.obj
 0001:0001a9e0       ?InitOneItem@CExplorerDialog@@AAEXPAVSPProp@@AAVJString@@_N2@Z 0041b9e0 f   ExplorerDialog.obj
 0001:0001abc0       ?InitList@CExplorerDialog@@AAEXH@Z 0041bbc0 f   ExplorerDialog.obj
 0001:0001b690       ?SetExplorerTitle@CExplorerDialog@@AAEXXZ 0041c690 f   ExplorerDialog.obj
 0001:0001b750       ?GetSelectedCommandID@CExplorerDialog@@AAEJXZ 0041c750 f   ExplorerDialog.obj
 0001:0001b7b0       ?GetSelectedCommandIDMulti@CExplorerDialog@@AAEKAAV?$JArray@K@@@Z 0041c7b0 f   ExplorerDialog.obj
 0001:0001b930       ?AskTooManySelection@CExplorerDialog@@AAEHK@Z 0041c930 f   ExplorerDialog.obj
 0001:0001b980       ?OnCommand@CExplorerDialog@@MAEHIJ@Z 0041c980 f   ExplorerDialog.obj
 0001:0001ba10       ?OnCommandReal@CExplorerDialog@@AAEHIJ@Z 0041ca10 f   ExplorerDialog.obj
 0001:0001cc70       ?SHFileOperationA@CExplorerDialog@@AAE_NHKABVSPStaticStringArrayW@@AAV?$JPtrArray@PAVSPProp@@@@@Z 0041dc70 f   ExplorerDialog.obj
 0001:0001d290       ??0JDynLoad@@QAE@PBD@Z     0041e290 f i ExplorerDialog.obj
 0001:0001d380       ?OnCommandCreateShortcut@CExplorerDialog@@AAEHAAV?$JArray@K@@@Z 0041e380 f   ExplorerDialog.obj
 0001:0001d730       ?UpdateList@CExplorerDialog@@AAEXPAVSPGhost@@H@Z 0041e730 f   ExplorerDialog.obj
 0001:0001d790       ?SetGhost@CExplorerDialog@@QAEXPAVSPGhost@@@Z 0041e790 f   ExplorerDialog.obj
 0001:0001d850       ?GetGhost@CExplorerDialog@@QAEPAVSPGhost@@XZ 0041e850 f   ExplorerDialog.obj
 0001:0001d870       ?OnSelchangeExplorertype@CExplorerDialog@@IAEXI@Z 0041e870 f   ExplorerDialog.obj
 0001:0001da10       ?OnGetMinMaxInfo@CExplorerDialog@@IAEXPAUtagMINMAXINFO@@@Z 0041ea10 f   ExplorerDialog.obj
 0001:0001dab0       ?OnSize@CExplorerDialog@@IAEXIHH@Z 0041eab0 f   ExplorerDialog.obj
 0001:0001daf0       ?OnOK@CExplorerDialog@@MAEXXZ 0041eaf0 f   ExplorerDialog.obj
 0001:0001dc50       ?OnCancel@CExplorerDialog@@MAEXXZ 0041ec50 f   ExplorerDialog.obj
 0001:0001dc50       ?OnClose@CExplorerDialog@@IAEXXZ 0041ec50 f   ExplorerDialog.obj
 0001:0001dc70       ?OnDestroy@CExplorerDialog@@IAEXXZ 0041ec70 f   ExplorerDialog.obj
 0001:0001de40       ?InitializeMembers@CExplorerDialog@@AAEXXZ 0041ee40 f   ExplorerDialog.obj
 0001:0001dfd0       ?DeleteAllData@CExplorerDialog@@AAEXXZ 0041efd0 f   ExplorerDialog.obj
 0001:0001e440       ?OnColumnClickDlist@CExplorerDialog@@IAEXPAUtagNMHDR@@PAJ@Z 0041f440 f   ExplorerDialog.obj
 0001:0001e4a0       ?SortDlist@CExplorerDialog@@AAEXI@Z 0041f4a0 f   ExplorerDialog.obj
 0001:0001e5e0       ?OnFindList@CExplorerDialog@@IAEXXZ 0041f5e0 f   ExplorerDialog.obj
 0001:0001e910       ?FindNext@CExplorerDialog@@AAEHXZ 0041f910 f   ExplorerDialog.obj
 0001:0001ea50       ?Find@CExplorerDialog@@AAEJJ@Z 0041fa50 f   ExplorerDialog.obj
 0001:0001ec30       ?PreTranslateMessage@CExplorerDialog@@UAEHPAUtagMSG@@@Z 0041fc30 f   ExplorerDialog.obj
 0001:0001ec70       ?ProcessShortcut@CExplorerDialog@@AAEHI@Z 0041fc70 f   ExplorerDialog.obj
 0001:0001edb0       ?PostCommandIfEnable@CExplorerDialog@@AAEXJ@Z 0041fdb0 f   ExplorerDialog.obj
 0001:0001ee10       ?OnSelectAll@CExplorerDialog@@IAEXXZ 0041fe10 f   ExplorerDialog.obj
 0001:0001ee50       ?OnCopyLine@CExplorerDialog@@IAEXXZ 0041fe50 f   ExplorerDialog.obj
 0001:0001f070       ?OnSSPSysMsg@CExplorerDialog@@IAEJIJ@Z 00420070 f   ExplorerDialog.obj
 0001:0001f150       ?OnUpdateMessage@CExplorerDialog@@IAEJIJ@Z 00420150 f   ExplorerDialog.obj
 0001:0001f170       ?OnColumnRClickDList@CExplorerDialog@@AAEXPAUtagNMHEADERA@@@Z 00420170 f   ExplorerDialog.obj
 0001:0001f230       ?OnNotify@CExplorerDialog@@MAEHIJPAJ@Z 00420230 f   ExplorerDialog.obj
 0001:0001f2c0       ?GetHeaderWidth@CExplorerDialog@@AAEXPAH@Z 004202c0 f   ExplorerDialog.obj
 0001:0001f350       ?SaveHeaderStatus@CExplorerDialog@@AAEXXZ 00420350 f   ExplorerDialog.obj
 0001:0001f450       ?LoadHeaderStatus@CExplorerDialog@@AAEXPAH@Z 00420450 f   ExplorerDialog.obj
 0001:0001f540       ?OnFindNext@CExplorerDialog@@IAEXXZ 00420540 f   ExplorerDialog.obj
 0001:0001f570       ?GetCurrentTypeFlag@CExplorerDialog@@SAI_NH@Z 00420570 f   ExplorerDialog.obj
 0001:0001f5e0       ?OnReload@CExplorerDialog@@IAEXXZ 004205e0 f   ExplorerDialog.obj
 0001:0001f620       ?OnContextMenu@CExplorerDialog@@IAEXPAVCWnd@@VCPoint@@@Z 00420620 f   ExplorerDialog.obj
 0001:0001f680       ?DrawOneItem@CExplorerDialog@@AAEXJ_NAAVCExplorerDialogData@@AAVJRect@@PAUHDC__@@@Z 00420680 f   ExplorerDialog.obj
 0001:0001f900       ?GetOneItemText@CExplorerDialog@@AAEPBGJW4CExplorerDialogColumn@@AAVCExplorerDialogData@@@Z 00420900 f   ExplorerDialog.obj
 0001:0001fa70       ?OnMeasureItem@CExplorerDialog@@IAEXHPAUtagMEASUREITEMSTRUCT@@@Z 00420a70 f   ExplorerDialog.obj
 0001:0001fa90       ?OnDrawItem@CExplorerDialog@@IAEXHPAUtagDRAWITEMSTRUCT@@@Z 00420a90 f   ExplorerDialog.obj
 0001:0001fc20       ?HeaderDoubleClick@CExplorerDialog@@AAEXJ@Z 00420c20 f   ExplorerDialog.obj
 0001:0001ff80       ?RealSortNum@CExplorerDialog@@AAEKK@Z 00420f80 f   ExplorerDialog.obj
 0001:0001ffc0       ?MarkSort@CExplorerDialog@@AAEXK@Z 00420fc0 f   ExplorerDialog.obj
 0001:000200a0       ?UpdateFolderMoveMenu@CExplorerDialog@@AAEXXZ 004210a0 f   ExplorerDialog.obj
 0001:000203a0       ?OnItemChangedDlist@CExplorerDialog@@IAEXPAUtagNMHDR@@PAJ@Z 004213a0 f   ExplorerDialog.obj
 0001:00020420       ??0?$JPtrArray@PAVSPMultiFileEntry@@@@QAE@J@Z 00421420 f i ExplorerDialog.obj
 0001:00020480       ?_Sort_0@std@@YAXPAK00@Z   00421480 f i ExplorerDialog.obj
 0001:00020650       ?_Sort@std@@YAXPAK00@Z     00421650 f i ExplorerDialog.obj
 0001:00020760       ?Execute@CExplorerNetUpdateDlg@@UAEXPAX@Z 00421760 f   ExplorerNetUpdateDlg.obj
 0001:00020820       ??1SPScriptPlayerAppExitAdd@@QAE@XZ 00421820 f i ExplorerNetUpdateDlg.obj
 0001:00020830       ?OrderTerminate@CExplorerNetUpdateDlg@@UAEXXZ 00421830 f   ExplorerNetUpdateDlg.obj
 0001:00020850       ?ThreadProcGhostRegister@CExplorerNetUpdateDlg@@QAEXXZ 00421850 f   ExplorerNetUpdateDlg.obj
 0001:00020f60       ?ThreadProcRSS@CExplorerNetUpdateDlg@@QAEXXZ 00421f60 f   ExplorerNetUpdateDlg.obj
 0001:00021340       ??1SPStaticStringArrayA@@QAE@XZ 00422340 f i ExplorerNetUpdateDlg.obj
 0001:000213d0       ?ThreadProc@CExplorerNetUpdateDlg@@QAEXPAV?$JArray@K@@PAVSPStaticStringArrayA@@@Z 004223d0 f   ExplorerNetUpdateDlg.obj
 0001:00021f40       ??1CExplorerNetUpdateOnline@@QAE@XZ 00422f40 f i ExplorerNetUpdateDlg.obj
 0001:000220a0       ?UpdateOne@CExplorerNetUpdateDlg@@AAEHAAVSPUpdate@@PBGPBD21PBVSPProp@@2@Z 004230a0 f   ExplorerNetUpdateDlg.obj
 0001:000224b0       ??1SPUpdateFlags@@UAE@XZ   004234b0 f i ExplorerNetUpdateDlg.obj
 0001:000224c0       ??_ESPUpdateFlags@@UAEPAXI@Z 004234c0 f i ExplorerNetUpdateDlg.obj
 0001:000224c0       ??_GSPUpdateFlags@@UAEPAXI@Z 004234c0 f i ExplorerNetUpdateDlg.obj
 0001:000224f0       ??0CExplorerNetUpdateDlg@@QAE@PAVCWnd@@@Z 004234f0 f   ExplorerNetUpdateDlg.obj
 0001:000226c0       ??1SPEventObject@@QAE@XZ   004236c0 f i ExplorerNetUpdateDlg.obj
 0001:000226d0       ??0SPHttp@@QAE@XZ          004236d0 f i ExplorerNetUpdateDlg.obj
 0001:00022a10       ??1JSocket@@QAE@XZ         00423a10 f i ExplorerNetUpdateDlg.obj
 0001:00022af0       ??1SPHttp@@QAE@XZ          00423af0 f i ExplorerNetUpdateDlg.obj
 0001:00022cf0       ??1SPSTMThreadDescProc@@UAE@XZ 00423cf0 f i ExplorerNetUpdateDlg.obj
 0001:00022cf0       ??1SPSTMThreadDesc@@UAE@XZ 00423cf0 f i ExplorerNetUpdateDlg.obj
 0001:00022d20       ?ShallowEqual@XMLDocument@tinyxml2@@UBE_NPBVXMLNode@2@@Z 00423d20 f i ExplorerNetUpdateDlg.obj
 0001:00022d20       ?IsProc@SPSTMThreadDesc@@UAE_NP6AXPAXPCH@Z@Z 00423d20 f i ExplorerNetUpdateDlg.obj
 0001:00022d30       ??_ESPSTMThreadDesc@@UAEPAXI@Z 00423d30 f i ExplorerNetUpdateDlg.obj
 0001:00022d30       ??_GSPSTMThreadDesc@@UAEPAXI@Z 00423d30 f i ExplorerNetUpdateDlg.obj
 0001:00022d60       ??_GCExplorerNetUpdateDlg@@UAEPAXI@Z 00423d60 f i ExplorerNetUpdateDlg.obj
 0001:00022d60       ??_ECExplorerNetUpdateDlg@@UAEPAXI@Z 00423d60 f i ExplorerNetUpdateDlg.obj
 0001:00022d90       ??1CExplorerNetUpdateDlg@@UAE@XZ 00423d90 f   ExplorerNetUpdateDlg.obj
 0001:00023070       ?DoDataExchange@CExplorerNetUpdateDlg@@MAEXPAVCDataExchange@@@Z 00424070 f   ExplorerNetUpdateDlg.obj
 0001:00023090       ?GetMessageMap@CExplorerNetUpdateDlg@@MBEPBUAFX_MSGMAP@@XZ 00424090 f   ExplorerNetUpdateDlg.obj
 0001:000230a0       ?OnCancel@CExplorerNetUpdateDlg@@MAEXXZ 004240a0 f   ExplorerNetUpdateDlg.obj
 0001:000230b0       ?OnInitDialog@CExplorerNetUpdateDlg@@MAEHXZ 004240b0 f   ExplorerNetUpdateDlg.obj
 0001:00023310       ?OnDestroy@CExplorerNetUpdateDlg@@IAEXXZ 00424310 f   ExplorerNetUpdateDlg.obj
 0001:00023420       ?SetName@CExplorerNetUpdateDlg@@QAEXPBGII_N@Z 00424420 f   ExplorerNetUpdateDlg.obj
 0001:00023580       ?SetInfo@CExplorerNetUpdateDlg@@QAE_NAAV?$JArray@K@@AAV?$JArray@VCExplorerDialogData@@@@PBGHGPAVCExplorerDialog@@@Z 00424580 f   ExplorerNetUpdateDlg.obj
 0001:00023830       ?ModifyTemplate@CExplorerNetUpdateDlg@@UAEXPAVSPDlgTemplate@@@Z 00424830 f   ExplorerNetUpdateDlg.obj
 0001:00023880       ?CreateMe@CExplorerNetUpdateDlg@@QAEXXZ 00424880 f   ExplorerNetUpdateDlg.obj
 0001:000238c0       ?SPCNotify@CExplorerNetUpdateDlg@@UAE_NKPAPAXK@Z 004248c0 f   ExplorerNetUpdateDlg.obj
 0001:00023c70       ?OnClose@CExplorerNetUpdateDlg@@IAEXXZ 00424c70 f   ExplorerNetUpdateDlg.obj
 0001:00023c90       ??0?$JPtrArray@PAD@@QAE@J@Z 00424c90 f i ExplorerNetUpdateDlg.obj
 0001:00023cf0       ??_ECExplorerNetUpdateDlg@@WGA@AEPAXI@Z 00424cf0 f i ExplorerNetUpdateDlg.obj
 0001:00023d00       ??_ECExplorerNetUpdateDlg@@WBEM@AEPAXI@Z 00424d00 f i ExplorerNetUpdateDlg.obj
 0001:00023d10       ?CreateObject@CExtAppDlg@@SGPAVCObject@@XZ 00424d10 f   ExtAppDlg.obj
 0001:00023d70       ?GetRuntimeClass@CExtAppDlg@@UBEPAUCRuntimeClass@@XZ 00424d70 f   ExtAppDlg.obj
 0001:00023d80       ??0CExtAppDlg@@QAE@PAVCWnd@@@Z 00424d80 f   ExtAppDlg.obj
 0001:00023db0       ?GetMessageMap@CExtAppDlg@@MBEPBUAFX_MSGMAP@@XZ 00424db0 f   ExtAppDlg.obj
 0001:00023dc0       ?ChoiceExeFile@CExtAppDlg@@AAEHAAVJWString@@PBG@Z 00424dc0 f   ExtAppDlg.obj
 0001:00023e70       ?OnRefBrowser@CExtAppDlg@@IAEXXZ 00424e70 f   ExtAppDlg.obj
 0001:00023ef0       ?OnRefFiler@CExtAppDlg@@IAEXXZ 00424ef0 f   ExtAppDlg.obj
 0001:00023f70       ?OnRefMailer@CExtAppDlg@@IAEXXZ 00424f70 f   ExtAppDlg.obj
 0001:00024000       ?OnRefEditor@CExtAppDlg@@IAEXXZ 00425000 f   ExtAppDlg.obj
 0001:00024090       ?OnRefSvn@CExtAppDlg@@IAEXXZ 00425090 f   ExtAppDlg.obj
 0001:00024190       ?OnRefGit@CExtAppDlg@@IAEXXZ 00425190 f   ExtAppDlg.obj
 0001:00024290       ?OnInitDialog@CExtAppDlg@@MAEHXZ 00425290 f   ExtAppDlg.obj
 0001:00024440       ?OnChangeDefaultBrowser@CExtAppDlg@@IAEXXZ 00425440 f   ExtAppDlg.obj
 0001:00024480       ?OnChangeDefaultFiler@CExtAppDlg@@IAEXXZ 00425480 f   ExtAppDlg.obj
 0001:000244c0       ?OnChangeDefaultMailer@CExtAppDlg@@IAEXXZ 004254c0 f   ExtAppDlg.obj
 0001:00024510       ?OnChangeDefaultMailerArg@CExtAppDlg@@IAEXXZ 00425510 f   ExtAppDlg.obj
 0001:00024550       ?UpdateMailerArgEnable@CExtAppDlg@@AAEXXZ 00425550 f   ExtAppDlg.obj
 0001:00024580       ?OnChangeDefaultEditor@CExtAppDlg@@IAEXXZ 00425580 f   ExtAppDlg.obj
 0001:000245d0       ?OnChangeDefaultEditorArg@CExtAppDlg@@IAEXXZ 004255d0 f   ExtAppDlg.obj
 0001:00024610       ?UpdateEditorArgEnable@CExtAppDlg@@AAEXXZ 00425610 f   ExtAppDlg.obj
 0001:00024640       ?OnChangeDefaultSvn@CExtAppDlg@@IAEXXZ 00425640 f   ExtAppDlg.obj
 0001:00024750       ?OnChangeDefaultGit@CExtAppDlg@@IAEXXZ 00425750 f   ExtAppDlg.obj
 0001:00024860       ??0CFolderDlg@@QAE@PAVCWnd@@@Z 00425860 f   FolderDlg.obj
 0001:00024950       ??_ECFolderDlg@@UAEPAXI@Z  00425950 f i FolderDlg.obj
 0001:00024950       ??_GCFolderDlg@@UAEPAXI@Z  00425950 f i FolderDlg.obj
 0001:00024980       ??1CFolderDlg@@UAE@XZ      00425980 f i FolderDlg.obj
 0001:000249e0       ?GetMessageMap@CFolderDlg@@MBEPBUAFX_MSGMAP@@XZ 004259e0 f   FolderDlg.obj
 0001:000249f0       ?OnInitDialog@CFolderDlg@@MAEHXZ 004259f0 f   FolderDlg.obj
 0001:00024da0       ?OnDestroy@CFolderDlg@@IAEXXZ 00425da0 f   FolderDlg.obj
 0001:00024fd0       ?OnGhostEdit@CFolderDlg@@IAEXXZ 00425fd0 f   FolderDlg.obj
 0001:000251a0       ??1CFolderEditDlg@@UAE@XZ  004261a0 f i FolderDlg.obj
 0001:00025260       ?OnBalloonEdit@CFolderDlg@@IAEXXZ 00426260 f   FolderDlg.obj
 0001:00025430       ?OnHeadlineEdit@CFolderDlg@@IAEXXZ 00426430 f   FolderDlg.obj
 0001:00025600       ?OnPluginEdit@CFolderDlg@@IAEXXZ 00426600 f   FolderDlg.obj
 0001:000257d0       ?CFolderDlg_ModifyNum@@YAXPAUHWND__@@HK@Z 004267d0 f   FolderDlg.obj
 0001:000258f0       ?UpdateNum@CFolderDlg@@IAEXXZ 004268f0 f   FolderDlg.obj
 0001:00025970       ?OnGhostReload@CFolderDlg@@IAEXXZ 00426970 f   FolderDlg.obj
 0001:000259a0       ?OnBalloonReload@CFolderDlg@@IAEXXZ 004269a0 f   FolderDlg.obj
 0001:000259d0       ?OnHeadlineReload@CFolderDlg@@IAEXXZ 004269d0 f   FolderDlg.obj
 0001:00025a00       ?OnPluginReload@CFolderDlg@@IAEXXZ 00426a00 f   FolderDlg.obj
 0001:00025a30       ?OnGhostSelect@CFolderDlg@@IAEXXZ 00426a30 f   FolderDlg.obj
 0001:00025a60       ?OnBalloonSelect@CFolderDlg@@IAEXXZ 00426a60 f   FolderDlg.obj
 0001:00025a90       ?OnHeadlineSelect@CFolderDlg@@IAEXXZ 00426a90 f   FolderDlg.obj
 0001:00025ac0       ?OnPluginSelect@CFolderDlg@@IAEXXZ 00426ac0 f   FolderDlg.obj
 0001:00025af0       ?OnGhostSelectBoot@CFolderDlg@@IAEXXZ 00426af0 f   FolderDlg.obj
 0001:00025b20       ?OnBalloonSelectBoot@CFolderDlg@@IAEXXZ 00426b20 f   FolderDlg.obj
 0001:00025b50       ?OnTempPathRef@CFolderDlg@@IAEXXZ 00426b50 f   FolderDlg.obj
 0001:00025d40       ?OnTempPathDefault@CFolderDlg@@IAEXXZ 00426d40 f   FolderDlg.obj
 0001:00025e50       ?OnNarPathRef@CFolderDlg@@IAEXXZ 00426e50 f   FolderDlg.obj
 0001:00026040       ?OnNarPathDefault@CFolderDlg@@IAEXXZ 00427040 f   FolderDlg.obj
 0001:00026150       ??0CFolderEditDlg@@QAE@PAVCWnd@@@Z 00427150 f   FolderEditDlg.obj
 0001:00026220       ??_ECFolderEditDlg@@UAEPAXI@Z 00427220 f i FolderEditDlg.obj
 0001:00026220       ??_GCFolderEditDlg@@UAEPAXI@Z 00427220 f i FolderEditDlg.obj
 0001:00026250       ?DoModalExt@CFolderEditDlg@@QAEHPAVCWnd@@W4SPDataPathListID@@@Z 00427250 f   FolderEditDlg.obj
 0001:00026420       ?DoDataExchange@CFolderEditDlg@@MAEXPAVCDataExchange@@@Z 00427420 f   FolderEditDlg.obj
 0001:00026440       ?GetMessageMap@CFolderEditDlg@@MBEPBUAFX_MSGMAP@@XZ 00427440 f   FolderEditDlg.obj
 0001:00026450       ?OnInitDialog@CFolderEditDlg@@MAEHXZ 00427450 f   FolderEditDlg.obj
 0001:000267c0       ?OnDestroy@CFolderEditDlg@@IAEXXZ 004277c0 f   FolderEditDlg.obj
 0001:00026840       ?UpdateList@CFolderEditDlg@@IAEXXZ 00427840 f   FolderEditDlg.obj
 0001:00026e70       ?GetListSel@CFolderEditDlg@@IAEHXZ 00427e70 f   FolderEditDlg.obj
 0001:00026eb0       ?SetListSel@CFolderEditDlg@@IAEXH@Z 00427eb0 f   FolderEditDlg.obj
 0001:00026ef0       ?OnOK@CFolderEditDlg@@MAEXXZ 00427ef0 f   FolderEditDlg.obj
 0001:00026f50       ?OnCancel@CFolderEditDlg@@MAEXXZ 00427f50 f   FolderEditDlg.obj
 0001:00026f70       ?OnFolderModify@CFolderEditDlg@@IAEXXZ 00427f70 f   FolderEditDlg.obj
 0001:000271c0       ?OnFolderAdd@CFolderEditDlg@@IAEXXZ 004281c0 f   FolderEditDlg.obj
 0001:00027370       ?OnFolderEdit@CFolderEditDlg@@IAEXXZ 00428370 f   FolderEditDlg.obj
 0001:00027560       ?OnFolderDel@CFolderEditDlg@@IAEXXZ 00428560 f   FolderEditDlg.obj
 0001:000275b0       ?ChangeFolderState@CFolderEditDlg@@IAEXHPAUtagNMHDR@@@Z 004285b0 f   FolderEditDlg.obj
 0001:00027640       ?OnDblclkFolderList@CFolderEditDlg@@IAEXPAUtagNMHDR@@PAJ@Z 00428640 f   FolderEditDlg.obj
 0001:000276e0       ?OnClickFolderList@CFolderEditDlg@@IAEXPAUtagNMHDR@@PAJ@Z 004286e0 f   FolderEditDlg.obj
 0001:00027770       ?OnDropFiles@CFolderEditDlg@@IAEXPAUHDROP__@@@Z 00428770 f   FolderEditDlg.obj
 0001:00027840       ??1SPMultiFile@@QAE@XZ     00428840 f i FolderEditDlg.obj
 0001:000278a0       ?OnFolderUp@CFolderEditDlg@@IAEXXZ 004288a0 f   FolderEditDlg.obj
 0001:000278f0       ?OnFolderDn@CFolderEditDlg@@IAEXXZ 004288f0 f   FolderEditDlg.obj
 0001:00027950       ?UpdateButtonState@CFolderEditDlg@@IAEXXZ 00428950 f   FolderEditDlg.obj
 0001:00027cc0       ?OnItemChangedFolderList@CFolderEditDlg@@IAEXPAUtagNMHDR@@PAJ@Z 00428cc0 f   FolderEditDlg.obj
 0001:00027d00       ?OnNotifyFormat@CSurfaceTest@@IAEJIJ@Z 00428d00 f   FolderEditDlg.obj
 0001:00027d00       ?OnNotifyFormat@CLog@@AAEJIJ@Z 00428d00 f   FolderEditDlg.obj
 0001:00027d00       ?OnNotifyFormat@CFolderEditDlg@@IAEJIJ@Z 00428d00 f   FolderEditDlg.obj
 0001:00027d00       ?OnNotifyFormat@CMessageWnd@@IAEJIJ@Z 00428d00 f   FolderEditDlg.obj
 0001:00027d10       ?OnBeginlabeleditFolderList@CFolderEditDlg@@IAEXPAUtagNMHDR@@PAJ@Z 00428d10 f   FolderEditDlg.obj
 0001:00027d40       ?OnEndLabelEditFolderList@CFolderEditDlg@@IAEXPAUtagNMHDR@@PAJ@Z 00428d40 f   FolderEditDlg.obj
 0001:00027de0       ?OnFolderSettingChange@CFolderEditDlg@@IAEXXZ 00428de0 f   FolderEditDlg.obj
 0001:00027e40       ?SetGroupFlagCheck@CFolderEditDlg@@SAXPAUHWND__@@K@Z 00428e40 f   FolderEditDlg.obj
 0001:00027e90       ?GetGroupFlagCheck@CFolderEditDlg@@SAKPAUHWND__@@@Z 00428e90 f   FolderEditDlg.obj
 0001:00027f00       ?OnGetMinMaxInfo@CFolderEditDlg@@IAEXPAUtagMINMAXINFO@@@Z 00428f00 f   FolderEditDlg.obj
 0001:00027fb0       ?OnSize@CFolderEditDlg@@IAEXIHH@Z 00428fb0 f   FolderEditDlg.obj
 0001:00027fd0       ??0CGhostAIGraph@@QAE@XZ   00428fd0 f   GhostAIGraph.obj
 0001:00028090       ??_ECGhostAIGraph@@UAEPAXI@Z 00429090 f i GhostAIGraph.obj
 0001:00028090       ??_GCGhostAIGraph@@UAEPAXI@Z 00429090 f i GhostAIGraph.obj
 0001:000280c0       ??1CGhostAIGraph@@UAE@XZ   004290c0 f   GhostAIGraph.obj
 0001:00028290       ?GetMessageMap@CGhostAIGraph@@MBEPBUAFX_MSGMAP@@XZ 00429290 f   GhostAIGraph.obj
 0001:000282a0       ?OnCreate@CGhostAIGraph@@IAEHPAUtagCREATESTRUCTA@@@Z 004292a0 f   GhostAIGraph.obj
 0001:00028540       ?UpdateShioriAIInfo@CGhostAIGraph@@AAEXXZ 00429540 f   GhostAIGraph.obj
 0001:00028fe0       ?OnTimer@CGhostAIGraph@@IAEXI@Z 00429fe0 f   GhostAIGraph.obj
 0001:00029050       ?OnDestroy@CGhostAIGraph@@IAEXXZ 0042a050 f   GhostAIGraph.obj
 0001:00029170       ?GetHitTestID@CGhostAIGraph@@AAEKXZ 0042a170 f   GhostAIGraph.obj
 0001:00029230       ?OnLButtonUp@CGhostAIGraph@@IAEXIVCPoint@@@Z 0042a230 f   GhostAIGraph.obj
 0001:00029250       ?OnPaint@CGhostAIGraph@@IAEXXZ 0042a250 f   GhostAIGraph.obj
 0001:00029330       ?CreateMe@CGhostAIGraph@@QAEHPAVCWnd@@PAVCSakuraWnd@@@Z 0042a330 f   GhostAIGraph.obj
 0001:00029740       ??1SPFindFileW@@QAE@XZ     0042a740 f i GhostAIGraph.obj
 0001:00029790       ?DrawBackBuffer@CGhostAIGraph@@AAEXXZ 0042a790 f   GhostAIGraph.obj
 0001:0002a8c0       ??0CGdiObject@@QAE@XZ      0042b8c0 f i GhostAIGraph.obj
 0001:0002a8d0       ??1CPen@@UAE@XZ            0042b8d0 f i GhostAIGraph.obj
 0001:0002a910       ??1CBrush@@UAE@XZ          0042b910 f i GhostAIGraph.obj
 0001:0002a9c0       ?WindowProc@CGhostAIGraph@@MAEJIIJ@Z 0042b9c0 f   GhostAIGraph.obj
 0001:0002aa50       ?OnClose@CGhostAIGraph@@IAEXXZ 0042ba50 f   GhostAIGraph.obj
 0001:0002aa50       ?OnCancel@CScheduleDlg@@MAEXXZ 0042ba50 f   GhostAIGraph.obj
 0001:0002aa50       ?OnClose@CScheduleDlg@@IAEXXZ 0042ba50 f   GhostAIGraph.obj
 0001:0002aa50       ?OnCancel@CMessengerDlg@@MAEXXZ 0042ba50 f   GhostAIGraph.obj
 0001:0002aa50       ?OnOkbutton@CScheduleDlg@@IAEXXZ 0042ba50 f   GhostAIGraph.obj
 0001:0002aa50       ?OnCancel@CLog@@MAEXXZ     0042ba50 f   GhostAIGraph.obj
 0001:0002aa50       ?OnCancel@CSSPProperty@@MAEXXZ 0042ba50 f   GhostAIGraph.obj
 0001:0002aa50       ?OnClose@CMessengerDlg@@IAEXXZ 0042ba50 f   GhostAIGraph.obj
 0001:0002aa50       ?OnClose@CSSPProperty@@IAEXXZ 0042ba50 f   GhostAIGraph.obj
 0001:0002aa50       ?OnClose@CGhostTimeWnd@@IAEXXZ 0042ba50 f   GhostAIGraph.obj
 0001:0002aa50       ?OnClose@CLog@@IAEXXZ      0042ba50 f   GhostAIGraph.obj
 0001:0002aa60       ?OnWindowPosChanged@CGhostAIGraph@@IAEXPAUtagWINDOWPOS@@@Z 0042ba60 f   GhostAIGraph.obj
 0001:0002aaa0       ??0?$JArray@N@@QAE@K@Z     0042baa0 f i GhostAIGraph.obj
 0001:0002ab40       ??1CGhostAIGraphInfo@@QAE@XZ 0042bb40 f i GhostAIGraph.obj
 0001:0002ac30       ?SwapBuffer@?$JArray@PAX@@QAEXAAV1@@Z 0042bc30 f i GhostAIGraph.obj
 0001:0002ae00       ??0CGhostATSoundDesc@@AAE@XZ 0042be00 f   GhostAsyncTaskSound.obj
 0001:0002af10       ??1CGhostATSoundDesc@@AAE@XZ 0042bf10 f   GhostAsyncTaskSound.obj
 0001:0002af80       ?Clear@CGhostATSoundDesc@@QAEXXZ 0042bf80 f   GhostAsyncTaskSound.obj
 0001:0002afe0       ?SetPreload@CGhostATSoundDesc@@QAEX_N@Z 0042bfe0 f   GhostAsyncTaskSound.obj
 0001:0002b140       ?SendCommand@CGhostATSoundDesc@@QAEKIK@Z 0042c140 f   GhostAsyncTaskSound.obj
 0001:0002b160       ?SendCommandWithParam@CGhostATSoundDesc@@QAEKIKPAX@Z 0042c160 f   GhostAsyncTaskSound.obj
 0001:0002b910       ??1CGhostATSoundImplMCI@@UAE@XZ 0042c910 f i GhostAsyncTaskSound.obj
 0001:0002b910       ??1CGhostATSoundImpl@@UAE@XZ 0042c910 f i GhostAsyncTaskSound.obj
 0001:0002b920       ?SendCommand@CGhostATSoundImpl@@UAEKIIKK@Z 0042c920 f i GhostAsyncTaskSound.obj
 0001:0002b930       ??_GCGhostATSoundImpl@@UAEPAXI@Z 0042c930 f i GhostAsyncTaskSound.obj
 0001:0002b930       ??_ECGhostATSoundImpl@@UAEPAXI@Z 0042c930 f i GhostAsyncTaskSound.obj
 0001:0002b960       ?SendCommand@CGhostATSoundImplMCI@@UAEKIIKK@Z 0042c960 f i GhostAsyncTaskSound.obj
 0001:0002b9c0       ??_GCGhostATSoundImplMCI@@UAEPAXI@Z 0042c9c0 f i GhostAsyncTaskSound.obj
 0001:0002b9c0       ??_ECGhostATSoundImplMCI@@UAEPAXI@Z 0042c9c0 f i GhostAsyncTaskSound.obj
 0001:0002b9f0       ?ShowWindow@CGhostATSoundImplDShow@@UAEX_N@Z 0042c9f0 f i GhostAsyncTaskSound.obj
 0001:0002ba10       ?SendCommand@CGhostATSoundImplDShow@@UAEKIIKK@Z 0042ca10 f i GhostAsyncTaskSound.obj
 0001:0002ba60       ?SendCommandReal@CGhostATSoundImplDShow@@QAEKIIKK@Z 0042ca60 f i GhostAsyncTaskSound.obj
 0001:0002be60       ?ReleaseAllFilters@CGhostATSoundImplDShow@@AAEXXZ 0042ce60 f i GhostAsyncTaskSound.obj
 0001:0002c050       ?Open@CGhostATSoundImplDShow@@QAEKXZ 0042d050 f i GhostAsyncTaskSound.obj
 0001:0002d3a0       ??YJWString@@QAEAAV0@ABV0@@Z 0042e3a0 f i GhostAsyncTaskSound.obj
 0001:0002d3c0       ??YJWString@@QAEAAV0@PBG@Z 0042e3c0 f i GhostAsyncTaskSound.obj
 0001:0002d3f0       ??0JWString@@QAE@PBDH@Z    0042e3f0 f i GhostAsyncTaskSound.obj
 0001:0002d600       ?AddFilterDumpLog@CGhostATSoundImplDShow@@AAEXXZ 0042e600 f i GhostAsyncTaskSound.obj
 0001:0002d770       ?ReceiveNotification@CGhostATSoundImplDShow@@UAEXPAUHWND__@@@Z 0042e770 f i GhostAsyncTaskSound.obj
 0001:0002d810       ??_ECGhostATSoundImplDShow@@UAEPAXI@Z 0042e810 f i GhostAsyncTaskSound.obj
 0001:0002d810       ??_GCGhostATSoundImplDShow@@UAEPAXI@Z 0042e810 f i GhostAsyncTaskSound.obj
 0001:0002d840       ??1CGhostATSoundImplDShow@@UAE@XZ 0042e840 f i GhostAsyncTaskSound.obj
 0001:0002d9a0       ?ReceiveNotificationDShow@CGhostATSoundDesc@@QAEXXZ 0042e9a0 f   GhostAsyncTaskSound.obj
 0001:0002d9c0       ??4?$_com_ptr_t_ssp@V?$_com_IIID_ssp@UIVideoWindow@@$1?_GUID_56a868b4_0ad4_11ce_b03a_0020af0ba770@@3U__s_GUID@@A@@@@QAEAAV0@H@Z 0042e9c0 f i GhostAsyncTaskSound.obj
 0001:0002d9c0       ??4?$_com_ptr_t_ssp@V?$_com_IIID_ssp@UIBasicAudio@@$1?_GUID_56a868b3_0ad4_11ce_b03a_0020af0ba770@@3U__s_GUID@@A@@@@QAEAAV0@H@Z 0042e9c0 f i GhostAsyncTaskSound.obj
 0001:0002d9f0       ?Release@?$_com_ptr_t_ssp@V?$_com_IIID_ssp@UIVideoWindow@@$1?_GUID_56a868b4_0ad4_11ce_b03a_0020af0ba770@@3U__s_GUID@@A@@@@QAEKXZ 0042e9f0 f i GhostAsyncTaskSound.obj
 0001:0002d9f0       ?Release@?$_com_ptr_t_ssp@V?$_com_IIID_ssp@UIBasicAudio@@$1?_GUID_56a868b3_0ad4_11ce_b03a_0020af0ba770@@3U__s_GUID@@A@@@@QAEKXZ 0042e9f0 f i GhostAsyncTaskSound.obj
 0001:0002d9f0       ?Release@?$_com_ptr_t_ssp@V?$_com_IIID_ssp@UIGraphBuilder@@$1?_GUID_56a868a9_0ad4_11ce_b03a_0020af0ba770@@3U__s_GUID@@A@@@@QAEKXZ 0042e9f0 f i GhostAsyncTaskSound.obj
 0001:0002d9f0       ?Release@?$_com_ptr_t_ssp@V?$_com_IIID_ssp@UIMFVideoDisplayControl@@$1?_GUID_a490b1e4_ab84_4d31_a1b2_181e03b1077a@@3U__s_GUID@@A@@@@QAEKXZ 0042e9f0 f i GhostAsyncTaskSound.obj
 0001:0002d9f0       ?Release@?$_com_ptr_t_ssp@V?$_com_IIID_ssp@UIMediaSeeking@@$1?_GUID_36b73880_c2c8_11cf_8b46_00805f6cef60@@3U__s_GUID@@A@@@@QAEKXZ 0042e9f0 f i GhostAsyncTaskSound.obj
 0001:0002d9f0       ?Release@?$_com_ptr_t_ssp@V?$_com_IIID_ssp@UIMediaEventEx@@$1?_GUID_56a868c0_0ad4_11ce_b03a_0020af0ba770@@3U__s_GUID@@A@@@@QAEKXZ 0042e9f0 f i GhostAsyncTaskSound.obj
 0001:0002d9f0       ?Release@?$_com_ptr_t_ssp@V?$_com_IIID_ssp@UIMediaControl@@$1?_GUID_56a868b1_0ad4_11ce_b03a_0020af0ba770@@3U__s_GUID@@A@@@@QAEKXZ 0042e9f0 f i GhostAsyncTaskSound.obj
 0001:0002da20       ??4?$_com_ptr_t_ssp@V?$_com_IIID_ssp@UIBaseFilter@@$1?_GUID_56a86895_0ad4_11ce_b03a_0020af0ba770@@3U__s_GUID@@A@@@@QAEAAV0@PAUIBaseFilter@@@Z 0042ea20 f i GhostAsyncTaskSound.obj
 0001:0002da20       ??4?$_com_ptr_t_ssp@V?$_com_IIID_ssp@UIMediaSeeking@@$1?_GUID_36b73880_c2c8_11cf_8b46_00805f6cef60@@3U__s_GUID@@A@@@@QAEAAV0@PAUIMediaSeeking@@@Z 0042ea20 f i GhostAsyncTaskSound.obj
 0001:0002da20       ??4?$_com_ptr_t_ssp@V?$_com_IIID_ssp@UIMediaControl@@$1?_GUID_56a868b1_0ad4_11ce_b03a_0020af0ba770@@3U__s_GUID@@A@@@@QAEAAV0@PAUIMediaControl@@@Z 0042ea20 f i GhostAsyncTaskSound.obj
 0001:0002da20       ??4?$_com_ptr_t_ssp@V?$_com_IIID_ssp@UIMediaEventEx@@$1?_GUID_56a868c0_0ad4_11ce_b03a_0020af0ba770@@3U__s_GUID@@A@@@@QAEAAV0@PAUIMediaEventEx@@@Z 0042ea20 f i GhostAsyncTaskSound.obj
 0001:0002da20       ??4?$_com_ptr_t_ssp@V?$_com_IIID_ssp@UIGraphBuilder@@$1?_GUID_56a868a9_0ad4_11ce_b03a_0020af0ba770@@3U__s_GUID@@A@@@@QAEAAV0@PAUIGraphBuilder@@@Z 0042ea20 f i GhostAsyncTaskSound.obj
 0001:0002da50       ?Delete@?$JArray@PAX@@QAEXJJ@Z 0042ea50 f i GhostAsyncTaskSound.obj
 0001:0002dad0       ?_QueryInterface@?$_com_ptr_t_ssp@V?$_com_IIID_ssp@UIMediaControl@@$1?_GUID_56a868b1_0ad4_11ce_b03a_0020af0ba770@@3U__s_GUID@@A@@@@AAEJABV?$_com_ptr_t_ssp@V?$_com_IIID_ssp@UIGraphBuilder@@$1?_GUID_56a868a9_0ad4_11ce_b03a_0020af0ba770@@3U__s_GUID@@A@@@@@Z 0042ead0 f i GhostAsyncTaskSound.obj
 0001:0002db50       ?_QueryInterface@?$_com_ptr_t_ssp@V?$_com_IIID_ssp@UIMediaEventEx@@$1?_GUID_56a868c0_0ad4_11ce_b03a_0020af0ba770@@3U__s_GUID@@A@@@@AAEJABV?$_com_ptr_t_ssp@V?$_com_IIID_ssp@UIGraphBuilder@@$1?_GUID_56a868a9_0ad4_11ce_b03a_0020af0ba770@@3U__s_GUID@@A@@@@@Z 0042eb50 f i GhostAsyncTaskSound.obj
 0001:0002dbd0       ?_QueryInterface@?$_com_ptr_t_ssp@V?$_com_IIID_ssp@UIMediaSeeking@@$1?_GUID_36b73880_c2c8_11cf_8b46_00805f6cef60@@3U__s_GUID@@A@@@@AAEJABV?$_com_ptr_t_ssp@V?$_com_IIID_ssp@UIGraphBuilder@@$1?_GUID_56a868a9_0ad4_11ce_b03a_0020af0ba770@@3U__s_GUID@@A@@@@@Z 0042ebd0 f i GhostAsyncTaskSound.obj
 0001:0002dc50       ?_QueryInterface@?$_com_ptr_t_ssp@V?$_com_IIID_ssp@UIFileSourceFilter@@$1?_GUID_56a868a6_0ad4_11ce_b03a_0020af0ba770@@3U__s_GUID@@A@@@@AAEJABV?$_com_ptr_t_ssp@V?$_com_IIID_ssp@UIBaseFilter@@$1?_GUID_56a86895_0ad4_11ce_b03a_0020af0ba770@@3U__s_GUID@@A@@@@@Z 0042ec50 f i GhostAsyncTaskSound.obj
 0001:0002dcd0       ?_QueryInterface@?$_com_ptr_t_ssp@V?$_com_IIID_ssp@UIFilterGraph2@@$1?_GUID_36b73882_c2c8_11cf_8b46_00805f6cef60@@3U__s_GUID@@A@@@@AAEJABV?$_com_ptr_t_ssp@V?$_com_IIID_ssp@UIGraphBuilder@@$1?_GUID_56a868a9_0ad4_11ce_b03a_0020af0ba770@@3U__s_GUID@@A@@@@@Z 0042ecd0 f i GhostAsyncTaskSound.obj
 0001:0002dd50       ?_QueryInterface@?$_com_ptr_t_ssp@V?$_com_IIID_ssp@UIBasicAudio@@$1?_GUID_56a868b3_0ad4_11ce_b03a_0020af0ba770@@3U__s_GUID@@A@@@@AAEJABV?$_com_ptr_t_ssp@V?$_com_IIID_ssp@UIGraphBuilder@@$1?_GUID_56a868a9_0ad4_11ce_b03a_0020af0ba770@@3U__s_GUID@@A@@@@@Z 0042ed50 f i GhostAsyncTaskSound.obj
 0001:0002ddd0       ?QueryInterface@?$_com_ptr_t_ssp@V?$_com_IIID_ssp@UIGraphBuilder@@$1?_GUID_56a868a9_0ad4_11ce_b03a_0020af0ba770@@3U__s_GUID@@A@@@@QAEJABU_GUID@@AAPAX@Z 0042edd0 f i GhostAsyncTaskSound.obj
 0001:0002de00       ?CreateObject@CGhostAsyncTaskThread@@SGPAVCObject@@XZ 0042ee00 f   GhostAsyncTaskThread.obj
 0001:0002de60       ?GetRuntimeClass@CGhostAsyncTaskThread@@UBEPAUCRuntimeClass@@XZ 0042ee60 f   GhostAsyncTaskThread.obj
 0001:0002de70       ??0CGhostAsyncTaskThread@@QAE@XZ 0042ee70 f   GhostAsyncTaskThread.obj
 0001:0002ded0       ??_ECGhostAsyncTaskThread@@UAEPAXI@Z 0042eed0 f i GhostAsyncTaskThread.obj
 0001:0002ded0       ??_GCGhostAsyncTaskThread@@UAEPAXI@Z 0042eed0 f i GhostAsyncTaskThread.obj
 0001:0002df00       ??1CGhostAsyncTaskThread@@UAE@XZ 0042ef00 f   GhostAsyncTaskThread.obj
 0001:0002df60       ?InitInstance@CGhostAsyncTaskThread@@UAEHXZ 0042ef60 f   GhostAsyncTaskThread.obj
 0001:0002e080       ?GetMessageMap@CGhostAsyncTaskThread@@MBEPBUAFX_MSGMAP@@XZ 0042f080 f   GhostAsyncTaskThread.obj
 0001:0002e090       ??1?$CWinThreadAdapter@VCWinThread@@@@UAE@XZ 0042f090 f i GhostAsyncTaskThread.obj
 0001:0002e0a0       ??_E?$CWinThreadAdapter@VCWinThread@@@@UAEPAXI@Z 0042f0a0 f i GhostAsyncTaskThread.obj
 0001:0002e0a0       ??_G?$CWinThreadAdapter@VCWinThread@@@@UAEPAXI@Z 0042f0a0 f i GhostAsyncTaskThread.obj
 0001:0002e0d0       ??0CGhostAsyncTaskWnd@@QAE@XZ 0042f0d0 f   GhostAsyncTaskWnd.obj
 0001:0002e130       ??_GCGhostAsyncTaskWnd@@UAEPAXI@Z 0042f130 f i GhostAsyncTaskWnd.obj
 0001:0002e130       ??_ECGhostAsyncTaskWnd@@UAEPAXI@Z 0042f130 f i GhostAsyncTaskWnd.obj
 0001:0002e160       ??1CGhostAsyncTaskWnd@@UAE@XZ 0042f160 f   GhostAsyncTaskWnd.obj
 0001:0002e1c0       ?GetMessageMap@CGhostAsyncTaskWnd@@MBEPBUAFX_MSGMAP@@XZ 0042f1c0 f   GhostAsyncTaskWnd.obj
 0001:0002e1d0       ?OnCreate@CGhostAsyncTaskWnd@@IAEHPAUtagCREATESTRUCTA@@@Z 0042f1d0 f   GhostAsyncTaskWnd.obj
 0001:0002e210       ?OnClose@CGhostAsyncTaskWnd@@IAEXXZ 0042f210 f   GhostAsyncTaskWnd.obj
 0001:0002e270       ?FindDevNameFromFile@CGhostAsyncTaskWnd@@AAEXPAGPAPBD@Z 0042f270 f   GhostAsyncTaskWnd.obj
 0001:0002e2d0       ?MCIPlayFile@CGhostAsyncTaskWnd@@AAEHPAVCGhostATSoundDesc@@@Z 0042f2d0 f   GhostAsyncTaskWnd.obj
 0001:0002e330       ?MCILoadFile@CGhostAsyncTaskWnd@@AAEHPAVCGhostATSoundDesc@@@Z 0042f330 f   GhostAsyncTaskWnd.obj
 0001:0002e540       ?MCINotifyError@CGhostAsyncTaskWnd@@AAEXPAGKPAVCGhostATSoundDesc@@@Z 0042f540 f   GhostAsyncTaskWnd.obj
 0001:0002e660       ?OnMCIExecute@CGhostAsyncTaskWnd@@IAEJIJ@Z 0042f660 f   GhostAsyncTaskWnd.obj
 0001:0002e6b0       ??1SPSoundParam@@QAE@XZ    0042f6b0 f i GhostAsyncTaskWnd.obj
 0001:0002e700       ?MCIFindPlaying@CGhostAsyncTaskWnd@@AAEPAVCGhostATSoundDesc@@PBG@Z 0042f700 f   GhostAsyncTaskWnd.obj
 0001:0002e750       ?MCIFindPreload@CGhostAsyncTaskWnd@@AAEPAVCGhostATSoundDesc@@PBG@Z 0042f750 f   GhostAsyncTaskWnd.obj
 0001:0002e7a0       ?MCIFindPlayingOrPreload@CGhostAsyncTaskWnd@@AAEPAVCGhostATSoundDesc@@PBG@Z 0042f7a0 f   GhostAsyncTaskWnd.obj
 0001:0002e7d0       ?MCIFindPreloadOrNew@CGhostAsyncTaskWnd@@AAEPAVCGhostATSoundDesc@@KPBG@Z 0042f7d0 f   GhostAsyncTaskWnd.obj
 0001:0002e880       ?OnMCIExecuteReal@CGhostAsyncTaskWnd@@AAEJGGPAVSPSoundParam@@@Z 0042f880 f   GhostAsyncTaskWnd.obj
 0001:0002ed80       ??0JWString@@QAE@ABV0@@Z   0042fd80 f i GhostAsyncTaskWnd.obj
 0001:0002edd0       ?OnMCIExecuteProcessOption@CGhostAsyncTaskWnd@@AAEXPAVCGhostATSoundDesc@@VJWString@@_N@Z 0042fdd0 f   GhostAsyncTaskWnd.obj
 0001:0002f070       ?OnDShowNotify@CGhostAsyncTaskWnd@@IAEJIJ@Z 00430070 f   GhostAsyncTaskWnd.obj
 0001:0002f0e0       ?OnMCINotify@CGhostAsyncTaskWnd@@IAEJIJ@Z 004300e0 f   GhostAsyncTaskWnd.obj
 0001:0002f2a0       ?MCIStopAll@CGhostAsyncTaskWnd@@AAEXXZ 004302a0 f   GhostAsyncTaskWnd.obj
 0001:0002f2d0       ?MCIPlayCDTrack@CGhostAsyncTaskWnd@@AAEHPAVCGhostATSoundDesc@@I@Z 004302d0 f   GhostAsyncTaskWnd.obj
 0001:0002f3b0       ?MCIDoAllPlaying@CGhostAsyncTaskWnd@@AAEXI@Z 004303b0 f   GhostAsyncTaskWnd.obj
 0001:0002f420       ?MCIDoAllPreload@CGhostAsyncTaskWnd@@AAEXI@Z 00430420 f   GhostAsyncTaskWnd.obj
 0001:0002f460       ??0CGhostATSoundWnd@@QAE@PAVCWnd@@@Z 00430460 f   GhostATSoundWnd.obj
 0001:0002f510       ??_ECGhostATSoundWnd@@UAEPAXI@Z 00430510 f i GhostATSoundWnd.obj
 0001:0002f510       ??_GCGhostATSoundWnd@@UAEPAXI@Z 00430510 f i GhostATSoundWnd.obj
 0001:0002f540       ??1CGhostATSoundWnd@@UAE@XZ 00430540 f i GhostATSoundWnd.obj
 0001:0002f5c0       ?GetMessageMap@CGhostATSoundWnd@@MBEPBUAFX_MSGMAP@@XZ 004305c0 f   GhostATSoundWnd.obj
 0001:0002f5d0       ?OnCreate@CGhostATSoundWnd@@IAEHPAUtagCREATESTRUCTA@@@Z 004305d0 f   GhostATSoundWnd.obj
 0001:0002f5e0       ?OnInitDialog@CGhostATSoundWnd@@MAEHXZ 004305e0 f   GhostATSoundWnd.obj
 0001:0002f9f0       ?OnClose@CGhostATSoundWnd@@IAEXXZ 004309f0 f   GhostATSoundWnd.obj
 0001:0002fa20       ?OnDestroy@CGhostATSoundWnd@@IAEXXZ 00430a20 f   GhostATSoundWnd.obj
 0001:0002fa80       ?OnSize@CGhostATSoundWnd@@IAEXIHH@Z 00430a80 f   GhostATSoundWnd.obj
 0001:0002fb60       ?OnPlay@CGhostATSoundWnd@@IAEXXZ 00430b60 f   GhostATSoundWnd.obj
 0001:0002fb90       ?OnPause@CGhostATSoundWnd@@IAEXXZ 00430b90 f   GhostATSoundWnd.obj
 0001:0002fbc0       ?OnStop@CGhostATSoundWnd@@IAEXXZ 00430bc0 f   GhostATSoundWnd.obj
 0001:0002fbf0       ?ModifyTemplate@CGhostATSoundWnd@@MAEXPAVSPDlgTemplate@@@Z 00430bf0 f   GhostATSoundWnd.obj
 0001:0002fc10       ?CreateMe@CGhostATSoundWnd@@QAEXPAVCGhostATSoundDesc@@PAUIVideoWindow@@PAUIMFVideoDisplayControl@@PAUIMediaSeeking@@@Z 00430c10 f   GhostATSoundWnd.obj
 0001:0002fc70       ?UpdateButtonState@CGhostATSoundWnd@@QAEXXZ 00430c70 f   GhostATSoundWnd.obj
 0001:0002fd20       ?OnTimer@CGhostATSoundWnd@@IAEXI@Z 00430d20 f   GhostATSoundWnd.obj
 0001:0002fd50       ?UpdatePos@CGhostATSoundWnd@@QAEXXZ 00430d50 f   GhostATSoundWnd.obj
 0001:0002fdc0       ?OnSoundUpdate@CGhostATSoundWnd@@IAEJIJ@Z 00430dc0 f   GhostATSoundWnd.obj
 0001:0002fdf0       ?OnTrackBar@CGhostATSoundWnd@@IAEXII@Z 00430df0 f   GhostATSoundWnd.obj
 0001:0002ff70       ?OnHScroll@CGhostATSoundWnd@@IAEXIIPAVCScrollBar@@@Z 00430f70 f   GhostATSoundWnd.obj
 0001:0002ffb0       ?OnShowWindow@CGhostATSoundWnd@@IAEXHI@Z 00430fb0 f   GhostATSoundWnd.obj
 0001:0002ffe0       ?OnGetMinMaxInfo@CGhostATSoundWnd@@IAEXPAUtagMINMAXINFO@@@Z 00430fe0 f   GhostATSoundWnd.obj
 0001:00030060       ??0CGhostDlg@@QAE@PAVCWnd@@@Z 00431060 f   GhostDlg.obj
 0001:000300d0       ??_ECGhostDlg@@UAEPAXI@Z   004310d0 f i GhostDlg.obj
 0001:000300d0       ??_GCGhostDlg@@UAEPAXI@Z   004310d0 f i GhostDlg.obj
 0001:00030100       ??1CGhostDlg@@UAE@XZ       00431100 f i GhostDlg.obj
 0001:00030160       ?DoDataExchange@CGhostDlg@@MAEXPAVCDataExchange@@@Z 00431160 f   GhostDlg.obj
 0001:00030180       ?GetMessageMap@CGhostDlg@@MBEPBUAFX_MSGMAP@@XZ 00431180 f   GhostDlg.obj
 0001:00030190       ?OnInitDialog@CGhostDlg@@MAEHXZ 00431190 f   GhostDlg.obj
 0001:000305b0       ?OnCacheEnable@CGhostDlg@@IAEXXZ 004315b0 f   GhostDlg.obj
 0001:00030610       ?OnCacheListEnable@CGhostDlg@@IAEXXZ 00431610 f   GhostDlg.obj
 0001:00030670       ?OnChangeCacheDuration@CGhostDlg@@IAEXXZ 00431670 f   GhostDlg.obj
 0001:000306c0       ?OnChangeCacheNum@CGhostDlg@@IAEXXZ 004316c0 f   GhostDlg.obj
 0001:00030710       ?UpdateEnabled@CGhostDlg@@IAEXXZ 00431710 f   GhostDlg.obj
 0001:000307f0       ?OnRandomGhostBoot@CGhostDlg@@IAEXXZ 004317f0 f   GhostDlg.obj
 0001:00030820       ?OnSelectGhostBoot@CGhostDlg@@IAEXXZ 00431820 f   GhostDlg.obj
 0001:00030850       ?OnNoMenuModify@CGhostDlg@@IAEXXZ 00431850 f   GhostDlg.obj
 0001:000308c0       ?OnAutoChangeEnable@CGhostDlg@@IAEXXZ 004318c0 f   GhostDlg.obj
 0001:00030920       ?OnAutoChangeRadio@CGhostDlg@@IAEXXZ 00431920 f   GhostDlg.obj
 0001:00030960       ?OnChangeAutoChangeDuration@CGhostDlg@@IAEXXZ 00431960 f   GhostDlg.obj
 0001:000309b0       ?OnNoTalkMinimize@CGhostDlg@@IAEXXZ 004319b0 f   GhostDlg.obj
 0001:00030a00       ?OnSelchangeUpdatecheckMethod@CGhostDlg@@IAEXXZ 00431a00 f   GhostDlg.obj
 0001:00030a30       ?OnSelchangeStrictUpdateKey@CGhostDlg@@IAEXXZ 00431a30 f   GhostDlg.obj
 0001:00030a60       ?OnStrictUpdate@CGhostDlg@@IAEXXZ 00431a60 f   GhostDlg.obj
 0001:00030ab0       ?OnMikire@CGhostDlg@@IAEXXZ 00431ab0 f   GhostDlg.obj
 0001:00030b00       ?OnKasanari@CGhostDlg@@IAEXXZ 00431b00 f   GhostDlg.obj
 0001:00030b50       ?OnUpdateCheckOther@CGhostDlg@@IAEXXZ 00431b50 f   GhostDlg.obj
 0001:00030b80       ?OnAutoUpdateEnable@CGhostDlg@@IAEXXZ 00431b80 f   GhostDlg.obj
 0001:00030be0       ?OnChangeAutoUpdateDuration@CGhostDlg@@IAEXXZ 00431be0 f   GhostDlg.obj
 0001:00030c40       ?OnSelchangeAltMidClickKey@CGhostDlg@@IAEXXZ 00431c40 f   GhostDlg.obj
 0001:00030c80       ?OnAltMidClick@CGhostDlg@@IAEXXZ 00431c80 f   GhostDlg.obj
 0001:00030cf0       ??0CGhostExtDlg@@QAE@PAVCWnd@@@Z 00431cf0 f   GhostExtDlg.obj
 0001:00030d70       ??_ECProgressCtrl@@UAEPAXI@Z 00431d70 f i GhostExtDlg.obj
 0001:00030d70       ??_GCProgressCtrl@@UAEPAXI@Z 00431d70 f i GhostExtDlg.obj
 0001:00030da0       ??_GCGhostExtDlg@@UAEPAXI@Z 00431da0 f i GhostExtDlg.obj
 0001:00030da0       ??_ECGhostExtDlg@@UAEPAXI@Z 00431da0 f i GhostExtDlg.obj
 0001:00030dd0       ??1CGhostExtDlg@@UAE@XZ    00431dd0 f i GhostExtDlg.obj
 0001:00030e30       ?DoDataExchange@CGhostExtDlg@@MAEXPAVCDataExchange@@@Z 00431e30 f   GhostExtDlg.obj
 0001:00030e50       ?GetMessageMap@CGhostExtDlg@@MBEPBUAFX_MSGMAP@@XZ 00431e50 f   GhostExtDlg.obj
 0001:00030e60       ?OnInitDialog@CGhostExtDlg@@MAEHXZ 00431e60 f   GhostExtDlg.obj
 0001:00031130       ?OnDestroy@CGhostExtDlg@@IAEXXZ 00432130 f   GhostExtDlg.obj
 0001:00031170       ?CreateMe@CGhostExtDlg@@QAEXPAVCWnd@@PAVSPGhost@@@Z 00432170 f   GhostExtDlg.obj
 0001:000314e0       ?UpdateControlState@CGhostExtDlg@@QAEXXZ 004324e0 f   GhostExtDlg.obj
 0001:00031760       ?SPS_AddValueBool@CGhostExtDlg@@AAE_NPBDH_N@Z 00432760 f   GhostExtDlg.obj
 0001:00031820       ?SPS_AddValueW@CGhostExtDlg@@AAE_NPBDPBG@Z 00432820 f   GhostExtDlg.obj
 0001:00031890       ?SPS_GetValueBool@CGhostExtDlg@@ABEHPBDH_N@Z 00432890 f   GhostExtDlg.obj
 0001:00031940       ?SPS_GetValueW@CGhostExtDlg@@ABEPAGPBDPAG@Z 00432940 f   GhostExtDlg.obj
 0001:000319b0       ?SPS_Save@CGhostExtDlg@@AAE_NXZ 004329b0 f   GhostExtDlg.obj
 0001:000319e0       ?OnReset@CGhostExtDlg@@IAEXXZ 004329e0 f   GhostExtDlg.obj
 0001:00031a10       ?ThreadProc@CGhostExtDlg@@QAEXXZ 00432a10 f   GhostExtDlg.obj
 0001:00032060       ??1SPSettings@@QAE@XZ      00433060 f i GhostExtDlg.obj
 0001:00032180       ?OnTopmost@CGhostExtDlg@@IAEXXZ 00433180 f   GhostExtDlg.obj
 0001:000321b0       ?OnIgnoreMove@CGhostExtDlg@@IAEXXZ 004331b0 f   GhostExtDlg.obj
 0001:000321e0       ?OnSound@CGhostExtDlg@@IAEXXZ 004331e0 f   GhostExtDlg.obj
 0001:00032210       ?OnBalloonmove@CGhostExtDlg@@IAEXXZ 00433210 f   GhostExtDlg.obj
 0001:00032240       ?OnForceAlignRadio@CGhostExtDlg@@IAEXXZ 00433240 f   GhostExtDlg.obj
 0001:000322b0       ?OnDeactivate@CGhostExtDlg@@IAEXXZ 004332b0 f   GhostExtDlg.obj
 0001:000322e0       ?OnActivate@CGhostExtDlg@@IAEXXZ 004332e0 f   GhostExtDlg.obj
 0001:00032350       ?OnDefinedSurfaceOnly@CGhostExtDlg@@IAEXXZ 00433350 f   GhostExtDlg.obj
 0001:00032380       ?OnShowHiddenElements@CGhostExtDlg@@IAEXXZ 00433380 f   GhostExtDlg.obj
 0001:000323b0       ?OnScalingBalloon@CGhostExtDlg@@IAEXXZ 004333b0 f   GhostExtDlg.obj
 0001:00032400       ?OnScalingDither@CGhostExtDlg@@IAEXXZ 00433400 f   GhostExtDlg.obj
 0001:00032430       ?OnScalingDitherBalloon@CGhostExtDlg@@IAEXXZ 00433430 f   GhostExtDlg.obj
 0001:00032460       ?OnScalingButton@CGhostExtDlg@@IAEXXZ 00433460 f   GhostExtDlg.obj
 0001:000324f0       ??1CScalingDlg@@UAE@XZ     004334f0 f i GhostExtDlg.obj
 0001:00032550       ?OnBalloonScalingButton@CGhostExtDlg@@IAEXXZ 00433550 f   GhostExtDlg.obj
 0001:000325e0       ?OnCancel@CGhostExtDlg@@MAEXXZ 004335e0 f   GhostExtDlg.obj
 0001:000325e0       ?OnOK@CGhostExtDlg@@MAEXXZ 004335e0 f   GhostExtDlg.obj
 0001:00032600       ?OnResetGhost@CGhostExtDlg@@IAEXXZ 00433600 f   GhostExtDlg.obj
 0001:00032680       ?OnApplyGhost@CGhostExtDlg@@IAEXXZ 00433680 f   GhostExtDlg.obj
 0001:00032750       ?OnShowDefaultGhostProp@CGhostExtDlg@@IAEXXZ 00433750 f   GhostExtDlg.obj
 0001:00032780       ??_G?$JHashData@D@@QAEPAXI@Z 00433780 f i GhostExtDlg.obj
 0001:000327d0       ?Copy@?$JArray@G@@QAE_NPBGK@Z 004337d0 f i GhostExtDlg.obj
 0001:00032970       ??0CGhostHelperWnd@@QAE@XZ 00433970 f   GhostHelperWnd.obj
 0001:000329b0       ??_GCGhostHelperWnd@@UAEPAXI@Z 004339b0 f i GhostHelperWnd.obj
 0001:000329b0       ??_ECGhostHelperWnd@@UAEPAXI@Z 004339b0 f i GhostHelperWnd.obj
 0001:000329e0       ??1CGhostHelperWnd@@UAE@XZ 004339e0 f   GhostHelperWnd.obj
 0001:00032a20       ?GetMessageMap@CGhostHelperWnd@@MBEPBUAFX_MSGMAP@@XZ 00433a20 f   GhostHelperWnd.obj
 0001:00032a30       ?OnSSPSysMsg@CGhostHelperWnd@@IAEJIJ@Z 00433a30 f   GhostHelperWnd.obj
 0001:00032ac0       ?ResetSelfWndPos@CGhostHelperWnd@@AAEXXZ 00433ac0 f   GhostHelperWnd.obj
 0001:00032b00       ?GetSelfWndPos@CGhostHelperWnd@@AAE?AVJPoint@@_N@Z 00433b00 f   GhostHelperWnd.obj
 0001:00032b90       ?ShowHideAll@CGhostHelperWnd@@AAEXJ@Z 00433b90 f   GhostHelperWnd.obj
 0001:00032dc0       ?OnDWMSendIconicThumbnail@CGhostHelperWnd@@IAEJIJ@Z 00433dc0 f   GhostHelperWnd.obj
 0001:00032e30       ?OnDWMSendIconicLivePreviewBitmap@CGhostHelperWnd@@IAEJIJ@Z 00433e30 f   GhostHelperWnd.obj
 0001:00032e70       ?OnDestroy@CGhostHelperWnd@@IAEXXZ 00433e70 f   GhostHelperWnd.obj
 0001:00032e90       ?OnWindowPosChanged@CGhostHelperWnd@@IAEXPAUtagWINDOWPOS@@@Z 00433e90 f   GhostHelperWnd.obj
 0001:00032f30       ?OnClose@CGhostHelperWnd@@IAEXXZ 00433f30 f   GhostHelperWnd.obj
 0001:00032f50       ?CreateMe@CGhostHelperWnd@@QAE_NXZ 00433f50 f   GhostHelperWnd.obj
 0001:00033030       ?OnCreate@CGhostHelperWnd@@IAEHPAUtagCREATESTRUCTA@@@Z 00434030 f   GhostHelperWnd.obj
 0001:000330d0       ?ShowOnTaskbar@CGhostHelperWnd@@QAEX_N@Z 004340d0 f   GhostHelperWnd.obj
 0001:00033130       ?SetTopMost@CGhostHelperWnd@@QAEX_N@Z 00434130 f   GhostHelperWnd.obj
 0001:00033160       ?WindowProc@CGhostHelperWnd@@MAEJIIJ@Z 00434160 f   GhostHelperWnd.obj
 0001:000331d0       ?Delete@?$SPCacheObj@VSPGhostRaiseBlock@@VJDummyLockSection@@VJDummyLock@@@@QAEXPAVSPGhostRaiseBlock@@@Z 004341d0 f i GhostHelperWnd.obj
 0001:000332e0       ?SetNumNoPurge@?$JArray@E@@QAEXK_N@Z 004342e0 f i GhostHelperWnd.obj
 0001:000332e0       ?SetNumNoPurge@?$JArray@D@@QAEXK_N@Z 004342e0 f i GhostHelperWnd.obj
 0001:00033380       ??0CGhostProfile@@QAE@PAVCWnd@@@Z 00434380 f   GhostProfile.obj
 0001:00033430       ??_GCGhostProfile@@UAEPAXI@Z 00434430 f i GhostProfile.obj
 0001:00033430       ??_ECGhostProfile@@UAEPAXI@Z 00434430 f i GhostProfile.obj
 0001:00033460       ??1CGhostProfile@@UAE@XZ   00434460 f   GhostProfile.obj
 0001:00033560       ?DoDataExchange@CGhostProfile@@MAEXPAVCDataExchange@@@Z 00434560 f   GhostProfile.obj
 0001:00033580       ?GetMessageMap@CGhostProfile@@MBEPBUAFX_MSGMAP@@XZ 00434580 f   GhostProfile.obj
 0001:00033590       ?OnInitDialog@CGhostProfile@@MAEHXZ 00434590 f   GhostProfile.obj
 0001:00033730       ?InitData@CGhostProfile@@AAEXXZ 00434730 f   GhostProfile.obj
 0001:00033860       ?OnCancel@CGhostProfile@@MAEXXZ 00434860 f   GhostProfile.obj
 0001:00033860       ?OnOK@CGhostProfile@@MAEXXZ 00434860 f   GhostProfile.obj
 0001:00033860       ?OnClose@CGhostProfile@@IAEXXZ 00434860 f   GhostProfile.obj
 0001:00033880       ?SetGhost@CGhostProfile@@QAEHPAVSPGhost@@@Z 00434880 f   GhostProfile.obj
 0001:00033a20       ?SetPropA@CGhostProfile@@QAEHPAVSPProp@@@Z 00434a20 f   GhostProfile.obj
 0001:00033b40       ?LoadData@CGhostProfile@@AAEXH@Z 00434b40 f   GhostProfile.obj
 0001:00033d60       ?LoadReadme@CGhostProfile@@AAEHAAVSPProp@@AAVJWString@@@Z 00434d60 f   GhostProfile.obj
 0001:00034190       ??1JMappedStream@@UAE@XZ   00435190 f i GhostProfile.obj
 0001:000341f0       ?Read@JMappedStream@@UAEEXZ 004351f0 f i GhostProfile.obj
 0001:00034210       ?Length@JMappedStream@@UAEKXZ 00435210 f i GhostProfile.obj
 0001:00034220       ?Pos@JMappedStream@@UAEKXZ 00435220 f i GhostProfile.obj
 0001:00034230       ??_GJMappedStream@@UAEPAXI@Z 00435230 f i GhostProfile.obj
 0001:00034230       ??_EJMappedStream@@UAEPAXI@Z 00435230 f i GhostProfile.obj
 0001:00034260       ?OnCraftmanURLClick@CGhostProfile@@IAEXXZ 00435260 f   GhostProfile.obj
 0001:00034370       ?OnSize@CGhostProfile@@IAEXIHH@Z 00435370 f   GhostProfile.obj
 0001:000343b0       ?WindowProc@CGhostProfile@@MAEJIIJ@Z 004353b0 f   GhostProfile.obj
 0001:000344a0       ?OnDestroy@CGhostProfile@@IAEXXZ 004354a0 f   GhostProfile.obj
 0001:000344c0       ?OnSelchangeProfileKind@CGhostProfile@@IAEXXZ 004354c0 f   GhostProfile.obj
 0001:000344c0       ?OnSelchangeProfileCharset@CGhostProfile@@IAEXXZ 004354c0 f   GhostProfile.obj
 0001:000344e0       ?CreateMe@CGhostProfile@@QAEXPAVCWnd@@@Z 004354e0 f   GhostProfile.obj
 0001:000344f0       ?PreTranslateMessage@CGhostProfile@@UAEHPAUtagMSG@@@Z 004354f0 f   GhostProfile.obj
 0001:000345a0       ??0CGhostTermsDlg@@QAE@PAVCWnd@@@Z 004355a0 f   GhostTermsDlg.obj
 0001:000346f0       ??_ECGhostTermsDlg@@UAEPAXI@Z 004356f0 f i GhostTermsDlg.obj
 0001:000346f0       ??_GCGhostTermsDlg@@UAEPAXI@Z 004356f0 f i GhostTermsDlg.obj
 0001:00034720       ??1CGhostTermsDlg@@UAE@XZ  00435720 f i GhostTermsDlg.obj
 0001:000347d0       ?GetMessageMap@CGhostTermsDlg@@MBEPBUAFX_MSGMAP@@XZ 004357d0 f   GhostTermsDlg.obj
 0001:000347e0       ?OnInitDialog@CGhostTermsDlg@@MAEHXZ 004357e0 f   GhostTermsDlg.obj
 0001:00034920       ?SetText@CGhostTermsDlg@@QAEXPBVSPShowTermsInfo@@@Z 00435920 f   GhostTermsDlg.obj
 0001:000349a0       ?DoModalExt@CGhostTermsDlg@@QAEHPAVCWnd@@@Z 004359a0 f   GhostTermsDlg.obj
 0001:00034a50       ?SetTextView@CGhostTermsDlg@@AAEXXZ 00435a50 f   GhostTermsDlg.obj
 0001:00034c40       ?OnSize@CGhostTermsDlg@@IAEXIHH@Z 00435c40 f   GhostTermsDlg.obj
 0001:00034c70       ?OnSelchangeProfileCharset@CGhostTermsDlg@@IAEXXZ 00435c70 f   GhostTermsDlg.obj
 0001:00034c80       ?OnSysCommand@CGhostTermsDlg@@IAEXIJ@Z 00435c80 f   GhostTermsDlg.obj
 0001:00034ca0       ?PreTranslateMessage@CGhostTermsDlg@@UAEHPAUtagMSG@@@Z 00435ca0 f   GhostTermsDlg.obj
 0001:00034d10       ??0CGhostTimeWnd@@QAE@XZ   00435d10 f   GhostTimeWnd.obj
 0001:00034e20       ??_ECGhostTimeWnd@@UAEPAXI@Z 00435e20 f i GhostTimeWnd.obj
 0001:00034e20       ??_GCGhostTimeWnd@@UAEPAXI@Z 00435e20 f i GhostTimeWnd.obj
 0001:00034e50       ??1CGhostTimeWnd@@UAE@XZ   00435e50 f   GhostTimeWnd.obj
 0001:00034f50       ?GetMessageMap@CGhostTimeWnd@@MBEPBUAFX_MSGMAP@@XZ 00435f50 f   GhostTimeWnd.obj
 0001:00034f60       ?CreateMe@CGhostTimeWnd@@QAEHPAUHWND__@@@Z 00435f60 f   GhostTimeWnd.obj
 0001:00035240       ?SetType@CGhostTimeWnd@@QAEXH@Z 00436240 f   GhostTimeWnd.obj
 0001:00035280       ?OnCreate@CGhostTimeWnd@@IAEHPAUtagCREATESTRUCTA@@@Z 00436280 f   GhostTimeWnd.obj
 0001:00035300       ?OnPaint@CGhostTimeWnd@@IAEXXZ 00436300 f   GhostTimeWnd.obj
 0001:00035380       ?DrawBackBuffer@CGhostTimeWnd@@AAEXXZ 00436380 f   GhostTimeWnd.obj
 0001:00036750       ??_GCPen@@UAEPAXI@Z        00437750 f i GhostTimeWnd.obj
 0001:00036750       ??_ECPen@@UAEPAXI@Z        00437750 f i GhostTimeWnd.obj
 0001:00036780       ??1CSelectObjectHelper@@QAE@XZ 00437780 f i GhostTimeWnd.obj
 0001:00036810       ?SaveBackBuffer@CGhostTimeWnd@@AAEXXZ 00437810 f   GhostTimeWnd.obj
 0001:00036960       ?OnKeyDown@CGhostTimeWnd@@IAEXIII@Z 00437960 f   GhostTimeWnd.obj
 0001:00036a40       ?WindowProc@CGhostTimeWnd@@MAEJIIJ@Z 00437a40 f   GhostTimeWnd.obj
 0001:00036ae0       ?OnDestroy@CGhostTimeWnd@@IAEXXZ 00437ae0 f   GhostTimeWnd.obj
 0001:00036b70       ??1SPSurface@@QAE@XZ       00437b70 f i GhostTimeWnd.obj
 0001:00036be0       ?GetHitTestID@CGhostTimeWnd@@AAEKXZ 00437be0 f   GhostTimeWnd.obj
 0001:00036d00       ??0CMouseHitMap@@QAE@IJJJJ@Z 00437d00 f i GhostTimeWnd.obj
 0001:00036d50       ?AdjustRect@CGhostTimeWnd@@AAEXAAUtagRECT@@@Z 00437d50 f   GhostTimeWnd.obj
 0001:00036d80       ?GetMaxPage@CGhostTimeWnd@@AAEJXZ 00437d80 f   GhostTimeWnd.obj
 0001:00036dc0       ?MovePage@CGhostTimeWnd@@AAEXH@Z 00437dc0 f   GhostTimeWnd.obj
 0001:00036e10       ?OnLButtonUp@CGhostTimeWnd@@IAEXIVCPoint@@@Z 00437e10 f   GhostTimeWnd.obj
 0001:00036ed0       ?OnNcRButtonUp@CGhostTimeWnd@@IAEXIVCPoint@@@Z 00437ed0 f   GhostTimeWnd.obj
 0001:00037640       ?GetRankingHitTest@CGhostTimeWnd@@AAEJXZ 00438640 f   GhostTimeWnd.obj
 0001:000376c0       ?PreTranslateMessage@CGhostTimeWnd@@UAEHPAUtagMSG@@@Z 004386c0 f   GhostTimeWnd.obj
 0001:00037700       ?ProcessShortcut@CGhostTimeWnd@@AAEHI@Z 00438700 f   GhostTimeWnd.obj
 0001:00037750       ??0?$JArray@UtagSPSurfaceRgnCache@@@@QAE@K@Z 00438750 f i GhostTimeWnd.obj
 0001:000377f0       ?Size@?$JArray@VJRect@@@@QBEKXZ 004387f0 f i GhostTimeWnd.obj
 0001:00037810       ?SetNumNoPurge@?$JArray@VJRect@@@@QAEXK_N@Z 00438810 f i GhostTimeWnd.obj
 0001:00037870       ?Realloc@?$JArray@VJRect@@@@QAE_NK@Z 00438870 f i GhostTimeWnd.obj
 0001:00037940       ?Realloc@?$JArray@UtagCTW_GHOSTTIMEDATA@@@@QAE_NK@Z 00438940 f i GhostTimeWnd.obj
 0001:00037a60       ??0CHelperMainWnd@@QAE@XZ  00438a60 f   HelperMainWnd.obj
 0001:00037b90       ??_ECHelperMainWnd@@UAEPAXI@Z 00438b90 f i HelperMainWnd.obj
 0001:00037b90       ??_GCHelperMainWnd@@UAEPAXI@Z 00438b90 f i HelperMainWnd.obj
 0001:00037bc0       ??1CHelperMainWnd@@UAE@XZ  00438bc0 f   HelperMainWnd.obj
 0001:00037c40       ?GetMessageMap@CHelperMainWnd@@MBEPBUAFX_MSGMAP@@XZ 00438c40 f   HelperMainWnd.obj
 0001:00037c50       ?OnClose@CHelperMainWnd@@IAEXXZ 00438c50 f   HelperMainWnd.obj
 0001:00037c80       ?ProcessSSF@CHelperMainWnd@@AAEXPAVJWString@@@Z 00438c80 f   HelperMainWnd.obj
 0001:00037d20       ?ProcessTaskList@CHelperMainWnd@@AAEXPAVJWString@@@Z 00438d20 f   HelperMainWnd.obj
 0001:00037da0       ?ProcessURLExec@CHelperMainWnd@@AAEXPAVJWString@@@Z 00438da0 f   HelperMainWnd.obj
 0001:00038460       ?ProcessDownload@CHelperMainWnd@@AAEXPAVSPDownloadInfo@@@Z 00439460 f   HelperMainWnd.obj
 0001:00038750       ??1SPDownloadInfo@@QAE@XZ  00439750 f i HelperMainWnd.obj
 0001:000387b0       ?DownloadProc@CHelperMainWnd@@CAXPAXPCH@Z 004397b0 f   HelperMainWnd.obj
 0001:00039460       ??0SPCmdListener@@QAE@XZ   0043a460 f i HelperMainWnd.obj
 0001:000394a0       ??1SPGhostNoInterrupt@@QAE@XZ 0043a4a0 f i HelperMainWnd.obj
 0001:000394c0       ?SPCNotify@SPGhostBreakClass@@UAE_NKPAPAXK@Z 0043a4c0 f i HelperMainWnd.obj
 0001:00039500       ??_ESPGhostBreakClass@@UAEPAXI@Z 0043a500 f i HelperMainWnd.obj
 0001:00039500       ??_GSPGhostBreakClass@@UAEPAXI@Z 0043a500 f i HelperMainWnd.obj
 0001:00039530       ??1SPGhostBreakClass@@UAE@XZ 0043a530 f i HelperMainWnd.obj
 0001:000395a0       ?DownloadProcAutoDiscovery@CHelperMainWnd@@CAHPAVSPDownloadInfo@@@Z 0043a5a0 f   HelperMainWnd.obj
 0001:00039d30       ?DownloadProcRSS@CHelperMainWnd@@CAHPAVSPDownloadInfo@@@Z 0043ad30 f   HelperMainWnd.obj
 0001:00039e40       ?DownloadProcRSSReal@CHelperMainWnd@@CAHPAVSPDownloadInfo@@AAVSPInstallEvent@@_N@Z 0043ae40 f   HelperMainWnd.obj
 0001:0003b5b0       ?DownloadProcSSF@CHelperMainWnd@@CAXPAVSPDownloadInfo@@AAVJWString@@@Z 0043c5b0 f   HelperMainWnd.obj
 0001:0003b5d0       ?DownloadProcNar@CHelperMainWnd@@CAXPAVSPDownloadInfo@@AAVJWString@@@Z 0043c5d0 f   HelperMainWnd.obj
 0001:0003b5f0       ?DownloadProcNarSSF@CHelperMainWnd@@CAXPAVSPDownloadInfo@@AAVJWString@@PBG@Z 0043c5f0 f   HelperMainWnd.obj
 0001:0003c250       ?DownloadProcHomeURL@CHelperMainWnd@@CAXPAVSPDownloadInfo@@AAVJWString@@@Z 0043d250 f   HelperMainWnd.obj
 0001:0003c480       ?OnSSPSysMsg@CHelperMainWnd@@IAEJIJ@Z 0043d480 f   HelperMainWnd.obj
 0001:0003cab0       ?OnMainWindowCreateFinished@CHelperMainWnd@@QAEXXZ 0043dab0 f   HelperMainWnd.obj
 0001:0003cd00       ?OnCreate@CHelperMainWnd@@IAEHPAUtagCREATESTRUCTA@@@Z 0043dd00 f   HelperMainWnd.obj
 0001:0003ce00       ?ShowStatusWindow@CHelperMainWnd@@AAEX_N@Z 0043de00 f   HelperMainWnd.obj
 0001:0003cea0       ?ShowProgressWindow@CHelperMainWnd@@AAEXPBG@Z 0043dea0 f   HelperMainWnd.obj
 0001:0003d100       ?ShowThumbnailWindow@CHelperMainWnd@@AAEXPBG@Z 0043e100 f   HelperMainWnd.obj
 0001:0003d1a0       ?ShowDictationWindow@CHelperMainWnd@@AAEX_N@Z 0043e1a0 f   HelperMainWnd.obj
 0001:0003d2d0       ?WindowProc@CHelperMainWnd@@MAEJIIJ@Z 0043e2d0 f   HelperMainWnd.obj
 0001:0003d3a0       ?OnDestroy@CHelperMainWnd@@IAEXXZ 0043e3a0 f   HelperMainWnd.obj
 0001:0003d470       ?OnTimer@CHelperMainWnd@@IAEXI@Z 0043e470 f   HelperMainWnd.obj
 0001:0003d4a0       ?ProcessSystemTimes@CHelperMainWnd@@AAEXXZ 0043e4a0 f   HelperMainWnd.obj
 0001:0003d6b0       ?Alloc@?$JArray@D@@QAE_NK@Z 0043e6b0 f i HelperMainWnd.obj
 0001:0003d790       ??_ESPGhostLoaderInfo@@AAEPAXI@Z 0043e790 f i HelperMainWnd.obj
 0001:0003d7f0       ?Release@?$JHash@D@@QAEXXZ 0043e7f0 f i HelperMainWnd.obj
 0001:0003d7f0       ??1?$JHash@D@@QAE@XZ       0043e7f0 f i HelperMainWnd.obj
 0001:0003d880       ?Add@?$JArray@D@@QAEKK@Z   0043e880 f i HelperMainWnd.obj
 0001:0003d9b0       ?CreateObject@CHelperThread@@SGPAVCObject@@XZ 0043e9b0 f   HelperThread.obj
 0001:0003da10       ?GetRuntimeClass@CHelperThread@@UBEPAUCRuntimeClass@@XZ 0043ea10 f   HelperThread.obj
 0001:0003da20       ??0CHelperThread@@QAE@XZ   0043ea20 f   HelperThread.obj
 0001:0003da80       ??_GCHelperThread@@UAEPAXI@Z 0043ea80 f i HelperThread.obj
 0001:0003da80       ??_ECHelperThread@@UAEPAXI@Z 0043ea80 f i HelperThread.obj
 0001:0003dab0       ??1CHelperThread@@UAE@XZ   0043eab0 f   HelperThread.obj
 0001:0003db10       ?InitInstance@CHelperThread@@UAEHXZ 0043eb10 f   HelperThread.obj
 0001:0003dc50       ?ExitInstance@CHelperThread@@UAEHXZ 0043ec50 f   HelperThread.obj
 0001:0003dc50       ?ExitInstance@CGhostAsyncTaskThread@@UAEHXZ 0043ec50 f   HelperThread.obj
 0001:0003dd10       ?WaitForThreadBoot@CHelperThread@@QAEXXZ 0043ed10 f   HelperThread.obj
 0001:0003dd10       ?WaitForThreadBoot@CGhostAsyncTaskThread@@QAEXXZ 0043ed10 f   HelperThread.obj
 0001:0003dd30       ?GetMessageMap@CHelperThread@@MBEPBUAFX_MSGMAP@@XZ 0043ed30 f   HelperThread.obj
 0001:0003dd40       ??0CImageListEx@@QAE@XZ    0043ed40 f   ImageListEx.obj
 0001:0003dd60       ??_GCImageListEx@@UAEPAXI@Z 0043ed60 f i ImageListEx.obj
 0001:0003dd60       ??_ECImageListEx@@UAEPAXI@Z 0043ed60 f i ImageListEx.obj
 0001:0003dd90       ??1CImageListEx@@UAE@XZ    0043ed90 f   ImageListEx.obj
 0001:0003dda0       ?CreateEx@CImageListEx@@QAEHIHHK@Z 0043eda0 f   ImageListEx.obj
 0001:0003dec0       ??_GCBitmap@@UAEPAXI@Z     0043eec0 f i ImageListEx.obj
 0001:0003dec0       ??_ECBitmap@@UAEPAXI@Z     0043eec0 f i ImageListEx.obj
 0001:0003def0       ??1CBitmap@@UAE@XZ         0043eef0 f i ImageListEx.obj
 0001:0003df30       ?Draw@CImageListEx@@QAEHPAVCDC@@HHHI@Z 0043ef30 f   ImageListEx.obj
 0001:0003df60       ?Draw@CImageListEx@@QAEHPAUHDC__@@HHHI@Z 0043ef60 f   ImageListEx.obj
 0001:0003df90       ??0CInputDropTarget@@QAE@XZ 0043ef90 f   InputDropTarget.obj
 0001:0003e000       ??_GCInputDropTarget@@UAEPAXI@Z 0043f000 f i InputDropTarget.obj
 0001:0003e000       ??_ECInputDropTarget@@UAEPAXI@Z 0043f000 f i InputDropTarget.obj
 0001:0003e030       ??1CInputDropTarget@@UAE@XZ 0043f030 f   InputDropTarget.obj
 0001:0003e050       ?DragEnter@CInputDropTarget@@UAGJPAUIDataObject@@KU_POINTL@@PAK@Z 0043f050 f   InputDropTarget.obj
 0001:0003e0e0       ?DragOver@CInputDropTarget@@UAGJKU_POINTL@@PAK@Z 0043f0e0 f   InputDropTarget.obj
 0001:0003e100       ?DragLeave@CInputDropTarget@@UAGJXZ 0043f100 f   InputDropTarget.obj
 0001:0003e110       ?Drop@CInputDropTarget@@UAGJPAUIDataObject@@KU_POINTL@@PAK@Z 0043f110 f   InputDropTarget.obj
 0001:0003e1b0       ?RegisterMe@CInputDropTarget@@QAEHPAVCWnd@@@Z 0043f1b0 f   InputDropTarget.obj
 0001:0003e1e0       ?Revoke@CInputDropTarget@@QAEXXZ 0043f1e0 f   InputDropTarget.obj
 0001:0003e200       ?QueryInterface@?$SPComObjectBase@UIDropTarget@@@@UAGJABU_GUID@@PAPAX@Z 0043f200 f i InputDropTarget.obj
 0001:0003e2c0       ??_E?$SPComObjectBase@UIDropTarget@@@@UAEPAXI@Z 0043f2c0 f i InputDropTarget.obj
 0001:0003e2c0       ??_G?$SPComObjectBase@UIDropTarget@@@@UAEPAXI@Z 0043f2c0 f i InputDropTarget.obj
 0001:0003e2f0       ??1?$SPComObjectBase@UIDropTarget@@@@UAE@XZ 0043f2f0 f i InputDropTarget.obj
 0001:0003e310       ??0CInputEdit@@QAE@XZ      0043f310 f   InputEdit.obj
 0001:0003e330       ??_ECInputEdit@@UAEPAXI@Z  0043f330 f i InputEdit.obj
 0001:0003e330       ??_GCInputEdit@@UAEPAXI@Z  0043f330 f i InputEdit.obj
 0001:0003e360       ??1CInputEdit@@UAE@XZ      0043f360 f   InputEdit.obj
 0001:0003e3c0       ?GetMessageMap@CInputEdit@@MBEPBUAFX_MSGMAP@@XZ 0043f3c0 f   InputEdit.obj
 0001:0003e3d0       ?Create@CInputEdit@@QAEHKABUtagRECT@@PAVCWnd@@I@Z 0043f3d0 f   InputEdit.obj
 0001:0003e470       ?DestroyWindow@CInputEdit@@UAEHXZ 0043f470 f   InputEdit.obj
 0001:0003e4a0       ?OnAccelClose@CInputEdit@@IAEXXZ 0043f4a0 f   InputEdit.obj
 0001:0003e4c0       ?SetSel@CInputEdit@@QAEXJJ@Z 0043f4c0 f   InputEdit.obj
 0001:0003e4e0       ?GetSel@CInputEdit@@QAEXAAJ0@Z 0043f4e0 f   InputEdit.obj
 0001:0003e500       ?PreTranslateMessage@CInputEdit@@UAEHPAUtagMSG@@@Z 0043f500 f   InputEdit.obj
 0001:0003e580       ?OnLButtonDown@CWnd@@IAEXIVCPoint@@@Z 0043f580 f i InputWnd.obj
 0001:0003e580       ?OnLButtonUp@CWnd@@IAEXIVCPoint@@@Z 0043f580 f i InputWnd.obj
 0001:0003e580       ?OnLButtonDblClk@CWnd@@IAEXIVCPoint@@@Z 0043f580 f i InputWnd.obj
 0001:0003e580       ?OnMouseMove@CWnd@@IAEXIVCPoint@@@Z 0043f580 f i InputWnd.obj
 0001:0003e5f0       ??0JDynLoadSystem@@QAE@PBD@Z 0043f5f0 f i InputWnd.obj
 0001:0003e700       ??0CInputWnd@@QAE@XZ       0043f700 f   InputWnd.obj
 0001:0003e950       ??_GCInputWnd@@UAEPAXI@Z   0043f950 f i InputWnd.obj
 0001:0003e950       ??_ECInputWnd@@UAEPAXI@Z   0043f950 f i InputWnd.obj
 0001:0003e980       ??1CInputWnd@@UAE@XZ       0043f980 f   InputWnd.obj
 0001:0003eb30       ?ReleaseButtonSurface@CInputWnd@@AAEXXZ 0043fb30 f   InputWnd.obj
 0001:0003ebc0       ?GetMessageMap@CInputWnd@@MBEPBUAFX_MSGMAP@@XZ 0043fbc0 f   InputWnd.obj
 0001:0003ebd0       ?OnCreate@CInputWnd@@IAEHPAUtagCREATESTRUCTA@@@Z 0043fbd0 f   InputWnd.obj
 0001:0003ec70       ?CreateMe@CInputWnd@@QAEHPAVCSakuraWnd@@@Z 0043fc70 f   InputWnd.obj
 0001:0003edf0       ?IsMatch@CInputWnd@@QAE_NIPBG@Z 0043fdf0 f   InputWnd.obj
 0001:0003ee30       ?GetTypeTextW@CInputWnd@@AAEPBGXZ 0043fe30 f   InputWnd.obj
 0001:0003ee60       ?GetTypeText@CInputWnd@@AAEPBDXZ 0043fe60 f   InputWnd.obj
 0001:0003ef10       ?SetInfo@CInputWnd@@QAEXPAVSPInputWndDispInfo@@@Z 0043ff10 f   InputWnd.obj
 0001:0003ff80       ??_ECButton@@UAEPAXI@Z     00440f80 f i InputWnd.obj
 0001:0003ff80       ??_GCButton@@UAEPAXI@Z     00440f80 f i InputWnd.obj
 0001:0003ffb0       ??_GCDateTimeCtrl@@UAEPAXI@Z 00440fb0 f i InputWnd.obj
 0001:0003ffb0       ??_ECDateTimeCtrl@@UAEPAXI@Z 00440fb0 f i InputWnd.obj
 0001:0003ffe0       ??_GCIPAddressCtrl@@UAEPAXI@Z 00440fe0 f i InputWnd.obj
 0001:0003ffe0       ??_ECIPAddressCtrl@@UAEPAXI@Z 00440fe0 f i InputWnd.obj
 0001:00040010       ?SetAutoComplete@CInputWnd@@AAE_NPAVCInputEdit@@@Z 00441010 f   InputWnd.obj
 0001:000402a0       ?GetButtonText@CInputWnd@@AAEPADXZ 004412a0 f   InputWnd.obj
 0001:000402e0       ?GetInputRect@CInputWnd@@AAEXAAVJExtent@@@Z 004412e0 f   InputWnd.obj
 0001:00040380       ?ToRect@JExtent@@QBE?AVJRect@@XZ 00441380 f i InputWnd.obj
 0001:000403a0       ?AdjustInputRect@CInputWnd@@AAEXXZ 004413a0 f   InputWnd.obj
 0001:00040a80       ?OnUserInput@CInputWnd@@AAEHXZ 00441a80 f   InputWnd.obj
 0001:00040aa0       ?OnNotifyInput@CInputWnd@@AAEHPAG0@Z 00441aa0 f   InputWnd.obj
 0001:00040ad0       ?OnNotifyInputCancel@CInputWnd@@AAEHPAG0@Z 00441ad0 f   InputWnd.obj
 0001:00040d30       ?OnNotifyInputReal@CInputWnd@@AAEHPAG0@Z 00441d30 f   InputWnd.obj
 0001:00040f70       ?SetBalloon@CInputWnd@@QAEHPAVSPBalloon@@@Z 00441f70 f   InputWnd.obj
 0001:000416a0       ?OnCloseButton@CInputWnd@@IAEXXZ 004426a0 f   InputWnd.obj
 0001:000416d0       ?OnButtonPushedMode@CInputWnd@@IAEXXZ 004426d0 f   InputWnd.obj
 0001:00041730       ?OnButtonPushedOK@CInputWnd@@IAEXXZ 00442730 f   InputWnd.obj
 0001:00041740       ?Execute@CInputWnd@@AAEXXZ 00442740 f   InputWnd.obj
 0001:00041770       ?ExecuteReal@CInputWnd@@AAEXXZ 00442770 f   InputWnd.obj
 0001:00041a40       ?OnTimer@CInputWnd@@IAEXI@Z 00442a40 f   InputWnd.obj
 0001:00041aa0       ?ShowAndSetFocus@CInputWnd@@QAEXXZ 00442aa0 f   InputWnd.obj
 0001:00041ad0       ?SetFocusToInput@CInputWnd@@QAEXXZ 00442ad0 f   InputWnd.obj
 0001:00041af0       ?GetInputText@CInputWnd@@QAEPAGXZ 00442af0 f   InputWnd.obj
 0001:00041c70       ?GetExtraInfoText@CInputWnd@@QAEPAGXZ 00442c70 f   InputWnd.obj
 0001:00041d70       ?DestroyControls@CInputWnd@@AAEXXZ 00442d70 f   InputWnd.obj
 0001:00041e20       ?OnDestroy@CInputWnd@@IAEXXZ 00442e20 f   InputWnd.obj
 0001:00041e80       ?DestroyWindow@CInputWnd@@UAEHXZ 00442e80 f   InputWnd.obj
 0001:00041e90       ?OnCtlColor@CInputWnd@@IAEPAUHBRUSH__@@PAVCDC@@PAVCWnd@@I@Z 00442e90 f   InputWnd.obj
 0001:00041ef0       ?OnDrawItem@CInputWnd@@IAEXHPAUtagDRAWITEMSTRUCT@@@Z 00442ef0 f   InputWnd.obj
 0001:000424e0       ?PreTranslateMessage@CInputWnd@@UAEHPAUtagMSG@@@Z 004434e0 f   InputWnd.obj
 0001:00042570       ?OnEraseBkgnd@CInputWnd@@IAEHPAVCDC@@@Z 00443570 f   InputWnd.obj
 0001:000425c0       ?OnCommand@CInputWnd@@MAEHIJ@Z 004435c0 f   InputWnd.obj
 0001:00042730       ?WindowProc@CInputWnd@@MAEJIIJ@Z 00443730 f   InputWnd.obj
 0001:00042830       ?OnWindowPosChanged@CInputWnd@@IAEXPAUtagWINDOWPOS@@@Z 00443830 f   InputWnd.obj
 0001:00042860       ?GetBackgroundHWND@CInputWnd@@QAEPAUHWND__@@XZ 00443860 f   InputWnd.obj
 0001:00042870       ??0?$JPtrArray@PAVSPCmdListener@@@@QAE@J@Z 00443870 f i InputWnd.obj
 0001:000428d0       ??0CInputWndBackground@@QAE@XZ 004438d0 f   InputWndBackground.obj
 0001:000428f0       ??_ECInputWndBackground@@UAEPAXI@Z 004438f0 f i InputWndBackground.obj
 0001:000428f0       ??_GCInputWndBackground@@UAEPAXI@Z 004438f0 f i InputWndBackground.obj
 0001:00042920       ??1CInputWndBackground@@UAE@XZ 00443920 f   InputWndBackground.obj
 0001:00042930       ?GetMessageMap@CInputWndBackground@@MBEPBUAFX_MSGMAP@@XZ 00443930 f   InputWndBackground.obj
 0001:00042940       ?OnEraseBkgnd@CInputWndBackground@@IAEHPAVCDC@@@Z 00443940 f   InputWndBackground.obj
 0001:000429a0       ?OnLButtonDown@CInputWndBackground@@IAEXIVCPoint@@@Z 004439a0 f   InputWndBackground.obj
 0001:000429e0       ?OnLButtonUp@CInputWndBackground@@IAEXIVCPoint@@@Z 004439e0 f   InputWndBackground.obj
 0001:00042b60       ?OnLButtonDblClk@CInputWndBackground@@IAEXIVCPoint@@@Z 00443b60 f   InputWndBackground.obj
 0001:00042bb0       ?OnMouseMove@CInputWndBackground@@IAEXIVCPoint@@@Z 00443bb0 f   InputWndBackground.obj
 0001:00042c40       ?PostNcDestroy@CInputWndBackground@@MAEXXZ 00443c40 f   InputWndBackground.obj
 0001:00042d40       ?WindowProc@CInputWndBackground@@MAEJIIJ@Z 00443d40 f   InputWndBackground.obj
 0001:00042db0       ?OnDestroy@CInputWndBackground@@IAEXXZ 00443db0 f   InputWndBackground.obj
 0001:00042dd0       ??0CInternationalSettingDlg@@QAE@PAVCWnd@@@Z 00443dd0 f   InternationalSettingDlg.obj
 0001:00042e70       ??_GCStatic@@UAEPAXI@Z     00443e70 f i InternationalSettingDlg.obj
 0001:00042e70       ??_ECStatic@@UAEPAXI@Z     00443e70 f i InternationalSettingDlg.obj
 0001:00042ea0       ??_GCInternationalSettingDlg@@UAEPAXI@Z 00443ea0 f i InternationalSettingDlg.obj
 0001:00042ea0       ??_ECInternationalSettingDlg@@UAEPAXI@Z 00443ea0 f i InternationalSettingDlg.obj
 0001:00042ed0       ??1CInternationalSettingDlg@@UAE@XZ 00443ed0 f i InternationalSettingDlg.obj
 0001:00042f30       ?DoDataExchange@CInternationalSettingDlg@@MAEXPAVCDataExchange@@@Z 00443f30 f   InternationalSettingDlg.obj
 0001:00042f70       ?GetMessageMap@CInternationalSettingDlg@@MBEPBUAFX_MSGMAP@@XZ 00443f70 f   InternationalSettingDlg.obj
 0001:00042f80       ?OnInitDialog@CInternationalSettingDlg@@MAEHXZ 00443f80 f   InternationalSettingDlg.obj
 0001:00043060       ?SelectFont@CInternationalSettingDlg@@AAEHAAVJWString@@AAHPBDH@Z 00444060 f   InternationalSettingDlg.obj
 0001:00043490       ?DispUpdate@CInternationalSettingDlg@@AAEXAAVJWString@@AAHAAVCStatic@@H@Z 00444490 f   InternationalSettingDlg.obj
 0001:00043650       ?OnFontMenuChoice@CInternationalSettingDlg@@IAEXXZ 00444650 f   InternationalSettingDlg.obj
 0001:000436b0       ?OnFontMenuDefault@CInternationalSettingDlg@@IAEXXZ 004446b0 f   InternationalSettingDlg.obj
 0001:00043710       ?OnFontBalloonChoice@CInternationalSettingDlg@@IAEXXZ 00444710 f   InternationalSettingDlg.obj
 0001:000437f0       ?OnFontBalloonDefault@CInternationalSettingDlg@@IAEXXZ 004447f0 f   InternationalSettingDlg.obj
 0001:000438d0       ?OnDestroy@CInternationalSettingDlg@@IAEXXZ 004448d0 f   InternationalSettingDlg.obj
 0001:000439c0       ?SetCombo@CInternationalSettingDlg@@AAEXHPBD@Z 004449c0 f   InternationalSettingDlg.obj
 0001:00043a00       ?SetPropA@CInternationalSettingDlg@@AAEXHPBD@Z 00444a00 f   InternationalSettingDlg.obj
 0001:00043a50       ?OnSelchangeDefineCharset@CInternationalSettingDlg@@IAEXXZ 00444a50 f   InternationalSettingDlg.obj
 0001:00043a60       ?OnSelchangeReadmeCharset@CInternationalSettingDlg@@IAEXXZ 00444a60 f   InternationalSettingDlg.obj
 0001:00043a70       ?OnSelchangeScriptCharset@CInternationalSettingDlg@@IAEXXZ 00444a70 f   InternationalSettingDlg.obj
 0001:00043a80       ?OnSelchangePiroCharset@CInternationalSettingDlg@@IAEXXZ 00444a80 f   InternationalSettingDlg.obj
 0001:00043a90       ?OnSelchangeMakotoCharset@CInternationalSettingDlg@@IAEXXZ 00444a90 f   InternationalSettingDlg.obj
 0001:00043aa0       ?OnSelchangeShioriCharset@CInternationalSettingDlg@@IAEXXZ 00444aa0 f   InternationalSettingDlg.obj
 0001:00043ab0       ?OnSelchangeFileCharset@CInternationalSettingDlg@@IAEXXZ 00444ab0 f   InternationalSettingDlg.obj
 0001:00043ac0       ?CreateObject@CIPMessengerSettingDlg@@SGPAVCObject@@XZ 00444ac0 f   IPMessengerSettingDlg.obj
 0001:00043b20       ?GetRuntimeClass@CIPMessengerSettingDlg@@UBEPAUCRuntimeClass@@XZ 00444b20 f   IPMessengerSettingDlg.obj
 0001:00043b30       ??0CIPMessengerSettingDlg@@QAE@PAVCWnd@@@Z 00444b30 f   IPMessengerSettingDlg.obj
 0001:00043bb0       ??_GCIPMessengerSettingDlg@@UAEPAXI@Z 00444bb0 f i IPMessengerSettingDlg.obj
 0001:00043bb0       ??_ECIPMessengerSettingDlg@@UAEPAXI@Z 00444bb0 f i IPMessengerSettingDlg.obj
 0001:00043be0       ??1CIPMessengerSettingDlg@@UAE@XZ 00444be0 f i IPMessengerSettingDlg.obj
 0001:00043c40       ?DoDataExchange@CIPMessengerSettingDlg@@MAEXPAVCDataExchange@@@Z 00444c40 f   IPMessengerSettingDlg.obj
 0001:00043c60       ?GetMessageMap@CIPMessengerSettingDlg@@MBEPBUAFX_MSGMAP@@XZ 00444c60 f   IPMessengerSettingDlg.obj
 0001:00043c70       ?OnChangeIpmsgport@CIPMessengerSettingDlg@@IAEXXZ 00444c70 f   IPMessengerSettingDlg.obj
 0001:00043d40       ?OnIpmessenger@CIPMessengerSettingDlg@@IAEXXZ 00444d40 f   IPMessengerSettingDlg.obj
 0001:00043dd0       ?OnUseDialup@CIPMessengerSettingDlg@@IAEXXZ 00444dd0 f   IPMessengerSettingDlg.obj
 0001:00043e20       ?OnBroadcastAdd@CIPMessengerSettingDlg@@IAEXXZ 00444e20 f   IPMessengerSettingDlg.obj
 0001:00043f40       ?OnBroadcastDel@CIPMessengerSettingDlg@@IAEXXZ 00444f40 f   IPMessengerSettingDlg.obj
 0001:00043f90       ?OnBroadcastInit@CIPMessengerSettingDlg@@IAEXXZ 00444f90 f   IPMessengerSettingDlg.obj
 0001:00043fc0       ?UpdateBroadcastList@CIPMessengerSettingDlg@@IAEXXZ 00444fc0 f   IPMessengerSettingDlg.obj
 0001:00044200       ?OnInitDialog@CIPMessengerSettingDlg@@MAEHXZ 00445200 f   IPMessengerSettingDlg.obj
 0001:00044330       ?UpdateEnabled@CIPMessengerSettingDlg@@QAEXH@Z 00445330 f   IPMessengerSettingDlg.obj
 0001:00044370       ?GetListSel@CIPMessengerSettingDlg@@IAEJXZ 00445370 f   IPMessengerSettingDlg.obj
 0001:000443b0       ?OnDestroy@CIPMessengerSettingDlg@@IAEXXZ 004453b0 f   IPMessengerSettingDlg.obj
 0001:000443f0       ??0CKeroWnd@@QAE@XZ        004453f0 f   KeroWnd.obj
 0001:00044460       ??_ECKeroWnd@@UAEPAXI@Z    00445460 f i KeroWnd.obj
 0001:00044460       ??_GCKeroWnd@@UAEPAXI@Z    00445460 f i KeroWnd.obj
 0001:00044490       ??1CKeroWnd@@UAE@XZ        00445490 f   KeroWnd.obj
 0001:000444f0       ?GetMessageMap@CKeroWnd@@MBEPBUAFX_MSGMAP@@XZ 004454f0 f   KeroWnd.obj
 0001:00044500       ?OnCreate@CCharBodyWnd@@IAEHPAUtagCREATESTRUCTA@@@Z 00445500 f   KeroWnd.obj
 0001:00044500       ?OnCreate@CKeroWnd@@IAEHPAUtagCREATESTRUCTA@@@Z 00445500 f   KeroWnd.obj
 0001:00044530       ?OnLButtonDblClk@CKeroWnd@@IAEXIVCPoint@@@Z 00445530 f   KeroWnd.obj
 0001:00044570       ?OnMouseMove@CKeroWnd@@IAEXIVCPoint@@@Z 00445570 f   KeroWnd.obj
 0001:000445a0       ?GetDefaultWndPosX@CKeroWnd@@UAEHAAJAAVJRect@@1AAVJPoint@@@Z 004455a0 f   KeroWnd.obj
 0001:000446b0       ?WindowProc@CKeroWnd@@MAEJIIJ@Z 004456b0 f   KeroWnd.obj
 0001:00044700       ?OnDestroy@CCharBodyWnd@@IAEXXZ 00445700 f   KeroWnd.obj
 0001:00044700       ?OnDestroy@CKeroWnd@@IAEXXZ 00445700 f   KeroWnd.obj
 0001:00044720       ?PreTranslateMessage@CCharBodyWnd@@UAEHPAUtagMSG@@@Z 00445720 f   KeroWnd.obj
 0001:00044720       ?PreTranslateMessage@CKeroWnd@@UAEHPAUtagMSG@@@Z 00445720 f   KeroWnd.obj
 0001:00044750       ?OnClose@CKeroWnd@@IAEXXZ  00445750 f   KeroWnd.obj
 0001:00044750       ?OnClose@CCharBodyWnd@@IAEXXZ 00445750 f   KeroWnd.obj
 0001:00044770       ??_ECKeroWnd@@WDM@AEPAXI@Z 00445770 f i KeroWnd.obj
 0001:00044780       ??0CLog@@QAE@PAVCWnd@@@Z   00445780 f   Log.obj
 0001:00044870       ??_ECLog@@UAEPAXI@Z        00445870 f i Log.obj
 0001:00044870       ??_GCLog@@UAEPAXI@Z        00445870 f i Log.obj
 0001:000448a0       ??1CLog@@UAE@XZ            004458a0 f i Log.obj
 0001:00044960       ?DoDataExchange@CLog@@MAEXPAVCDataExchange@@@Z 00445960 f   Log.obj
 0001:000449a0       ?GetMessageMap@CLog@@MBEPBUAFX_MSGMAP@@XZ 004459a0 f   Log.obj
 0001:000449b0       ?WindowProc@CLog@@MAEJIIJ@Z 004459b0 f   Log.obj
 0001:00044a00       ?OnTimer@CLog@@IAEXI@Z     00445a00 f   Log.obj
 0001:00044a30       ?OnInitDialog@CLog@@MAEHXZ 00445a30 f   Log.obj
 0001:00044e30       ?OnButtonSaveLog@CLog@@IAEXXZ 00445e30 f   Log.obj
 0001:00045300       ?OnButtonExecute@CLog@@IAEXXZ 00446300 f   Log.obj
 0001:00045470       ?UpdateList@CLog@@AAEXXZ   00446470 f   Log.obj
 0001:000456a0       ?OnButtonCopy@CLog@@IAEXXZ 004466a0 f   Log.obj
 0001:000457c0       ?OnButtonClear@CLog@@IAEXXZ 004467c0 f   Log.obj
 0001:000457e0       ?SelectedLineData@CLog@@AAEPAVSPLogData@@XZ 004467e0 f   Log.obj
 0001:00045840       ?OnDblclkLog@CLog@@IAEXPAUtagNMHDR@@PAJ@Z 00446840 f   Log.obj
 0001:000458e0       ?OnClickLog@CLog@@IAEXPAUtagNMHDR@@PAJ@Z 004468e0 f   Log.obj
 0001:00045980       ?OnDestroy@CLog@@IAEXXZ    00446980 f   Log.obj
 0001:00045a20       ?OnSize@CLog@@IAEXIHH@Z    00446a20 f   Log.obj
 0001:00045a60       ?AdjustListColumn@CLog@@IAEXXZ 00446a60 f   Log.obj
 0001:00045b00       ?OnChangeLogLine@CLog@@IAEXXZ 00446b00 f   Log.obj
 0001:00045d20       ?OnColumnClickList@CLog@@IAEXPAUtagNMHDR@@PAJ@Z 00446d20 f   Log.obj
 0001:00045d70       ?SortList@CLog@@AAEXI@Z    00446d70 f   Log.obj
 0001:00045de0       ?OnSelChangeType@CLog@@IAEXXZ 00446de0 f   Log.obj
 0001:00045ec0       ?SetLogManager@CLog@@QAEXPAVSPLogManagerCore@@@Z 00446ec0 f   Log.obj
 0001:00045f40       ?ChangeSelTypeControl@CLog@@AAEXXZ 00446f40 f   Log.obj
 0001:00045fd0       ?PreTranslateMessage@CLog@@UAEHPAUtagMSG@@@Z 00446fd0 f   Log.obj
 0001:00046010       ?ProcessShortcut@CLog@@IAEHI@Z 00447010 f   Log.obj
 0001:00046060       ?OnMeasureItem@CLog@@IAEXHPAUtagMEASUREITEMSTRUCT@@@Z 00447060 f   Log.obj
 0001:00046080       ?OnDrawItem@CLog@@IAEXHPAUtagDRAWITEMSTRUCT@@@Z 00447080 f   Log.obj
 0001:00046450       ?OnGetInfoTip@CLog@@IAEXPAUtagNMHDR@@PAJ@Z 00447450 f   Log.obj
 0001:00046540       ?MarkSort@CLog@@AAEXK@Z    00447540 f   Log.obj
 0001:00046610       ?OnGetMinMaxInfo@CLog@@IAEXPAUtagMINMAXINFO@@@Z 00447610 f   Log.obj
 0001:000466b0       ?OnContextMenu@CLog@@IAEXPAVCWnd@@VCPoint@@@Z 004476b0 f   Log.obj
 0001:00046720       ?ShowListContextMenu@CLog@@AAEX_N@Z 00447720 f   Log.obj
 0001:000467b0       ?GetSelectedIndex@CLog@@AAEJXZ 004477b0 f   Log.obj
 0001:00046800       ?OnCommand@CLog@@MAEHIJ@Z  00447800 f   Log.obj
 0001:000468b0       ?IsValid@SPGhostSet@@QAEHXZ 004478b0 f   MainFrm.obj
 0001:000468e0       ??1SPGhostSet@@QAE@XZ      004478e0 f   MainFrm.obj
 0001:00046980       ?CMainFrame_ZipPassword@@YAHPADIHPAX@Z 00447980 f   MainFrm.obj
 0001:000469c0       ?GetRuntimeClass@CMainFrame@@UBEPAUCRuntimeClass@@XZ 004479c0 f   MainFrm.obj
 0001:000469d0       ?GetMessageMap@CMainFrame@@MBEPBUAFX_MSGMAP@@XZ 004479d0 f   MainFrm.obj
 0001:000469e0       ??0CMainFrame@@QAE@XZ      004479e0 f   MainFrm.obj
 0001:00046c10       ??_ECMainFrame@@UAEPAXI@Z  00447c10 f i MainFrm.obj
 0001:00046c10       ??_GCMainFrame@@UAEPAXI@Z  00447c10 f i MainFrm.obj
 0001:00046c40       ??1CMainFrame@@UAE@XZ      00447c40 f   MainFrm.obj
 0001:00046d30       ?CreateMe@CMainFrame@@QAEHPBD0@Z 00447d30 f   MainFrm.obj
 0001:00046da0       ?OnCreate@CMainFrame@@IAEHPAUtagCREATESTRUCTA@@@Z 00447da0 f   MainFrm.obj
 0001:00046dd0       ?OnSSPSysMsgMainWndInitialize@CMainFrame@@AAEXXZ 00447dd0 f   MainFrm.obj
 0001:000477c0       ?OnInitAfter@CMainFrame@@IAEJIJ@Z 004487c0 f   MainFrm.obj
 0001:00047d00       ?ExitProc@CMainFrame@@IAEXXZ 00448d00 f   MainFrm.obj
 0001:00047d30       ?OnSSPSysMsgMainWndDestroy@CMainFrame@@AAEXXZ 00448d30 f   MainFrm.obj
 0001:00047fc0       ?OnDestroy@CSaveShareDlg@@IAEXXZ 00448fc0 f   MainFrm.obj
 0001:00047fc0       ?OnDestroy@CMainFrame@@IAEXXZ 00448fc0 f   MainFrm.obj
 0001:00047fc0       ?OnDestroy@CGhostAsyncTaskWnd@@IAEXXZ 00448fc0 f   MainFrm.obj
 0001:00047fd0       ?StartMainTimer@CMainFrame@@QAEXXZ 00448fd0 f   MainFrm.obj
 0001:00048000       ?StopMainTimer@CMainFrame@@QAEXXZ 00449000 f   MainFrm.obj
 0001:00048020       ?SaveBootingGhostData@CMainFrame@@QAEXPAVSPGhost@@@Z 00449020 f   MainFrm.obj
 0001:00048290       ?OnClose@CMainFrame@@IAEXXZ 00449290 f   MainFrm.obj
 0001:000482a0       ?QuitApplication@CMainFrame@@QAEXPBG@Z 004492a0 f   MainFrm.obj
 0001:000482e0       ?GhostExitProc@CMainFrame@@QAE_NPBG@Z 004492e0 f   MainFrm.obj
 0001:00048430       ?AddGhost@CMainFrame@@QAEPAVSPGhostSet@@PAVSPGhost@@PAPAGKK@Z 00449430 f   MainFrm.obj
 0001:000485c0       ?KeepMessengerBootedGhost@CMainFrame@@QAEXPAVCSakuraWnd@@@Z 004495c0 f   MainFrm.obj
 0001:00048650       ?CreateGhostWindows@CMainFrame@@IAEHPAVSPGhostSet@@@Z 00449650 f   MainFrm.obj
 0001:000486d0       ?FindSetFromGhost@CMainFrame@@QAEPAVSPGhostSet@@PAVSPGhost@@@Z 004496d0 f   MainFrm.obj
 0001:00048790       ?DeleteGhost@CMainFrame@@QAEHPAVSPGhostSet@@HH@Z 00449790 f   MainFrm.obj
 0001:00048880       ?AddOrDeleteFullSystemGhost_BootFinal@CMainFrame@@QAEXPAVSPGhostSet@@_N@Z 00449880 f   MainFrm.obj
 0001:00048970       ?OnTimer@CMainFrame@@IAEXI@Z 00449970 f   MainFrm.obj
 0001:000489f0       ?OnTimerDevice@CMainFrame@@AAEXXZ 004499f0 f   MainFrm.obj
 0001:00049000       ??0SPShioriEvent@@QAE@XZ   0044a000 f i MainFrm.obj
 0001:00049040       ?ResetAutoChangeCounter@CMainFrame@@QAEXXZ 0044a040 f   MainFrm.obj
 0001:00049060       ?OnTimerMain@CMainFrame@@AAEXXZ 0044a060 f   MainFrm.obj
 0001:00049cd0       ?ReadHeadlineSequential@CMainFrame@@AAEHPAVSPGhost@@@Z 0044acd0 f   MainFrm.obj
 0001:00049e30       ?ShowCalendar@CMainFrame@@QAEXPAUHWND__@@H@Z 0044ae30 f   MainFrm.obj
 0001:00049fa0       ?AllMinimizeToggle@CMainFrame@@QAEXXZ 0044afa0 f   MainFrm.obj
 0001:0004a0a0       ?AllMinimizeSave@CMainFrame@@QAEXJPAVSPShioriEvent@@@Z 0044b0a0 f   MainFrm.obj
 0001:0004a230       ?AllRestoreSave@CMainFrame@@QAEXPAVSPShioriEvent@@@Z 0044b230 f   MainFrm.obj
 0001:0004a2e0       ?ShowTaskTrayIcon@CMainFrame@@QAEXXZ 0044b2e0 f   MainFrm.obj
 0001:0004a3d0       ?UpdateTaskTrayIcon@CMainFrame@@QAEX_N@Z 0044b3d0 f   MainFrm.obj
 0001:0004a480       ?UpdateGhostState@CMainFrame@@IAEXJH@Z 0044b480 f   MainFrm.obj
 0001:0004a530       ?InitHistoryMenu@CMainFrame@@AAEXK@Z 0044b530 f   MainFrm.obj
 0001:0004a5d0       ?InitJumpList@CMainFrame@@AAEXXZ 0044b5d0 f   MainFrm.obj
 0001:0004a6f0       ?InitGhostMenu@CMainFrame@@AAEXH@Z 0044b6f0 f   MainFrm.obj
 0001:0004a810       ?InitBalloonMenu@CMainFrame@@AAEXH@Z 0044b810 f   MainFrm.obj
 0001:0004a8d0       ?InitHeadlineMenu@CMainFrame@@AAEXH@Z 0044b8d0 f   MainFrm.obj
 0001:0004a990       ?InitPluginMenu@CMainFrame@@AAEXH@Z 0044b990 f   MainFrm.obj
 0001:0004aa50       ?InitPluginMenuEnable@CMainFrame@@QAEXXZ 0044ba50 f   MainFrm.obj
 0001:0004aaf0       ?InitLanguageMenu@CMainFrame@@QAEXH@Z 0044baf0 f   MainFrm.obj
 0001:0004abb0       ?InitCheckMailMenu@CMainFrame@@QAEXXZ 0044bbb0 f   MainFrm.obj
 0001:0004ac50       ?CMainFrame_InitCheckMailMenu@@YAXXZ 0044bc50 f   MainFrm.obj
 0001:0004ac60       ?InitAllGhostMenu@CMainFrame@@QAEXXZ 0044bc60 f   MainFrm.obj
 0001:0004ad10       ?WindowProc@CMainFrame@@MAEJIIJ@Z 0044bd10 f   MainFrm.obj
 0001:0004b080       ?OnPowerBroadcast@CMainFrame@@IAEJIJ@Z 0044c080 f   MainFrm.obj
 0001:0004b1d0       ?OnPowerBroadcastDisplay@CMainFrame@@AAEX_N@Z 0044c1d0 f   MainFrm.obj
 0001:0004b290       ?NotifyBatteryStatus@CMainFrame@@AAEHPAVSPGhost@@_N@Z 0044c290 f   MainFrm.obj
 0001:0004b690       ?OnDeviceChangeMessage@CMainFrame@@IAEJIJ@Z 0044c690 f   MainFrm.obj
 0001:0004bc50       ??1SPDeviceInfo@@QAE@XZ    0044cc50 f i MainFrm.obj
 0001:0004bcc0       ?OnSysFuncStateNotify@CMainFrame@@IAEJIJ@Z 0044ccc0 f   MainFrm.obj
 0001:0004c0a0       ??1SPVersionInfo@@QAE@XZ   0044d0a0 f i MainFrm.obj
 0001:0004c0b0       ??1SPReg@@QAE@XZ           0044d0b0 f i MainFrm.obj
 0001:0004c0c0       ?OnSSPSysMsg@CMainFrame@@IAEJIJ@Z 0044d0c0 f   MainFrm.obj
 0001:0004c6b0       ?OnSSPSysMsgGhostClose@CMainFrame@@QAEXPAVSPGhost@@_N@Z 0044d6b0 f   MainFrm.obj
 0001:0004c900       ?OnSSPSysMsgGhostChange@CMainFrame@@QAEXJPAVCSakuraWnd@@K@Z 0044d900 f   MainFrm.obj
 0001:0004d200       ??1CMainFrameCriticalLock@@QAE@XZ 0044e200 f i MainFrm.obj
 0001:0004d210       ??0SPShioriEventResult@@QAE@ABV0@@Z 0044e210 f i MainFrm.obj
 0001:0004d250       ??1CMainFrame_IsVanishFlagControl@@QAE@XZ 0044e250 f i MainFrm.obj
 0001:0004d260       ?OnSSPSysMsgShellChange@CMainFrame@@QAEXJPAVCSakuraWnd@@K@Z 0044e260 f   MainFrm.obj
 0001:0004d600       ?OnCopyData@CMainFrame@@IAEHPAVCWnd@@PAUtagCOPYDATASTRUCT@@@Z 0044e600 f   MainFrm.obj
 0001:0004d660       ?AssociateFile@CMainFrame@@QAEXHH@Z 0044e660 f   MainFrm.obj
 0001:0004e480       ?ShowPropertyWindow@CMainFrame@@QAEXPAUHWND__@@PAG@Z 0044f480 f   MainFrm.obj
 0001:0004e5d0       ?UpdateLanguageInfo@CMainFrame@@QAEXXZ 0044f5d0 f   MainFrm.obj
 0001:0004e5f0       ?ShowHelp@CMainFrame@@QAEXPAUHWND__@@PAG@Z 0044f5f0 f   MainFrm.obj
 0001:0004e670       ?ShowGhostTimeWindow@CMainFrame@@QAEXPAUHWND__@@H@Z 0044f670 f   MainFrm.obj
 0001:0004e740       ?ShowMessengerWindow@CMainFrame@@QAEXPAUHWND__@@@Z 0044f740 f   MainFrm.obj
 0001:0004e790       ?ShowLogWindow@CMainFrame@@QAEXPAVSPLogManagerCore@@@Z 0044f790 f   MainFrm.obj
 0001:0004e850       ?ShowTimeMachineWindow@CMainFrame@@QAEXXZ 0044f850 f   MainFrm.obj
 0001:0004e900       ?ShowDictationWindow@CMainFrame@@QAEXH@Z 0044f900 f   MainFrm.obj
 0001:0004e930       ?EnableTTS@CMainFrame@@QAEXH@Z 0044f930 f   MainFrm.obj
 0001:0004e9d0       ?ReloadTTSConfig@CMainFrame@@QAEXXZ 0044f9d0 f   MainFrm.obj
 0001:0004e9f0       ?ShowExplorerWindow@CMainFrame@@QAEXPAVSPGhost@@H@Z 0044f9f0 f   MainFrm.obj
 0001:0004eab0       ?UpdateExplorerWindow@CMainFrame@@QAEXPAVCSakuraWnd@@H@Z 0044fab0 f   MainFrm.obj
 0001:0004eaf0       ?SetExplorerWindowGhost@CMainFrame@@QAEXPAVSPGhost@@@Z 0044faf0 f   MainFrm.obj
 0001:0004ec10       ?ShowTermsWindow@CMainFrame@@QAEHPAVSPShowTermsInfo@@@Z 0044fc10 f   MainFrm.obj
 0001:0004ed00       ?ShowInfoWindow@CMainFrame@@QAEXPAVSPGhost@@HIK@Z 0044fd00 f   MainFrm.obj
 0001:0004ee30       ?OnSettingChange@CMainFrame@@IAEXIPBD@Z 0044fe30 f   MainFrm.obj
 0001:0004ee70       ?OnFontChange@CMainFrame@@IAEXXZ 0044fe70 f   MainFrm.obj
 0001:0004ef10       ?BackFocusToGhost@CMainFrame@@QAEXXZ 0044ff10 f   MainFrm.obj
 0001:0004f020       ?OnTaskTray@CMainFrame@@IAEJIJ@Z 00450020 f   MainFrm.obj
 0001:0004f070       ?OnTaskTray4@CMainFrame@@IAEJIJ@Z 00450070 f   MainFrm.obj
 0001:0004f0e0       ?OnVirtualDesktop@CMainFrame@@IAEJIJ@Z 004500e0 f   MainFrm.obj
 0001:0004f1f0       ?OnAppBarMessage@CMainFrame@@IAEJIJ@Z 004501f0 f   MainFrm.obj
 0001:0004f300       ?OnQueryEndSession@CMainFrame@@IAEHXZ 00450300 f   MainFrm.obj
 0001:0004f330       ?OnEndSession@CMainFrame@@IAEXH@Z 00450330 f   MainFrm.obj
 0001:0004f3c0       ?WaitForApplicationQuit@CMainFrame@@AAEXXZ 004503c0 f   MainFrm.obj
 0001:0004f3d0       ?CheckDisplaySettingChange@CMainFrame@@QAEXXZ 004503d0 f   MainFrm.obj
 0001:0004f4b0       ?Alloc@?$JArray@G@@QAE_NK@Z 004504b0 f i MainFrm.obj
 0001:0004f5a0       ??_GSPDeviceInfo@@QAEPAXI@Z 004505a0 f i MainFrm.obj
 0001:0004f5d0       ??0CMenuCreator@@QAE@HPAVSPMenuItem@@PAUHMENU__@@H@Z 004505d0 f   MenuCreator.obj
 0001:0004f870       ??1CMenuCreator@@QAE@XZ    00450870 f   MenuCreator.obj
 0001:0004f8f0       ?Add@CMenuCreator@@QAEXPAVSPProp@@IK@Z 004508f0 f   MenuCreator.obj
 0001:0004fa70       ??0CMessageWnd@@QAE@XZ     00450a70 f   MessageWnd.obj
 0001:0004fbb0       ??_GCMessageWnd@@UAEPAXI@Z 00450bb0 f i MessageWnd.obj
 0001:0004fbb0       ??_ECMessageWnd@@UAEPAXI@Z 00450bb0 f i MessageWnd.obj
 0001:0004fbe0       ??1CMessageWnd@@UAE@XZ     00450be0 f   MessageWnd.obj
 0001:0004fc50       ?GetMessageMap@CMessageWnd@@MBEPBUAFX_MSGMAP@@XZ 00450c50 f   MessageWnd.obj
 0001:0004fc60       ?OnPaint@CMessageWnd@@IAEXXZ 00450c60 f   MessageWnd.obj
 0001:0004fca0       ?OnPrintClient@CMessageWnd@@IAEJIJ@Z 00450ca0 f   MessageWnd.obj
 0001:0004fcc0       ?ChoiceSelect@CMessageWnd@@AAEHJPAVSPBalloonString@@@Z 00450cc0 f   MessageWnd.obj
 0001:00050300       ?SetBalloonUserOffset@CMessageWnd@@AAEXAAVJPoint@@H@Z 00451300 f   MessageWnd.obj
 0001:00050400       ?OnMouseMove@CMessageWnd@@IAEXIVCPoint@@@Z 00451400 f   MessageWnd.obj
 0001:00050430       ?OnLButtonDblClk@CMessageWnd@@IAEXIVCPoint@@@Z 00451430 f   MessageWnd.obj
 0001:00050460       ?OnLButtonUp@CMessageWnd@@IAEXIVCPoint@@@Z 00451460 f   MessageWnd.obj
 0001:00050490       ?OnLButtonDown@CMessageWnd@@IAEXIVCPoint@@@Z 00451490 f   MessageWnd.obj
 0001:000504c0       ?OnRButtonUp@CMessageWnd@@IAEXIVCPoint@@@Z 004514c0 f   MessageWnd.obj
 0001:000504f0       ?SetDragMode@CMessageWnd@@AAEX_N@Z 004514f0 f   MessageWnd.obj
 0001:000505c0       ?EX_OnMouseMove@CMessageWnd@@AAEXI@Z 004515c0 f   MessageWnd.obj
 0001:000506e0       ?UpdateSelection@CMessageWnd@@AAE_NXZ 004516e0 f   MessageWnd.obj
 0001:00050a50       ?EX_OnLButtonDblClk@CMessageWnd@@AAEXI@Z 00451a50 f   MessageWnd.obj
 0001:00050b60       ?EX_OnLButtonUp@CMessageWnd@@AAEXI@Z 00451b60 f   MessageWnd.obj
 0001:00050de0       ?EX_OnLButtonDown@CMessageWnd@@AAEXI@Z 00451de0 f   MessageWnd.obj
 0001:00050ec0       ?EX_OnRButtonUp@CMessageWnd@@AAEXI@Z 00451ec0 f   MessageWnd.obj
 0001:00050f10       ?OnMouseWheel@CMessageWnd@@IAEHIFVCPoint@@@Z 00451f10 f   MessageWnd.obj
 0001:00050f70       ?OnVScroll@CMessageWnd@@IAEXIIPAVCScrollBar@@@Z 00451f70 f   MessageWnd.obj
 0001:00050fd0       ?OnCreate@CMessageWnd@@IAEHPAUtagCREATESTRUCTA@@@Z 00451fd0 f   MessageWnd.obj
 0001:00051090       ?OnGetMinMaxInfo@CMessageWnd@@IAEXPAUtagMINMAXINFO@@@Z 00452090 f   MessageWnd.obj
 0001:000510e0       ?OnTimer@CMessageWnd@@IAEXI@Z 004520e0 f   MessageWnd.obj
 0001:000511c0       ?BreakScript@CMessageWnd@@QAEXABVCPoint@@@Z 004521c0 f   MessageWnd.obj
 0001:00051310       ?EX_OnKeyDown@CMessageWnd@@QAE_NIJPAUHWND__@@@Z 00452310 f   MessageWnd.obj
 0001:00051550       ?WindowProc@CMessageWnd@@MAEJIIJ@Z 00452550 f   MessageWnd.obj
 0001:00051810       ?ExecMouseCommand@CMessageWnd@@AAEXIIABVCPoint@@_N@Z 00452810 f   MessageWnd.obj
 0001:000519a0       ?OnDestroy@CMessageWnd@@IAEXXZ 004529a0 f   MessageWnd.obj
 0001:00051a30       ?ScrollBalloonMsg@CMessageWnd@@AAEXH@Z 00452a30 f   MessageWnd.obj
 0001:00051ae0       ?CheckScroll@CMessageWnd@@AAEHABVCPoint@@@Z 00452ae0 f   MessageWnd.obj
 0001:00051b50       ?PreTranslateMessage@CMessageWnd@@UAEHPAUtagMSG@@@Z 00452b50 f   MessageWnd.obj
 0001:00051be0       ?ToolTipActivate@CMessageWnd@@AAEX_N@Z 00452be0 f   MessageWnd.obj
 0001:00051c30       ?OnNotify@CMessageWnd@@MAEHIJPAJ@Z 00452c30 f   MessageWnd.obj
 0001:00051c80       ?ToolTipDispInfo@CMessageWnd@@AAE_NAAUtagNMTTDISPINFOW@@@Z 00452c80 f   MessageWnd.obj
 0001:00051fd0       ?ShowPopupMenu@CMessageWnd@@AAEXXZ 00452fd0 f   MessageWnd.obj
 0001:00052230       ?OnSysCommand@CMessageWnd@@IAEXIJ@Z 00453230 f   MessageWnd.obj
 0001:000522a0       ?OnWindowPosChanged@CMessageWnd@@IAEXPAUtagWINDOWPOS@@@Z 004532a0 f   MessageWnd.obj
 0001:000522d0       ?Get@?$JHashData@D@@QAEPAXPBDH@Z 004532d0 f i MessageWnd.obj
 0001:00052380       ?Set@?$JHashData@D@@QAEXPBDPAXH@Z 00453380 f i MessageWnd.obj
 0001:000524e0       ?GetIndex@?$JHashData@D@@AAEHPBDH@Z 004534e0 f i MessageWnd.obj
 0001:00052580       ??0CMessengerDlg@@QAE@PAVCWnd@@@Z 00453580 f   MessengerDlg.obj
 0001:00052660       ??_ECStatusBarCtrl@@UAEPAXI@Z 00453660 f i MessengerDlg.obj
 0001:00052660       ??_GCStatusBarCtrl@@UAEPAXI@Z 00453660 f i MessengerDlg.obj
 0001:00052690       ??_GCTabCtrl@@UAEPAXI@Z    00453690 f i MessengerDlg.obj
 0001:00052690       ??_ECTabCtrl@@UAEPAXI@Z    00453690 f i MessengerDlg.obj
 0001:000526c0       ??_GCMessengerDlg@@UAEPAXI@Z 004536c0 f i MessengerDlg.obj
 0001:000526c0       ??_ECMessengerDlg@@UAEPAXI@Z 004536c0 f i MessengerDlg.obj
 0001:000526f0       ??1CMessengerDlg@@UAE@XZ   004536f0 f i MessengerDlg.obj
 0001:000527c0       ?DoDataExchange@CMessengerDlg@@MAEXPAVCDataExchange@@@Z 004537c0 f   MessengerDlg.obj
 0001:00052800       ?GetMessageMap@CMessengerDlg@@MBEPBUAFX_MSGMAP@@XZ 00453800 f   MessengerDlg.obj
 0001:00052810       ?OnInitDialog@CMessengerDlg@@MAEHXZ 00453810 f   MessengerDlg.obj
 0001:00052d80       ?OnEditCut@CMessengerDlg@@IAEXXZ 00453d80 f   MessengerDlg.obj
 0001:00052da0       ?OnEditPaste@CMessengerDlg@@IAEXXZ 00453da0 f   MessengerDlg.obj
 0001:00052dc0       ?OnEditClear@CMessengerDlg@@IAEXXZ 00453dc0 f   MessengerDlg.obj
 0001:00052de0       ?OnEditCopy@CMessengerDlg@@IAEXXZ 00453de0 f   MessengerDlg.obj
 0001:00052e00       ?OnClear@CMessengerDlg@@IAEXXZ 00453e00 f   MessengerDlg.obj
 0001:00052e10       ?GetEditText@CMessengerDlg@@AAEXAAVJWString@@@Z 00453e10 f   MessengerDlg.obj
 0001:00052e30       ?OnSend@CMessengerDlg@@IAEXXZ 00453e30 f   MessengerDlg.obj
 0001:00053120       ?SharedLock@JLockable@@UAE_NJ@Z 00454120 f i MessengerDlg.obj
 0001:00053130       ?SharedUnlock@JLockable@@UAEXXZ 00454130 f i MessengerDlg.obj
 0001:00053140       ??0JThreadLoop@@QAE@XZ     00454140 f i MessengerDlg.obj
 0001:00053190       ??1JLockable@@UAE@XZ       00454190 f i MessengerDlg.obj
 0001:00053190       ??1JDummyLockSection@@UAE@XZ 00454190 f i MessengerDlg.obj
 0001:000531a0       ??_EJLockable@@UAEPAXI@Z   004541a0 f i MessengerDlg.obj
 0001:000531a0       ??_GJLockable@@UAEPAXI@Z   004541a0 f i MessengerDlg.obj
 0001:000531d0       ??1JThreadLoop@@UAE@XZ     004541d0 f i MessengerDlg.obj
 0001:00053230       ?Start@JThreadLoop@@UAEHJ@Z 00454230 f i MessengerDlg.obj
 0001:00053250       ?Suspend@JThreadLoop@@UAEHXZ 00454250 f i MessengerDlg.obj
 0001:00053260       ?Resume@JThreadLoop@@UAEHXZ 00454260 f i MessengerDlg.obj
 0001:00053270       ?ForceResume@JThreadLoop@@UAEHXZ 00454270 f i MessengerDlg.obj
 0001:00053280       ?Exit@JThreadLoop@@UAEHXZ  00454280 f i MessengerDlg.obj
 0001:00053290       ?Sleep@JThreadLoop@@UAEHJ@Z 00454290 f i MessengerDlg.obj
 0001:000532b0       ?WaitForThreadRelease@JThreadLoop@@UAEHH@Z 004542b0 f i MessengerDlg.obj
 0001:000532d0       ?Lock@JThreadLoop@@UAE_NJ@Z 004542d0 f i MessengerDlg.obj
 0001:000532f0       ?Unlock@JThreadLoop@@UAEXXZ 004542f0 f i MessengerDlg.obj
 0001:00053300       ??_EJThreadLoop@@UAEPAXI@Z 00454300 f i MessengerDlg.obj
 0001:00053300       ??_GJThreadLoop@@UAEPAXI@Z 00454300 f i MessengerDlg.obj
 0001:00053330       ??0SPMsgSender@@QAE@XZ     00454330 f i MessengerDlg.obj
 0001:00053440       ??1SPMsgSender@@UAE@XZ     00454440 f i MessengerDlg.obj
 0001:00053570       ??_ESPMsgSender@@UAEPAXI@Z 00454570 f i MessengerDlg.obj
 0001:00053570       ??_GSPMsgSender@@UAEPAXI@Z 00454570 f i MessengerDlg.obj
 0001:000535a0       ??_GSPMsgSenderIPMessenger@@UAEPAXI@Z 004545a0 f i MessengerDlg.obj
 0001:000535a0       ??_ESPMsgSenderIPMessenger@@UAEPAXI@Z 004545a0 f i MessengerDlg.obj
 0001:000535d0       ??_ESPMsgSenderSSTP@@UAEPAXI@Z 004545d0 f i MessengerDlg.obj
 0001:000535d0       ??_GSPMsgSenderSSTP@@UAEPAXI@Z 004545d0 f i MessengerDlg.obj
 0001:00053600       ??1SPMsgSenderIPMessenger@@UAE@XZ 00454600 f i MessengerDlg.obj
 0001:00053740       ??1SPMsgSenderSSTP@@UAE@XZ 00454740 f i MessengerDlg.obj
 0001:00053880       ?OnDestroy@CMessengerDlg@@IAEXXZ 00454880 f   MessengerDlg.obj
 0001:00053980       ?OnCommand@CMessengerDlg@@MAEHIJ@Z 00454980 f   MessengerDlg.obj
 0001:000539d0       ?SetListNum@CMessengerDlg@@AAEXK@Z 004549d0 f   MessengerDlg.obj
 0001:00053a50       ?SetLogNum@CMessengerDlg@@AAEXK@Z 00454a50 f   MessengerDlg.obj
 0001:00053ad0       ?UpdateMsgListIfSelected@CMessengerDlg@@AAEXK@Z 00454ad0 f   MessengerDlg.obj
 0001:00053b00       ?UpdateMsgList@CMessengerDlg@@AAEXXZ 00454b00 f   MessengerDlg.obj
 0001:00053d60       ?UpdateUserList@CMessengerDlg@@AAEXXZ 00454d60 f   MessengerDlg.obj
 0001:00053fd0       ?UpdateEditBytes@CMessengerDlg@@AAEXXZ 00454fd0 f   MessengerDlg.obj
 0001:00054110       ?UpdateType@CMessengerDlg@@AAEXXZ 00455110 f   MessengerDlg.obj
 0001:00054170       ?GetUser@CMessengerDlg@@AAEPAVSPMessengerUser@@K@Z 00455170 f   MessengerDlg.obj
 0001:000541e0       ?GetSelUser@CMessengerDlg@@AAEPAVSPMessengerUser@@XZ 004551e0 f   MessengerDlg.obj
 0001:000541f0       ?ClearForm@CMessengerDlg@@QAEXXZ 004551f0 f   MessengerDlg.obj
 0001:00054220       ?OnClose2@CMessengerDlg@@IAEXXZ 00455220 f   MessengerDlg.obj
 0001:00054220       ?OnOK@CSSPProperty@@MAEXXZ 00455220 f   MessengerDlg.obj
 0001:00054230       ?AdjustListColumn@CMessengerDlg@@AAEXXZ 00455230 f   MessengerDlg.obj
 0001:000542a0       ?UpdateMenuState@CMessengerDlg@@AAEXPAUHMENU__@@@Z 004552a0 f   MessengerDlg.obj
 0001:000542f0       ?CMessengerDlg_UpdateUserList@@YAXXZ 004552f0 f   MessengerDlg.obj
 0001:00054310       ?CMessengerDlg_UpdateMsgList@@YAXI@Z 00455310 f   MessengerDlg.obj
 0001:00054340       ?OnMessenger@CMessengerDlg@@IAEJIJ@Z 00455340 f   MessengerDlg.obj
 0001:000543a0       ?OnTimer@CMessengerDlg@@IAEXI@Z 004553a0 f   MessengerDlg.obj
 0001:000543d0       ?OnSize@CMessengerDlg@@IAEXIHH@Z 004553d0 f   MessengerDlg.obj
 0001:00054440       ?OnChangeMessage@CMessengerDlg@@IAEXXZ 00455440 f   MessengerDlg.obj
 0001:00054450       ?OnRclickUsertab@CMessengerDlg@@IAEXPAUtagNMHDR@@PAJ@Z 00455450 f   MessengerDlg.obj
 0001:00054580       ?OnSelchangeUsertab@CMessengerDlg@@IAEXPAUtagNMHDR@@PAJ@Z 00455580 f   MessengerDlg.obj
 0001:000545d0       ?OnBnClickedTest@CMessengerDlg@@QAEXXZ 004555d0 f   MessengerDlg.obj
 0001:000546e0       ?UserCommand@CMessengerDlg@@AAE_NIJK@Z 004556e0 f   MessengerDlg.obj
 0001:00054760       ?UserDelete@CMessengerDlg@@AAEXK@Z 00455760 f   MessengerDlg.obj
 0001:000547d0       ?UserNew@CMessengerDlg@@AAEXXZ 004557d0 f   MessengerDlg.obj
 0001:000548a0       ??1CNoGhostDlg@@UAE@XZ     004558a0 f i MessengerDlg.obj
 0001:000548a0       ??1CMessengerUserDlg@@UAE@XZ 004558a0 f i MessengerDlg.obj
 0001:000548a0       ??1CMessengerSettingDlg@@UAE@XZ 004558a0 f i MessengerDlg.obj
 0001:000548a0       ??1CDialogCustom@@UAE@XZ   004558a0 f i MessengerDlg.obj
 0001:000548a0       ??1CModuleCharset@@UAE@XZ  004558a0 f i MessengerDlg.obj
 0001:000548a0       ??1CSaveShareDlg@@UAE@XZ   004558a0 f i MessengerDlg.obj
 0001:000548a0       ??1CDevPalette@@UAE@XZ     004558a0 f i MessengerDlg.obj
 0001:000548a0       ??1CExtAppDlg@@UAE@XZ      004558a0 f i MessengerDlg.obj
 0001:000548b0       ?UserProp@CMessengerDlg@@AAEXK@Z 004558b0 f   MessengerDlg.obj
 0001:00054960       ?CmdUpdateUserList@CMessengerDlg@@AAEXXZ 00455960 f   MessengerDlg.obj
 0001:000549a0       ?UserLogDel@CMessengerDlg@@AAEXK@Z 004559a0 f   MessengerDlg.obj
 0001:000549c0       ?OnGetMinMaxInfo@CMessengerDlg@@IAEXPAUtagMINMAXINFO@@@Z 004559c0 f   MessengerDlg.obj
 0001:00054a60       ?CreateObject@CMessengerSettingDlg@@SGPAVCObject@@XZ 00455a60 f   MessengerSettingDlg.obj
 0001:00054ac0       ?GetRuntimeClass@CMessengerSettingDlg@@UBEPAUCRuntimeClass@@XZ 00455ac0 f   MessengerSettingDlg.obj
 0001:00054ad0       ??0CMessengerSettingDlg@@QAE@PAVCWnd@@@Z 00455ad0 f   MessengerSettingDlg.obj
 0001:00054b00       ??_GCExtAppDlg@@UAEPAXI@Z  00455b00 f i MessengerSettingDlg.obj
 0001:00054b00       ??_ECExtAppDlg@@UAEPAXI@Z  00455b00 f i MessengerSettingDlg.obj
 0001:00054b00       ??_GCMessengerSettingDlg@@UAEPAXI@Z 00455b00 f i MessengerSettingDlg.obj
 0001:00054b00       ??_ECMessengerSettingDlg@@UAEPAXI@Z 00455b00 f i MessengerSettingDlg.obj
 0001:00054b30       ?GetMessageMap@CMessengerSettingDlg@@MBEPBUAFX_MSGMAP@@XZ 00455b30 f   MessengerSettingDlg.obj
 0001:00054b40       ?OnInitDialog@CMessengerSettingDlg@@MAEHXZ 00455b40 f   MessengerSettingDlg.obj
 0001:00054c40       ?OnChangeGroupname@CMessengerSettingDlg@@IAEXXZ 00455c40 f   MessengerSettingDlg.obj
 0001:00054d50       ?OnChangeName@CMessengerSettingDlg@@IAEXXZ 00455d50 f   MessengerSettingDlg.obj
 0001:00054e60       ?OnNotranslate@CMessengerSettingDlg@@IAEXXZ 00455e60 f   MessengerSettingDlg.obj
 0001:00054e90       ?OnAutoclear@CMessengerSettingDlg@@IAEXXZ 00455e90 f   MessengerSettingDlg.obj
 0001:00054ec0       ?OnDestroy@CExtAppDlg@@IAEXXZ 00455ec0 f   MessengerSettingDlg.obj
 0001:00054ec0       ?OnDestroy@CGhostDlg@@IAEXXZ 00455ec0 f   MessengerSettingDlg.obj
 0001:00054ec0       ?OnDestroy@CTalkDlg@@IAEXXZ 00455ec0 f   MessengerSettingDlg.obj
 0001:00054ec0       ?OnDestroy@CNetworkDlg@@IAEXXZ 00455ec0 f   MessengerSettingDlg.obj
 0001:00054ec0       ?OnDestroy@CMessengerSettingDlg@@IAEXXZ 00455ec0 f   MessengerSettingDlg.obj
 0001:00054ed0       ??0CMessengerUserDlg@@QAE@PAVCWnd@@@Z 00455ed0 f   MessengerUserDlg.obj
 0001:00054f00       ??_GCMessengerUserDlg@@UAEPAXI@Z 00455f00 f i MessengerUserDlg.obj
 0001:00054f00       ??_ECMessengerUserDlg@@UAEPAXI@Z 00455f00 f i MessengerUserDlg.obj
 0001:00054f30       ?GetMessageMap@CMessengerUserDlg@@MBEPBUAFX_MSGMAP@@XZ 00455f30 f   MessengerUserDlg.obj
 0001:00054f40       ?OnOK@CMessengerUserDlg@@MAEXXZ 00455f40 f   MessengerUserDlg.obj
 0001:000550a0       ?OnDirectip@CMessengerUserDlg@@IAEXXZ 004560a0 f   MessengerUserDlg.obj
 0001:000550d0       ?OnCancel@CMessengerUserDlg@@MAEXXZ 004560d0 f   MessengerUserDlg.obj
 0001:000550e0       ?OnInitDialog@CMessengerUserDlg@@MAEHXZ 004560e0 f   MessengerUserDlg.obj
 0001:000552c0       ?DoModal@CFolderEditDlg@@MAEHXZ 004562c0 f   MessengerUserDlg.obj
 0001:000552c0       ?DoModal@CMessengerUserDlg@@MAEHXZ 004562c0 f   MessengerUserDlg.obj
 0001:000552c0       ?DoModal@CPopAccountDlg@@MAEHXZ 004562c0 f   MessengerUserDlg.obj
 0001:000552c0       ?DoModal@CModuleCharset@@MAEHXZ 004562c0 f   MessengerUserDlg.obj
 0001:000552d0       ?DoModalExt@CMessengerUserDlg@@QAEHPAVCWnd@@@Z 004562d0 f   MessengerUserDlg.obj
 0001:00055480       ??0CModuleCharset@@QAE@PAVCWnd@@@Z 00456480 f   ModuleCharset.obj
 0001:000554b0       ??_ECModuleCharset@@UAEPAXI@Z 004564b0 f i ModuleCharset.obj
 0001:000554b0       ??_GCModuleCharset@@UAEPAXI@Z 004564b0 f i ModuleCharset.obj
 0001:000554e0       ?GetMessageMap@CModuleCharset@@MBEPBUAFX_MSGMAP@@XZ 004564e0 f   ModuleCharset.obj
 0001:000554f0       ?OnInitDialog@CModuleCharset@@MAEHXZ 004564f0 f   ModuleCharset.obj
 0001:00055620       ?CModuleCharset_SetCombo@@YAXPAUHWND__@@PBD@Z 00456620 f   ModuleCharset.obj
 0001:00055740       ?CModuleCharset_GetCombo@@YAPBUtagJGX_LOCALE_TABLE@@PAUHWND__@@@Z 00456740 f   ModuleCharset.obj
 0001:00055790       ?SetCombo@CModuleCharset@@AAEXHPBD@Z 00456790 f   ModuleCharset.obj
 0001:000557d0       ?SetPropA@CModuleCharset@@AAEXHPBD@Z 004567d0 f   ModuleCharset.obj
 0001:00055830       ?OnOK@CModuleCharset@@UAEXXZ 00456830 f   ModuleCharset.obj
 0001:00055890       ?DoModalExt@CModuleCharset@@QAEHPAVSPGhost@@PAVCWnd@@@Z 00456890 f   ModuleCharset.obj
 0001:00055ad0       ??0CMyComboBoxEx@@QAE@XZ   00456ad0 f   MyComboBoxEx.obj
 0001:00055af0       ??_ECMyComboBoxEx@@UAEPAXI@Z 00456af0 f i MyComboBoxEx.obj
 0001:00055af0       ??_GCMyComboBoxEx@@UAEPAXI@Z 00456af0 f i MyComboBoxEx.obj
 0001:00055b20       ??1CMyComboBoxEx@@UAE@XZ   00456b20 f   MyComboBoxEx.obj
 0001:00055b30       ?AddString@CMyComboBoxEx@@QAEHPBD@Z 00456b30 f   MyComboBoxEx.obj
 0001:00055b70       ?InsertString@CMyComboBoxEx@@QAEHHPBD@Z 00456b70 f   MyComboBoxEx.obj
 0001:00055ba0       ?InsertStringW@CMyComboBoxEx@@QAEHHPBG@Z 00456ba0 f   MyComboBoxEx.obj
 0001:00055be0       ?GetMessageMap@CMyComboBoxEx@@MBEPBUAFX_MSGMAP@@XZ 00456be0 f   MyComboBoxEx.obj
 0001:00055bf0       ??0CNetworkDlg@@QAE@PAVCWnd@@@Z 00456bf0 f   NetworkDlg.obj
 0001:00055cb0       ??_ECNetworkDlg@@UAEPAXI@Z 00456cb0 f i NetworkDlg.obj
 0001:00055cb0       ??_GCNetworkDlg@@UAEPAXI@Z 00456cb0 f i NetworkDlg.obj
 0001:00055ce0       ??1CNetworkDlg@@UAE@XZ     00456ce0 f i NetworkDlg.obj
 0001:00055d80       ?DoDataExchange@CNetworkDlg@@MAEXPAVCDataExchange@@@Z 00456d80 f   NetworkDlg.obj
 0001:00055e00       ?GetMessageMap@CNetworkDlg@@MBEPBUAFX_MSGMAP@@XZ 00456e00 f   NetworkDlg.obj
 0001:00055e10       ?OnInitDialog@CNetworkDlg@@MAEHXZ 00456e10 f   NetworkDlg.obj
 0001:00056280       ?OnEnableproxy@CNetworkDlg@@IAEXXZ 00457280 f   NetworkDlg.obj
 0001:000562f0       ?SetEnable@CNetworkDlg@@AAEXXZ 004572f0 f   NetworkDlg.obj
 0001:00056410       ?OnChangeProxyaddress@CNetworkDlg@@IAEXXZ 00457410 f   NetworkDlg.obj
 0001:00056530       ?OnChangeProxyport@CNetworkDlg@@IAEXXZ 00457530 f   NetworkDlg.obj
 0001:00056590       ?OnConnectionLimit@CNetworkDlg@@IAEXXZ 00457590 f   NetworkDlg.obj
 0001:000565e0       ?OnChangeConnectionLimitStart@CNetworkDlg@@IAEXPAUtagNMHDR@@PAJ@Z 004575e0 f   NetworkDlg.obj
 0001:00056670       ?OnChangeConnectionLimitStop@CNetworkDlg@@IAEXPAUtagNMHDR@@PAJ@Z 00457670 f   NetworkDlg.obj
 0001:00056700       ?OnUseSystemSetting@CNetworkDlg@@IAEXXZ 00457700 f   NetworkDlg.obj
 0001:000567a0       ?SetProxyAddr@CNetworkDlg@@AAEXXZ 004577a0 f   NetworkDlg.obj
 0001:000568a0       ?OnChangeProxyUser@CNetworkDlg@@IAEXXZ 004578a0 f   NetworkDlg.obj
 0001:000569c0       ?OnChangeProxyPass@CNetworkDlg@@IAEXXZ 004579c0 f   NetworkDlg.obj
 0001:00056ae0       ?OnConnectionAsk@CNetworkDlg@@IAEXXZ 00457ae0 f   NetworkDlg.obj
 0001:00056b30       ?OnChangeSntpDuration@CNetworkDlg@@IAEXXZ 00457b30 f   NetworkDlg.obj
 0001:00056b80       ?OnSntpAutoClick@CNetworkDlg@@IAEXXZ 00457b80 f   NetworkDlg.obj
 0001:00056c00       ?OnSntpCheck@CNetworkDlg@@IAEXXZ 00457c00 f   NetworkDlg.obj
 0001:00056c20       ?OnHttpCheck@CNetworkDlg@@IAEXXZ 00457c20 f   NetworkDlg.obj
 0001:00056c40       ?OnChangeSntpAddress@CNetworkDlg@@IAEXXZ 00457c40 f   NetworkDlg.obj
 0001:00056c90       ?OnChangeHttpAddress@CNetworkDlg@@IAEXXZ 00457c90 f   NetworkDlg.obj
 0001:00056ce0       ?OnSelchangeSntpAddress@CNetworkDlg@@IAEXXZ 00457ce0 f   NetworkDlg.obj
 0001:00056d90       ?OnSelchangeHttpAddress@CNetworkDlg@@IAEXXZ 00457d90 f   NetworkDlg.obj
 0001:00056db0       ?OnSelChangeProxyType@CNetworkDlg@@IAEXXZ 00457db0 f   NetworkDlg.obj
 0001:00056de0       ?SetProxySettingFromCombo@CNetworkDlg@@AAEXXZ 00457de0 f   NetworkDlg.obj
 0001:00056e60       ?OnSelchangeProtocol@CNetworkDlg@@IAEXXZ 00457e60 f   NetworkDlg.obj
 0001:00056eb0       ?OnSslVerify@CNetworkDlg@@IAEXXZ 00457eb0 f   NetworkDlg.obj
 0001:00056ef0       ?CreateObject@CNetworkExtDlg@@SGPAVCObject@@XZ 00457ef0 f   NetworkExtDlg.obj
 0001:00056f50       ?GetRuntimeClass@CNetworkExtDlg@@UBEPAUCRuntimeClass@@XZ 00457f50 f   NetworkExtDlg.obj
 0001:00056f60       ??0CNetworkExtDlg@@QAE@PAVCWnd@@@Z 00457f60 f   NetworkExtDlg.obj
 0001:00057010       ??_ECNetworkExtDlg@@UAEPAXI@Z 00458010 f i NetworkExtDlg.obj
 0001:00057010       ??_GCNetworkExtDlg@@UAEPAXI@Z 00458010 f i NetworkExtDlg.obj
 0001:00057040       ??1CNetworkExtDlg@@UAE@XZ  00458040 f i NetworkExtDlg.obj
 0001:000570d0       ?DoDataExchange@CNetworkExtDlg@@MAEXPAVCDataExchange@@@Z 004580d0 f   NetworkExtDlg.obj
 0001:00057120       ?GetMessageMap@CNetworkExtDlg@@MBEPBUAFX_MSGMAP@@XZ 00458120 f   NetworkExtDlg.obj
 0001:00057130       ?OnInitDialog@CNetworkExtDlg@@MAEHXZ 00458130 f   NetworkExtDlg.obj
 0001:00057430       ?OnDestroy@CNetworkExtDlg@@IAEXXZ 00458430 f   NetworkExtDlg.obj
 0001:00057480       ?OnAutoheadline@CNetworkExtDlg@@IAEXXZ 00458480 f   NetworkExtDlg.obj
 0001:00057540       ?OnChangeHeadlineInterval@CNetworkExtDlg@@IAEXXZ 00458540 f   NetworkExtDlg.obj
 0001:00057590       ?OnHeadlinePlay@CNetworkExtDlg@@IAEXXZ 00458590 f   NetworkExtDlg.obj
 0001:00057720       ?OnHeadlineNone@CNetworkExtDlg@@IAEXXZ 00458720 f   NetworkExtDlg.obj
 0001:00057750       ?OnHeadlineBrowse@CNetworkExtDlg@@IAEXXZ 00458750 f   NetworkExtDlg.obj
 0001:00057880       ?OnChangeHeadlineSoundpath@CNetworkExtDlg@@IAEXXZ 00458880 f   NetworkExtDlg.obj
 0001:00057990       ?OnSstpAdd@CNetworkExtDlg@@IAEXXZ 00458990 f   NetworkExtDlg.obj
 0001:00057ad0       ?OnSstpDel@CNetworkExtDlg@@IAEXXZ 00458ad0 f   NetworkExtDlg.obj
 0001:00057b30       ?OnSstpOnOff@CNetworkExtDlg@@IAEXXZ 00458b30 f   NetworkExtDlg.obj
 0001:00057bb0       ?OnDblclkSstpList@CNetworkExtDlg@@IAEXPAUtagNMHDR@@PAJ@Z 00458bb0 f   NetworkExtDlg.obj
 0001:00057bd0       ?OnRclickSstpList@CNetworkExtDlg@@IAEXPAUtagNMHDR@@PAJ@Z 00458bd0 f   NetworkExtDlg.obj
 0001:00057d40       ?InitSSTPList@CNetworkExtDlg@@AAEXXZ 00458d40 f   NetworkExtDlg.obj
 0001:00057f40       ?OnSelchangeGhostBoot@CNetworkExtDlg@@IAEXXZ 00458f40 f   NetworkExtDlg.obj
 0001:00057fa0       ?OnSelchangeAfterBoot@CNetworkExtDlg@@IAEXXZ 00458fa0 f   NetworkExtDlg.obj
 0001:00058180       ?OnListInstalledToFmo@CNetworkExtDlg@@IAEXXZ 00459180 f   NetworkExtDlg.obj
 0001:000581e0       ?OnChangeTmpghostMax@CNetworkExtDlg@@IAEXXZ 004591e0 f   NetworkExtDlg.obj
 0001:00058230       ?OnChangeTmpghostInterval@CNetworkExtDlg@@IAEXXZ 00459230 f   NetworkExtDlg.obj
 0001:00058280       ?StateChangeSSTP@CNetworkExtDlg@@AAEXXZ 00459280 f   NetworkExtDlg.obj
 0001:00058310       ?OnSstpLog@CNetworkExtDlg@@IAEXXZ 00459310 f   NetworkExtDlg.obj
 0001:000584a0       ?OnNoBlockChoice@CNetworkExtDlg@@IAEXXZ 004594a0 f   NetworkExtDlg.obj
 0001:000584f0       ?OnHeadlineCountManualUpdate@CNetworkExtDlg@@IAEXXZ 004594f0 f   NetworkExtDlg.obj
 0001:00058540       ?OnNoSstpTranslateEvent@CNetworkExtDlg@@IAEXXZ 00459540 f   NetworkExtDlg.obj
 0001:00058590       ??0CNoGhostDlg@@QAE@PAVCWnd@@@Z 00459590 f   NoGhostDlg.obj
 0001:000585c0       ??_GCNoGhostDlg@@UAEPAXI@Z 004595c0 f i NoGhostDlg.obj
 0001:000585c0       ??_ECNoGhostDlg@@UAEPAXI@Z 004595c0 f i NoGhostDlg.obj
 0001:000585f0       ?GetMessageMap@CNoGhostDlg@@MBEPBUAFX_MSGMAP@@XZ 004595f0 f   NoGhostDlg.obj
 0001:00058600       ?OnInitDialog@CNoGhostDlg@@MAEHXZ 00459600 f   NoGhostDlg.obj
 0001:00058620       ?DestroyWindow@CNoGhostDlg@@UAEHXZ 00459620 f   NoGhostDlg.obj
 0001:00058630       ?OnDropFiles@CNoGhostDlg@@IAEXPAUHDROP__@@@Z 00459630 f   NoGhostDlg.obj
 0001:00058790       ?UpdateNum@CNoGhostDlg@@AAEXXZ 00459790 f   NoGhostDlg.obj
 0001:000587f0       ?DoModalExt@CNoGhostDlg@@QAEHPAVCWnd@@@Z 004597f0 f   NoGhostDlg.obj
 0001:000589b0       ?OnGhostEdit@CNoGhostDlg@@IAEXXZ 004599b0 f   NoGhostDlg.obj
 0001:00058b90       ?OnBalloonEdit@CNoGhostDlg@@IAEXXZ 00459b90 f   NoGhostDlg.obj
 0001:00058d70       ?Load@CPlaySSFData@@QAE_NPBG@Z 00459d70 f   PlaySSFDlg.obj
 0001:000593e0       ?Play@CPlaySSFData@@QAEXXZ 0045a3e0 f   PlaySSFDlg.obj
 0001:00059420       ?PlayProc@CPlaySSFData@@QAEXPCH@Z 0045a420 f   PlaySSFDlg.obj
 0001:000594f0       ?PlayProcReal@CPlaySSFData@@AAEXPCH@Z 0045a4f0 f   PlaySSFDlg.obj
 0001:00059b80       ?Cancel@CPlaySSFData@@QAEXXZ 0045ab80 f   PlaySSFDlg.obj
 0001:00059bb0       ??0CPlaySSFDlg@@QAE@PAVCWnd@@@Z 0045abb0 f   PlaySSFDlg.obj
 0001:00059bf0       ??_GCPlaySSFDlg@@UAEPAXI@Z 0045abf0 f i PlaySSFDlg.obj
 0001:00059bf0       ??_ECPlaySSFDlg@@UAEPAXI@Z 0045abf0 f i PlaySSFDlg.obj
 0001:00059c20       ??1CPlaySSFDlg@@UAE@XZ     0045ac20 f   PlaySSFDlg.obj
 0001:00059d50       ?GetMessageMap@CPlaySSFDlg@@MBEPBUAFX_MSGMAP@@XZ 0045ad50 f   PlaySSFDlg.obj
 0001:00059d60       ?OnInitDialog@CPlaySSFDlg@@MAEHXZ 0045ad60 f   PlaySSFDlg.obj
 0001:00059dd0       ?CreateMe@CPlaySSFDlg@@QAE_NXZ 0045add0 f   PlaySSFDlg.obj
 0001:0005a070       ?PlaySSF@CPlaySSFDlg@@QAEXPBG@Z 0045b070 f   PlaySSFDlg.obj
 0001:0005a360       ?OnPlay@CPlaySSFDlg@@IAEXXZ 0045b360 f   PlaySSFDlg.obj
 0001:0005a380       ?OnCancel@CPlaySSFDlg@@MAEXXZ 0045b380 f   PlaySSFDlg.obj
 0001:0005a3f0       ?OnCtlColor@CPlaySSFDlg@@IAEPAUHBRUSH__@@PAVCDC@@PAVCWnd@@I@Z 0045b3f0 f   PlaySSFDlg.obj
 0001:0005a430       ?OnCreateClick@CPlaySSFDlg@@IAEXXZ 0045b430 f   PlaySSFDlg.obj
 0001:0005a470       ?OnSetCursor@CPlaySSFDlg@@IAEHPAVCWnd@@II@Z 0045b470 f   PlaySSFDlg.obj
 0001:0005a4b0       ??0?$JPtrArray@PAVSPGhost@@@@QAE@J@Z 0045b4b0 f i PlaySSFDlg.obj
 0001:0005a510       ??0?$JPtrArray@PAVCPlaySSFScript@@@@QAE@J@Z 0045b510 f i PlaySSFDlg.obj
 0001:0005a570       ?DeleteAllObject@?$JPtrArray@PAVCPlaySSFScript@@@@QAEXXZ 0045b570 f i PlaySSFDlg.obj
 0001:0005a5e0       ??_GCPlaySSFScript@@QAEPAXI@Z 0045b5e0 f i PlaySSFDlg.obj
 0001:0005a610       ??1CPlaySSFScript@@QAE@XZ  0045b610 f i PlaySSFDlg.obj
 0001:0005a660       ??0CPopAccountDlg@@QAE@PAVCWnd@@@Z 0045b660 f   PopAccountDlg.obj
 0001:0005a6d0       ??_GCPopAccountDlg@@UAEPAXI@Z 0045b6d0 f i PopAccountDlg.obj
 0001:0005a6d0       ??_ECPopAccountDlg@@UAEPAXI@Z 0045b6d0 f i PopAccountDlg.obj
 0001:0005a700       ??1CPopAccountDlg@@UAE@XZ  0045b700 f i PopAccountDlg.obj
 0001:0005a760       ?DoDataExchange@CPopAccountDlg@@MAEXPAVCDataExchange@@@Z 0045b760 f   PopAccountDlg.obj
 0001:0005a780       ?GetMessageMap@CPopAccountDlg@@MBEPBUAFX_MSGMAP@@XZ 0045b780 f   PopAccountDlg.obj
 0001:0005a790       ?OnInitDialog@CPopAccountDlg@@MAEHXZ 0045b790 f   PopAccountDlg.obj
 0001:0005a940       ?OnOK@CPopAccountDlg@@MAEXXZ 0045b940 f   PopAccountDlg.obj
 0001:0005aae0       ?OnPopPortDefault@CPopAccountDlg@@IAEXXZ 0045bae0 f   PopAccountDlg.obj
 0001:0005ab60       ?OnPopMailerBrowse@CPopAccountDlg@@IAEXXZ 0045bb60 f   PopAccountDlg.obj
 0001:0005ac10       ?CreateObject@CPopDlg@@SGPAVCObject@@XZ 0045bc10 f   PopDlg.obj
 0001:0005ac70       ?GetRuntimeClass@CPopDlg@@UBEPAUCRuntimeClass@@XZ 0045bc70 f   PopDlg.obj
 0001:0005ac80       ??0CPopDlg@@QAE@PAVCWnd@@@Z 0045bc80 f   PopDlg.obj
 0001:0005acf0       ??_GCPopDlg@@UAEPAXI@Z     0045bcf0 f i PopDlg.obj
 0001:0005acf0       ??_ECPopDlg@@UAEPAXI@Z     0045bcf0 f i PopDlg.obj
 0001:0005ad20       ??1CPopDlg@@UAE@XZ         0045bd20 f i PopDlg.obj
 0001:0005ad80       ?DoDataExchange@CPopDlg@@MAEXPAVCDataExchange@@@Z 0045bd80 f   PopDlg.obj
 0001:0005ada0       ?GetMessageMap@CPopDlg@@MBEPBUAFX_MSGMAP@@XZ 0045bda0 f   PopDlg.obj
 0001:0005adb0       ?GetListSel@CPopDlg@@QAEHXZ 0045bdb0 f   PopDlg.obj
 0001:0005adf0       ?OnInitDialog@CPopDlg@@MAEHXZ 0045bdf0 f   PopDlg.obj
 0001:0005b030       ?UpdateList@CPopDlg@@QAEXH@Z 0045c030 f   PopDlg.obj
 0001:0005b280       ?UpdateButtonState@CPopDlg@@QAEXXZ 0045c280 f   PopDlg.obj
 0001:0005b420       ?OnPopAdd@CPopDlg@@IAEXXZ  0045c420 f   PopDlg.obj
 0001:0005b5d0       ??_GSPPopAccountProfile@@UAEPAXI@Z 0045c5d0 f i PopDlg.obj
 0001:0005b5d0       ??_ESPPopAccountProfile@@UAEPAXI@Z 0045c5d0 f i PopDlg.obj
 0001:0005b600       ??1SPPopAccountProfile@@UAE@XZ 0045c600 f i PopDlg.obj
 0001:0005b690       ?OnPopModify@CPopDlg@@IAEXXZ 0045c690 f   PopDlg.obj
 0001:0005b8b0       ??0JString@@QAE@ABV0@@Z    0045c8b0 f i PopDlg.obj
 0001:0005b900       ?OnPopCopy@CPopDlg@@IAEXXZ 0045c900 f   PopDlg.obj
 0001:0005b960       ?OnPopDel@CPopDlg@@IAEXXZ  0045c960 f   PopDlg.obj
 0001:0005b9c0       ?OnFolderUp@CPopDlg@@IAEXXZ 0045c9c0 f   PopDlg.obj
 0001:0005ba00       ?OnFolderDown@CPopDlg@@IAEXXZ 0045ca00 f   PopDlg.obj
 0001:0005ba50       ?OnCheckMailHeader@CPopDlg@@IAEXXZ 0045ca50 f   PopDlg.obj
 0001:0005baa0       ?OnCheckNotifyOnlyNew@CPopDlg@@IAEXXZ 0045caa0 f   PopDlg.obj
 0001:0005baf0       ?OnCheckNotifyWhenNew@CPopDlg@@IAEXXZ 0045caf0 f   PopDlg.obj
 0001:0005bb40       ?OnPopPlay@CPopDlg@@IAEXXZ 0045cb40 f   PopDlg.obj
 0001:0005bcd0       ?OnPopNone@CPopDlg@@IAEXXZ 0045ccd0 f   PopDlg.obj
 0001:0005bd00       ?OnPopBrowse@CPopDlg@@IAEXXZ 0045cd00 f   PopDlg.obj
 0001:0005be30       ?OnChangePopSound@CPopDlg@@IAEXXZ 0045ce30 f   PopDlg.obj
 0001:0005bf40       ?OnDblclkPopList@CPopDlg@@IAEXPAUtagNMHDR@@PAJ@Z 0045cf40 f   PopDlg.obj
 0001:0005bf60       ?OnItemChangedPopList@CPopDlg@@IAEXPAUtagNMHDR@@PAJ@Z 0045cf60 f   PopDlg.obj
 0001:0005c000       ?OnDestroy@CPopDlg@@IAEXXZ 0045d000 f   PopDlg.obj
 0001:0005c020       ?GetPreTranslateShim@@YAAAVCPreTranslateShim@@XZ 0045d020 f   PreTranslateMessageProcessor.obj
 0001:0005c070       ??0CPreTranslateShim@@QAE@XZ 0045d070 f   PreTranslateMessageProcessor.obj
 0001:0005c110       ??1CPreTranslateShim@@QAE@XZ 0045d110 f   PreTranslateMessageProcessor.obj
 0001:0005c140       ?PreTranslate@CPreTranslateShim@@QAEHPAUHWND__@@AAI1AAJ@Z 0045d140 f   PreTranslateMessageProcessor.obj
 0001:0005c600       ?MultipleCancel@CPreTranslateShim@@QAEXPAUHWND__@@IIJ@Z 0045d600 f   PreTranslateMessageProcessor.obj
 0001:0005c650       ?SetMultiple@CPreTranslateShim@@QAEXPAUHWND__@@@Z 0045d650 f   PreTranslateMessageProcessor.obj
 0001:0005c780       ?ResetMultiple@CPreTranslateShim@@QAEXPAUHWND__@@@Z 0045d780 f   PreTranslateMessageProcessor.obj
 0001:0005c8e0       ??0CProgressWnd@@QAE@XZ    0045d8e0 f   ProgressWnd.obj
 0001:0005ca00       ??_GCProgressWnd@@UAEPAXI@Z 0045da00 f i ProgressWnd.obj
 0001:0005ca00       ??_ECProgressWnd@@UAEPAXI@Z 0045da00 f i ProgressWnd.obj
 0001:0005ca30       ??1CProgressWnd@@UAE@XZ    0045da30 f   ProgressWnd.obj
 0001:0005ca90       ?GetMessageMap@CProgressWnd@@MBEPBUAFX_MSGMAP@@XZ 0045da90 f   ProgressWnd.obj
 0001:0005caa0       ?CreateMe@CProgressWnd@@QAEHXZ 0045daa0 f   ProgressWnd.obj
 0001:0005ccd0       ?OnDestroy@CProgressWnd@@IAEXXZ 0045dcd0 f   ProgressWnd.obj
 0001:0005cd20       ?SetMsg@CProgressWnd@@QAEXPBG@Z 0045dd20 f   ProgressWnd.obj
 0001:0005cd50       ?OnPaint@CProgressWnd@@IAEXXZ 0045dd50 f   ProgressWnd.obj
 0001:0005cf60       ?GetMessageMap@CSakuraApp@@MBEPBUAFX_MSGMAP@@XZ 0045df60 f   sakura.obj
 0001:0005cf70       ??0CSakuraApp@@QAE@XZ      0045df70 f   sakura.obj
 0001:0005d040       ??_GCSakuraApp@@UAEPAXI@Z  0045e040 f i sakura.obj
 0001:0005d040       ??_ECSakuraApp@@UAEPAXI@Z  0045e040 f i sakura.obj
 0001:0005d070       ??_F?$JPtrArray@PAG@@QAEXXZ 0045e070 f i sakura.obj
 0001:0005d080       ??1CSakuraApp@@UAE@XZ      0045e080 f i sakura.obj
 0001:0005d130       ?Player_SPSEfpieee_handler@@YAHPAU_FPIEEE_RECORD@@@Z 0045e130 f   sakura.obj
 0001:0005d140       __matherr                  0045e140 f   sakura.obj
 0001:0005d2d0       ?InitInstance@CSakuraApp@@UAEHXZ 0045e2d0 f   sakura.obj
 0001:0005e840       ??1SPVistaExtendFsRedirectDisable@@QAE@XZ 0045f840 f i sakura.obj
 0001:0005f2f0       ?ExitInstance@CSakuraApp@@UAEHXZ 004602f0 f   sakura.obj
 0001:0005f4f0       ?RegisterSSPWindowClasses@CSakuraApp@@AAEXXZ 004604f0 f   sakura.obj
 0001:0005f620       ?CallHtmlHelp@CSakuraApp@@QAE_NPBGIK@Z 00460620 f   sakura.obj
 0001:0005f740       ?LoadSmallIcon@CSakuraApp@@QAEPAUHICON__@@I@Z 00460740 f   sakura.obj
 0001:0005f770       ?PreTranslateMessage@CSakuraApp@@UAEHPAUtagMSG@@@Z 00460770 f   sakura.obj
 0001:0005f810       ?ParseCommandLineX@CSakuraApp@@AAEXXZ 00460810 f   sakura.obj
 0001:000602b0       ?WinHelpA@CSakuraApp@@UAEXKI@Z 004612b0 f   sakura.obj
 0001:000602b0       ?WinHelpA@CMainFrame@@UAEXKI@Z 004612b0 f   sakura.obj
 0001:000602c0       ?CreateSakuraMutex@CSakuraApp@@SAXXZ 004612c0 f   sakura.obj
 0001:00060390       ?RegisterAllHotKey@CSakuraApp@@QAEXH@Z 00461390 f   sakura.obj
 0001:00060430       ?GetArgvTable@CSakuraApp@@QAEPBGG@Z 00461430 f   sakura.obj
 0001:00060490       ?GetArgvTableArray@CSakuraApp@@QAEPBV?$JPtrArray@PAG@@G@Z 00461490 f   sakura.obj
 0001:000604e0       ?OnIdle@CSakuraApp@@UAEHJ@Z 004614e0 f   sakura.obj
 0001:00060510       ?SPCreateFontIndirect@CFontExtend@@QAEHPBUtagLOGFONTW@@@Z 00461510 f   sakura.obj
 0001:00060550       ??1?$CWinThreadAdapter@VCWinApp@@@@UAE@XZ 00461550 f i sakura.obj
 0001:00060560       ??_G?$CWinThreadAdapter@VCWinApp@@@@UAEPAXI@Z 00461560 f i sakura.obj
 0001:00060560       ??_E?$CWinThreadAdapter@VCWinApp@@@@UAEPAXI@Z 00461560 f i sakura.obj
 0001:000605d0       ??0CSakuraDropTarget@@QAE@XZ 004615d0 f   SakuraDropTarget.obj
 0001:000606a0       ??_GCSakuraDropTarget@@UAEPAXI@Z 004616a0 f i SakuraDropTarget.obj
 0001:000606a0       ??_ECSakuraDropTarget@@UAEPAXI@Z 004616a0 f i SakuraDropTarget.obj
 0001:000606d0       ??1CSakuraDropTarget@@UAE@XZ 004616d0 f   SakuraDropTarget.obj
 0001:00060740       ?DragEnter@CSakuraDropTarget@@UAGJPAUIDataObject@@KU_POINTL@@PAK@Z 00461740 f   SakuraDropTarget.obj
 0001:00060810       ??1COleDataObject@@QAE@XZ  00461810 f i SakuraDropTarget.obj
 0001:00060820       ?DragOver@CSakuraDropTarget@@UAGJKU_POINTL@@PAK@Z 00461820 f   SakuraDropTarget.obj
 0001:00060870       ?DragLeave@CSakuraDropTarget@@UAGJXZ 00461870 f   SakuraDropTarget.obj
 0001:000608a0       ?Drop@CSakuraDropTarget@@UAGJPAUIDataObject@@KU_POINTL@@PAK@Z 004618a0 f   SakuraDropTarget.obj
 0001:00060970       ?OnDragEnter@CSakuraDropTarget@@AAEKPAVCOleDataObject@@KU_POINTL@@@Z 00461970 f   SakuraDropTarget.obj
 0001:00060c40       ?OnDrop@CSakuraDropTarget@@AAEHPAVCOleDataObject@@KU_POINTL@@@Z 00461c40 f   SakuraDropTarget.obj
 0001:00061350       ?RegisterGhost@CSakuraDropTarget@@QAEHPAVCWnd@@PAVSPGhost@@H@Z 00462350 f   SakuraDropTarget.obj
 0001:000613b0       ?Revoke@CSakuraDropTarget@@QAEXXZ 004623b0 f   SakuraDropTarget.obj
 0001:00061420       ??0CSakuraWnd@@QAE@XZ      00462420 f   SakuraWnd.obj
 0001:00061650       ??_ECSakuraWnd@@UAEPAXI@Z  00462650 f i SakuraWnd.obj
 0001:00061650       ??_GCSakuraWnd@@UAEPAXI@Z  00462650 f i SakuraWnd.obj
 0001:00061680       ??1CSakuraWnd@@UAE@XZ      00462680 f   SakuraWnd.obj
 0001:00061800       ?GetMessageMap@CSakuraWnd@@MBEPBUAFX_MSGMAP@@XZ 00462800 f   SakuraWnd.obj
 0001:00061810       ?OnCreate@CSakuraWnd@@IAEHPAUtagCREATESTRUCTA@@@Z 00462810 f   SakuraWnd.obj
 0001:00061950       ?InitSharedMem@CSakuraWnd@@AAEXXZ 00462950 f   SakuraWnd.obj
 0001:000619a0       ?ModifyCheck@CSakuraWnd@@AAEXXZ 004629a0 f   SakuraWnd.obj
 0001:000619e0       ?InitAtBoot@CSakuraWnd@@QAEXXZ 004629e0 f   SakuraWnd.obj
 0001:00061ae0       ?UpdateAllBindMenu@CSakuraWnd@@QAEXXZ 00462ae0 f   SakuraWnd.obj
 0001:00061b70       ?ResetTimeData@CSakuraWnd@@AAEXXZ 00462b70 f   SakuraWnd.obj
 0001:00061bd0       ?OnLButtonDblClk@CSakuraWnd@@IAEXIVCPoint@@@Z 00462bd0 f   SakuraWnd.obj
 0001:00061d90       ?OnMouseMove@CSakuraWnd@@IAEXIVCPoint@@@Z 00462d90 f   SakuraWnd.obj
 0001:00061ed0       ?ModifyPopupMenu@CSakuraWnd@@UAEXXZ 00462ed0 f   SakuraWnd.obj
 0001:000627c0       ?GetEnableState@CSakuraWnd@@AAEHXZ 004637c0 f   SakuraWnd.obj
 0001:00062810       ?ModifyPopupMenuEnableStateSakura@CSakuraWnd@@AAEX_N@Z 00463810 f   SakuraWnd.obj
 0001:00062b50       ?OnMenuExit@CSakuraWnd@@IAEXXZ 00463b50 f   SakuraWnd.obj
 0001:00062bb0       ?OnMenuExitReal@CSakuraWnd@@AAEXXZ 00463bb0 f   SakuraWnd.obj
 0001:00062bd0       ?OnMenuClose@CSakuraWnd@@IAEXXZ 00463bd0 f   SakuraWnd.obj
 0001:00062c60       ?CloseGhostProc@CSakuraWnd@@QAEXPBG_N@Z 00463c60 f   SakuraWnd.obj
 0001:00062f40       ?OnCommand@CSakuraWnd@@MAEHIJ@Z 00463f40 f   SakuraWnd.obj
 0001:000634d0       ?OnLoadBalloon@CSakuraWnd@@QAEXXZ 004644d0 f   SakuraWnd.obj
 0001:000635f0       ?OnChangeMessage@CSakuraWnd@@QAEJIJ@Z 004645f0 f   SakuraWnd.obj
 0001:00064240       ?GetDefaultWndPosX@CSakuraWnd@@UAEHAAJAAVJRect@@1AAVJPoint@@@Z 00465240 f   SakuraWnd.obj
 0001:00064280       ?TimerExec@CSakuraWnd@@QAEHK@Z 00465280 f   SakuraWnd.obj
 0001:000649e0       ?UpdateAllWndPos@CSakuraWnd@@QAEXI@Z 004659e0 f   SakuraWnd.obj
 0001:00064c00       ?GetAllCharWndCode@CSakuraWnd@@QAEXAAV?$JPtrArray@PAVCCharWndCode@@@@@Z 00465c00 f   SakuraWnd.obj
 0001:00064e50       ?UpdateWndRecommendation@CSakuraWnd@@UAEXXZ 00465e50 f   SakuraWnd.obj
 0001:00065110       ?UpdateGhostState@CSakuraWnd@@QAEXJH@Z 00466110 f   SakuraWnd.obj
 0001:000651c0       ?InitShellMenu@CSakuraWnd@@QAEXH@Z 004661c0 f   SakuraWnd.obj
 0001:000652f0       ?OnMenuSetup@CSakuraWnd@@IAEXXZ 004662f0 f   SakuraWnd.obj
 0001:00065310       ?ToggleTopMost@CSakuraWnd@@QAEXH@Z 00466310 f   SakuraWnd.obj
 0001:00065340       ?OnMenuUpdate@CSakuraWnd@@IAEXXZ 00466340 f   SakuraWnd.obj
 0001:00065370       ?OnMenuVersion@CSakuraWnd@@IAEXXZ 00466370 f   SakuraWnd.obj
 0001:00065430       ?OnMenuMinimize@CSakuraWnd@@IAEXXZ 00466430 f   SakuraWnd.obj
 0001:000654a0       ?ToggleMinimizeFromMenu@CSakuraWnd@@AAEXXZ 004664a0 f   SakuraWnd.obj
 0001:000654d0       ?ToggleMinimize@CSakuraWnd@@QAEXHPAVSPShioriEvent@@@Z 004664d0 f   SakuraWnd.obj
 0001:00065730       ?RestoreAll@CSakuraWnd@@QAEXXZ 00466730 f   SakuraWnd.obj
 0001:00065760       ?MinimizeAll@CSakuraWnd@@QAEXXZ 00466760 f   SakuraWnd.obj
 0001:000657c0       ?WindowProc@CSakuraWnd@@MAEJIIJ@Z 004667c0 f   SakuraWnd.obj
 0001:00065820       ?OnShowReadme@CSakuraWnd@@IAEJIJ@Z 00466820 f   SakuraWnd.obj
 0001:00065870       ?OnTaskTray@CSakuraWnd@@IAEJIJ@Z 00466870 f   SakuraWnd.obj
 0001:000658c0       ?OnTaskTray4@CSakuraWnd@@IAEJIJ@Z 004668c0 f   SakuraWnd.obj
 0001:00065be0       ?OnCWVirtualDesktopNotifyOverride@CSakuraWnd@@MAEHIJAAJ@Z 00466be0 f   SakuraWnd.obj
 0001:00065d40       ?OnSakuraAPI@CSakuraWnd@@IAEJIJ@Z 00466d40 f   SakuraWnd.obj
 0001:00066640       ?OnSSPSysMsg@CSakuraWnd@@IAEJIJ@Z 00467640 f   SakuraWnd.obj
 0001:000671e0       ?CreateInputBox@CSakuraWnd@@AAEHPAVSPInputWndDispInfo@@@Z 004681e0 f   SakuraWnd.obj
 0001:00067470       ?CloseInputBox@CSakuraWnd@@AAEHPAVSPInputWndDispInfo@@@Z 00468470 f   SakuraWnd.obj
 0001:00067550       ?InitHistoryMenu@CSakuraWnd@@QAEXK@Z 00468550 f   SakuraWnd.obj
 0001:00067a60       ?InitGhostMenu@CSakuraWnd@@QAEXH@Z 00468a60 f   SakuraWnd.obj
 0001:00067cb0       ?InitBalloonMenu@CSakuraWnd@@QAEXH@Z 00468cb0 f   SakuraWnd.obj
 0001:00068020       ?InitHeadlineMenu@CSakuraWnd@@QAEXH@Z 00469020 f   SakuraWnd.obj
 0001:00068170       ?InitHeadlineMenuCheck@CSakuraWnd@@QAEXH@Z 00469170 f   SakuraWnd.obj
 0001:000681e0       ?InitPluginMenu@CSakuraWnd@@QAEXH@Z 004691e0 f   SakuraWnd.obj
 0001:00068300       ?InitPluginMenuEnable@CSakuraWnd@@QAEXXZ 00469300 f   SakuraWnd.obj
 0001:000683a0       ?InitLanguageMenu@CSakuraWnd@@QAEXH@Z 004693a0 f   SakuraWnd.obj
 0001:000685c0       ?InitCheckMailMenu@CSakuraWnd@@QAEXXZ 004695c0 f   SakuraWnd.obj
 0001:00068710       ?InitScalingMenu@CSakuraWnd@@QAEXXZ 00469710 f   SakuraWnd.obj
 0001:00068870       ?InitScalingBalloonMenu@CSakuraWnd@@QAEXXZ 00469870 f   SakuraWnd.obj
 0001:00068a30       ?UpdateScalingMenuCheck@CSakuraWnd@@AAEXXZ 00469a30 f   SakuraWnd.obj
 0001:00068ab0       ?UpdateScalingBalloonMenuCheck@CSakuraWnd@@AAEXXZ 00469ab0 f   SakuraWnd.obj
 0001:00068b80       ?OnMenuScript@CSakuraWnd@@IAEXXZ 00469b80 f   SakuraWnd.obj
 0001:00068ba0       ?OnMenuResetpos@CSakuraWnd@@IAEXXZ 00469ba0 f   SakuraWnd.obj
 0001:00068d60       ?OnMenuResetBalloon@CSakuraWnd@@IAEXXZ 00469d60 f   SakuraWnd.obj
 0001:00068d70       ?OnMenuGhostinfo@CSakuraWnd@@IAEXXZ 00469d70 f   SakuraWnd.obj
 0001:00068d90       ?OnMenuGhostTerms@CSakuraWnd@@IAEXXZ 00469d90 f   SakuraWnd.obj
 0001:00068ef0       ?OnCopyData@CSakuraWnd@@IAEHPAVCWnd@@PAUtagCOPYDATASTRUCT@@@Z 00469ef0 f   SakuraWnd.obj
 0001:00068f10       ?OnCopyDataSSTP@CSakuraWnd@@QAEHPAUHWND__@@PAUtagCOPYDATASTRUCT@@H@Z 00469f10 f   SakuraWnd.obj
 0001:00069000       ?OnMenuCalendar@CSakuraWnd@@IAEXXZ 0046a000 f   SakuraWnd.obj
 0001:00069020       ?CCalendarWnd_UpdateSkinMenu@@YAXXZ 0046a020 f   SakuraWnd.obj
 0001:00069050       ?CCalendarWnd_UpdateSensorMenu@@YAXXZ 0046a050 f   SakuraWnd.obj
 0001:00069080       ?OnMenuGhosttime@CSakuraWnd@@IAEXXZ 0046a080 f   SakuraWnd.obj
 0001:000690a0       ?OnMenuIm@CSakuraWnd@@IAEXXZ 0046a0a0 f   SakuraWnd.obj
 0001:000690b0       ?OnMenuCompatibleMode@CSakuraWnd@@IAEXXZ 0046a0b0 f   SakuraWnd.obj
 0001:000690d0       ?OnMenuTalkshiori@CSakuraWnd@@IAEXXZ 0046a0d0 f   SakuraWnd.obj
 0001:00069120       ?OnMenuUninstall@CSakuraWnd@@IAEXXZ 0046a120 f   SakuraWnd.obj
 0001:00069170       ?CreateGhostWindows@CSakuraWnd@@QAEHPAVSPGhostSet@@@Z 0046a170 f   SakuraWnd.obj
 0001:000696f0       ?CreateCharacter@CSakuraWnd@@QAEHHH@Z 0046a6f0 f   SakuraWnd.obj
 0001:000698e0       ?OnDestroy@CSakuraWnd@@IAEXXZ 0046a8e0 f   SakuraWnd.obj
 0001:00069b50       ?SaveWndPos@CSakuraWnd@@QAEXXZ 0046ab50 f   SakuraWnd.obj
 0001:00069c00       ?OnMenuLeavepassive@CSakuraWnd@@IAEXXZ 0046ac00 f   SakuraWnd.obj
 0001:00069c30       ?OnMenuHelp@CSakuraWnd@@IAEXXZ 0046ac30 f   SakuraWnd.obj
 0001:00069c50       ?OnMenuPopAllcheck@CSakuraWnd@@IAEXXZ 0046ac50 f   SakuraWnd.obj
 0001:00069c80       ?GetAllCharWindow@CSakuraWnd@@QAEXAAV?$JArray@PAX@@@Z 0046ac80 f   SakuraWnd.obj
 0001:00069db0       ?GetAllInputWindow@CSakuraWnd@@QAEXAAV?$JArray@PAX@@@Z 0046adb0 f   SakuraWnd.obj
 0001:00069fd0       ?GetAllUtilityWindow@CSakuraWnd@@QAEXAAV?$JArray@PAX@@@Z 0046afd0 f   SakuraWnd.obj
 0001:0006a140       ?SetAllUtilAndInputWindowPos@CSakuraWnd@@AAEXPAUHWND__@@K@Z 0046b140 f   SakuraWnd.obj
 0001:0006a220       ?ActivateAllWindow@CSakuraWnd@@QAEXHH@Z 0046b220 f   SakuraWnd.obj
 0001:0006a2a0       ?OnClose@CSakuraWnd@@IAEXXZ 0046b2a0 f   SakuraWnd.obj
 0001:0006a2c0       ?LoadTrayIcon@CSakuraWnd@@AAEXPAVSPNotifyIconInfo@@_N@Z 0046b2c0 f   SakuraWnd.obj
 0001:0006a830       ?TrayIconTimerProc@CSakuraWnd@@AAEXXZ 0046b830 f   SakuraWnd.obj
 0001:0006a840       ?ReloadTrayIcon@CSakuraWnd@@AAEXPAVSPNotifyIconInfo@@@Z 0046b840 f   SakuraWnd.obj
 0001:0006a870       ?DestroyTrayIcon@CSakuraWnd@@AAEXXZ 0046b870 f   SakuraWnd.obj
 0001:0006a8a0       ?ShowTrayIcon@CSakuraWnd@@QAEXH@Z 0046b8a0 f   SakuraWnd.obj
 0001:0006a8d0       ?UpdateTrayIcon@CSakuraWnd@@QAEX_N@Z 0046b8d0 f   SakuraWnd.obj
 0001:0006a8f0       ?OnMenuCloseBalloon@CSakuraWnd@@IAEXXZ 0046b8f0 f   SakuraWnd.obj
 0001:0006a900       ?OnMenuExplorer@CSakuraWnd@@IAEXXZ 0046b900 f   SakuraWnd.obj
 0001:0006a920       ?OnMenuSntp@CSakuraWnd@@IAEXXZ 0046b920 f   SakuraWnd.obj
 0001:0006a960       ?OnMenuScriptLog@CSakuraWnd@@IAEXXZ 0046b960 f   SakuraWnd.obj
 0001:0006a990       ?OnMenuReloadGhost@CSakuraWnd@@IAEXXZ 0046b990 f   SakuraWnd.obj
 0001:0006a9b0       ?InitMenu@CSakuraWnd@@QAEXXZ 0046b9b0 f   SakuraWnd.obj
 0001:0006aa40       ?GetCharWnd@CSakuraWnd@@QAEPAVCCharWndCode@@K@Z 0046ba40 f   SakuraWnd.obj
 0001:0006aaa0       ?AllMenuUpdate@CSakuraWnd@@QAEXXZ 0046baa0 f   SakuraWnd.obj
 0001:0006ab90       ?OnMenuPurgeGhostCache@CSakuraWnd@@IAEXXZ 0046bb90 f   SakuraWnd.obj
 0001:0006abd0       ?OnMenuSurfaceTest@CSakuraWnd@@IAEXXZ 0046bbd0 f   SakuraWnd.obj
 0001:0006acc0       ?OnMenuBindExplorer@CSakuraWnd@@IAEXXZ 0046bcc0 f   SakuraWnd.obj
 0001:0006ad90       ?OnMenuDeveloper@CSakuraWnd@@IAEXXZ 0046bd90 f   SakuraWnd.obj
 0001:0006ae70       ?OnShowDevSerikoTree@CSakuraWnd@@QAEXXZ 0046be70 f   SakuraWnd.obj
 0001:0006af50       ?OnMenuAddressBar@CSakuraWnd@@IAEXXZ 0046bf50 f   SakuraWnd.obj
 0001:0006af70       ?OnMenuUpdateFmo@CSakuraWnd@@IAEXXZ 0046bf70 f   SakuraWnd.obj
 0001:0006af90       ?OnMenuReloadInfo@CSakuraWnd@@IAEXXZ 0046bf90 f   SakuraWnd.obj
 0001:0006afb0       ?OnMenuLangReset@CSakuraWnd@@IAEXXZ 0046bfb0 f   SakuraWnd.obj
 0001:0006afd0       ?OnMenuCharset@CSakuraWnd@@IAEXXZ 0046bfd0 f   SakuraWnd.obj
 0001:0006b040       ?OnMenuKeepTempGhost@CSakuraWnd@@IAEXXZ 0046c040 f   SakuraWnd.obj
 0001:0006b0a0       ?OnMenuSystemInfo@CSakuraWnd@@IAEXXZ 0046c0a0 f   SakuraWnd.obj
 0001:0006b290       ?HandleDrop@CSakuraWnd@@AAEHPAVSPMultiFile@@@Z 0046c290 f   SakuraWnd.obj
 0001:0006b450       ?HandleDropFile@CSakuraWnd@@AAEHPAVSPMultiFile@@@Z 0046c450 f   SakuraWnd.obj
 0001:0006b840       ?HandleDropDirectory@CSakuraWnd@@AAEHPAVSPMultiFile@@@Z 0046c840 f   SakuraWnd.obj
 0001:0006bfe0       ??_ESPPluginEvent@@UAEPAXI@Z 0046cfe0 f i SakuraWnd.obj
 0001:0006bfe0       ??_GSPPluginEvent@@UAEPAXI@Z 0046cfe0 f i SakuraWnd.obj
 0001:0006c010       ?OnMenuScalingFree@CSakuraWnd@@IAEXXZ 0046d010 f   SakuraWnd.obj
 0001:0006c090       ?OnMenuBalloonScalingFree@CSakuraWnd@@IAEXXZ 0046d090 f   SakuraWnd.obj
 0001:0006c110       ?SetScaling@CSakuraWnd@@QAEXJJ@Z 0046d110 f   SakuraWnd.obj
 0001:0006c1e0       ?SetScalingBalloon@CSakuraWnd@@QAEXJJ@Z 0046d1e0 f   SakuraWnd.obj
 0001:0006c2b0       ?OnMenuProxy@CSakuraWnd@@IAEXXZ 0046d2b0 f   SakuraWnd.obj
 0001:0006c340       ?OnMenuCheckUpdate@CSakuraWnd@@IAEXXZ 0046d340 f   SakuraWnd.obj
 0001:0006c350       ?PreTranslateMessage@CSakuraWnd@@UAEHPAUtagMSG@@@Z 0046d350 f   SakuraWnd.obj
 0001:0006c380       ?OnMenuOpenFile@CSakuraWnd@@IAEXXZ 0046d380 f   SakuraWnd.obj
 0001:0006c4b0       ?OnMenuOpenDir@CSakuraWnd@@IAEXXZ 0046d4b0 f   SakuraWnd.obj
 0001:0006c6a0       ?OnMenuSetupGhost@CSakuraWnd@@IAEXXZ 0046d6a0 f   SakuraWnd.obj
 0001:0006c770       ?OnMenuAIGraph@CSakuraWnd@@IAEXXZ 0046d770 f   SakuraWnd.obj
 0001:0006c830       ?OnMenuDictation@CSakuraWnd@@IAEXXZ 0046d830 f   SakuraWnd.obj
 0001:0006c840       ?OnMenuTTS@CSakuraWnd@@IAEXXZ 0046d840 f   SakuraWnd.obj
 0001:0006c850       ??0?$JPtrArray@PAVSPMenuTemplateItem@@@@QAE@J@Z 0046d850 f i SakuraWnd.obj
 0001:0006c8b0       ?Add@?$JArray@PAX@@QAEKK@Z 0046d8b0 f i SakuraWnd.obj
 0001:0006c9f0       ??_ECSakuraWnd@@WDM@AEPAXI@Z 0046d9f0 f i SakuraWnd.obj
 0001:0006ca00       ??0CSaveShareDlg@@QAE@PAVCWnd@@@Z 0046da00 f   SaveShare.obj
 0001:0006ca30       ??_GCSaveShareDlg@@UAEPAXI@Z 0046da30 f i SaveShare.obj
 0001:0006ca30       ??_ECSaveShareDlg@@UAEPAXI@Z 0046da30 f i SaveShare.obj
 0001:0006ca60       ?GetMessageMap@CSaveShareDlg@@MBEPBUAFX_MSGMAP@@XZ 0046da60 f   SaveShare.obj
 0001:0006ca70       ?OnInitDialog@CSaveShareDlg@@MAEHXZ 0046da70 f   SaveShare.obj
 0001:0006cac0       ?UpdateInterface@CSaveShareDlg@@AAEXXZ 0046dac0 f   SaveShare.obj
 0001:0006cce0       ?OnSaveShareType@CSaveShareDlg@@IAEHI@Z 0046dce0 f   SaveShare.obj
 0001:0006cd50       ?OnSaveShareBrowse@CSaveShareDlg@@IAEXXZ 0046dd50 f   SaveShare.obj
 0001:0006cf00       ?OnSaveShareEnable@CSaveShareDlg@@IAEXXZ 0046df00 f   SaveShare.obj
 0001:0006cf40       ?OnChangeSaveSharePath@CSaveShareDlg@@IAEXXZ 0046df40 f   SaveShare.obj
 0001:0006d040       ??0CScalingDlg@@QAE@PAVCWnd@@@Z 0046e040 f   ScalingDlg.obj
 0001:0006d130       ??_GCScalingDlg@@UAEPAXI@Z 0046e130 f i ScalingDlg.obj
 0001:0006d130       ??_ECScalingDlg@@UAEPAXI@Z 0046e130 f i ScalingDlg.obj
 0001:0006d160       ?GetMessageMap@CScalingDlg@@MBEPBUAFX_MSGMAP@@XZ 0046e160 f   ScalingDlg.obj
 0001:0006d170       ?DoModalExt@CScalingDlg@@QAEHPAVCWnd@@PAVCSakuraWnd@@H@Z 0046e170 f   ScalingDlg.obj
 0001:0006d3d0       ?ModifyTemplate@CScalingDlg@@UAEXPAVSPDlgTemplate@@@Z 0046e3d0 f   ScalingDlg.obj
 0001:0006d4a0       ?OnInitDialog@CScalingDlg@@MAEHXZ 0046e4a0 f   ScalingDlg.obj
 0001:0006d580       ?OnOK@CScalingDlg@@MAEXXZ  0046e580 f   ScalingDlg.obj
 0001:0006d750       ?OnCancel@CScalingDlg@@MAEXXZ 0046e750 f   ScalingDlg.obj
 0001:0006d760       ?OnXY@CScalingDlg@@IAEXXZ  0046e760 f   ScalingDlg.obj
 0001:0006d790       ??0CScheduleDlg@@QAE@PAVCWnd@@@Z 0046e790 f   ScheduleDlg.obj
 0001:0006d8f0       ??_GCScheduleDlg@@UAEPAXI@Z 0046e8f0 f i ScheduleDlg.obj
 0001:0006d8f0       ??_ECScheduleDlg@@UAEPAXI@Z 0046e8f0 f i ScheduleDlg.obj
 0001:0006d920       ??1CScheduleDlg@@UAE@XZ    0046e920 f i ScheduleDlg.obj
 0001:0006d9f0       ?DoDataExchange@CScheduleDlg@@MAEXPAVCDataExchange@@@Z 0046e9f0 f   ScheduleDlg.obj
 0001:0006da70       ?GetMessageMap@CScheduleDlg@@MBEPBUAFX_MSGMAP@@XZ 0046ea70 f   ScheduleDlg.obj
 0001:0006da80       ?UpdateButtonState@CScheduleDlg@@IAEXH@Z 0046ea80 f   ScheduleDlg.obj
 0001:0006dc40       ?SetUpdated@CScheduleDlg@@AAEX_N@Z 0046ec40 f   ScheduleDlg.obj
 0001:0006dca0       ?OnScheduleDelete@CScheduleDlg@@IAEXXZ 0046eca0 f   ScheduleDlg.obj
 0001:0006dda0       ?OnDatetimechangeScheduleEndtime@CScheduleDlg@@IAEXPAUtagNMHDR@@PAJ@Z 0046eda0 f   ScheduleDlg.obj
 0001:0006de50       ?OnScheduleNew@CScheduleDlg@@IAEXXZ 0046ee50 f   ScheduleDlg.obj
 0001:0006dec0       ?OnScheduleTimeEnable@CScheduleDlg@@IAEXXZ 0046eec0 f   ScheduleDlg.obj
 0001:0006df30       ?OnScheduleTimeEndEnable@CScheduleDlg@@IAEXXZ 0046ef30 f   ScheduleDlg.obj
 0001:0006df60       ?OnDatetimechangeScheduleTime@CScheduleDlg@@IAEXPAUtagNMHDR@@PAJ@Z 0046ef60 f   ScheduleDlg.obj
 0001:0006dfe0       ?OnSelchangeScheduleType@CScheduleDlg@@IAEXXZ 0046efe0 f   ScheduleDlg.obj
 0001:0006e070       ?OnInitDialog@CScheduleDlg@@MAEHXZ 0046f070 f   ScheduleDlg.obj
 0001:0006e560       ?UpdateList@CScheduleDlg@@IAEXXZ 0046f560 f   ScheduleDlg.obj
 0001:0006e720       ?InitControls@CScheduleDlg@@IAEXXZ 0046f720 f   ScheduleDlg.obj
 0001:0006eac0       ?ClearControls@CScheduleDlg@@IAEXXZ 0046fac0 f   ScheduleDlg.obj
 0001:0006ec10       ?OnScheduleUpdate@CScheduleDlg@@IAEXXZ 0046fc10 f   ScheduleDlg.obj
 0001:0006f090       ?OnSelchangeScheduleList@CScheduleDlg@@IAEXPAUtagNMHDR@@PAJ@Z 00470090 f   ScheduleDlg.obj
 0001:0006f130       ?OnSoundBrowse@CScheduleDlg@@IAEXXZ 00470130 f   ScheduleDlg.obj
 0001:0006f260       ?OnSchedulepost@CScheduleDlg@@IAEXXZ 00470260 f   ScheduleDlg.obj
 0001:0006f2c0       ?OnDestroy@CScheduleDlg@@IAEXXZ 004702c0 f   ScheduleDlg.obj
 0001:0006f310       ?OnCommand@CScheduleDlg@@MAEHIJ@Z 00470310 f   ScheduleDlg.obj
 0001:0006f340       ?OnRepFromToday@CScheduleDlg@@IAEXXZ 00470340 f   ScheduleDlg.obj
 0001:0006f450       ?OnCtlColor@CScheduleDlg@@IAEPAUHBRUSH__@@PAVCDC@@PAVCWnd@@I@Z 00470450 f   ScheduleDlg.obj
 0001:0006f490       ?OnChangeRadioButton@CScheduleDlg@@IAEXXZ 00470490 f   ScheduleDlg.obj
 0001:0006f490       ?OnChangeEditBox@CScheduleDlg@@IAEXXZ 00470490 f   ScheduleDlg.obj
 0001:0006f4f0       ?CreateObject@CSetupDefDlg@@SGPAVCObject@@XZ 004704f0 f   SetupDefDlg.obj
 0001:0006f550       ?GetRuntimeClass@CSetupDefDlg@@UBEPAUCRuntimeClass@@XZ 00470550 f   SetupDefDlg.obj
 0001:0006f560       ??0CSetupDefDlg@@QAE@PAVCWnd@@@Z 00470560 f   SetupDefDlg.obj
 0001:0006f5e0       ??_GCSetupDefDlg@@UAEPAXI@Z 004705e0 f i SetupDefDlg.obj
 0001:0006f5e0       ??_ECSetupDefDlg@@UAEPAXI@Z 004705e0 f i SetupDefDlg.obj
 0001:0006f610       ??1CSetupDefDlg@@UAE@XZ    00470610 f i SetupDefDlg.obj
 0001:0006f670       ?DoDataExchange@CSetupDefDlg@@MAEXPAVCDataExchange@@@Z 00470670 f   SetupDefDlg.obj
 0001:0006f690       ?GetMessageMap@CSetupDefDlg@@MBEPBUAFX_MSGMAP@@XZ 00470690 f   SetupDefDlg.obj
 0001:0006f6a0       ?OnInitDialog@CSetupDefDlg@@MAEHXZ 004706a0 f   SetupDefDlg.obj
 0001:0006f980       ?OnDestroy@CSetupDefDlg@@IAEXXZ 00470980 f   SetupDefDlg.obj
 0001:0006fa90       ?OnAssociatefile@CSetupDefDlg@@IAEXXZ 00470a90 f   SetupDefDlg.obj
 0001:0006fb10       ?OnIgnoreUninstallHide@CSetupDefDlg@@IAEXXZ 00470b10 f   SetupDefDlg.obj
 0001:0006fb60       ?OnDevFuncEnable@CSetupDefDlg@@IAEXXZ 00470b60 f   SetupDefDlg.obj
 0001:0006fdb0       ?OnShowIconAlways@CSetupDefDlg@@IAEXXZ 00470db0 f   SetupDefDlg.obj
 0001:0006fe00       ?OnChangeFirstname@CSetupDefDlg@@IAEXXZ 00470e00 f   SetupDefDlg.obj
 0001:0006fee0       ?OnChangeCallname@CSetupDefDlg@@IAEXXZ 00470ee0 f   SetupDefDlg.obj
 0001:0006ffc0       ?OnChangeBirthday@CSetupDefDlg@@IAEXPAUtagNMHDR@@PAJ@Z 00470fc0 f   SetupDefDlg.obj
 0001:00070070       ?OnSexChoice@CSetupDefDlg@@IAEXXZ 00471070 f   SetupDefDlg.obj
 0001:000700d0       ?OnStrictWait@CSetupDefDlg@@IAEXXZ 004710d0 f   SetupDefDlg.obj
 0001:00070120       ?OnPriorityDown@CSetupDefDlg@@IAEXXZ 00471120 f   SetupDefDlg.obj
 0001:000701f0       ?OnInstallReadme@CSetupDefDlg@@IAEXXZ 004711f0 f   SetupDefDlg.obj
 0001:00070220       ?OnSelfUpdateAuto@CSetupDefDlg@@IAEXXZ 00471220 f   SetupDefDlg.obj
 0001:00070280       ?OnRegisterHotkey@CSetupDefDlg@@IAEXXZ 00471280 f   SetupDefDlg.obj
 0001:000702c0       ?OnShowStatus@CSetupDefDlg@@IAEXXZ 004712c0 f   SetupDefDlg.obj
 0001:00070310       ?OnTabChoice@CSetupDefDlg@@IAEXXZ 00471310 f   SetupDefDlg.obj
 0001:00070360       ?OnSensorChoice@CSetupDefDlg@@IAEXXZ 00471360 f   SetupDefDlg.obj
 0001:000703b0       ?OnVirusCheck@CSetupDefDlg@@IAEXXZ 004713b0 f   SetupDefDlg.obj
 0001:00070450       ??0CSimpleMenu@@QAE@XZ     00471450 f   SimpleMenu.obj
 0001:00070490       ?Release@CSimpleMenu@@QAEXXZ 00471490 f   SimpleMenu.obj
 0001:000704b0       ?LoadID@CSimpleMenu@@QAEPAUHMENU__@@K@Z 004714b0 f   SimpleMenu.obj
 0001:00070630       ?CreatePopup@CSimpleMenu@@QAEPAUHMENU__@@XZ 00471630 f   SimpleMenu.obj
 0001:00070650       ?BeforeTrackPopup@CSimpleMenu@@QBEXPAUHWND__@@@Z 00471650 f   SimpleMenu.obj
 0001:000706f0       ?TrackPopup@CSimpleMenu@@QBEHIHHPAUHWND__@@@Z 004716f0 f   SimpleMenu.obj
 0001:00070750       ?AttachSub@CSimpleMenu@@QAEPAUHMENU__@@H@Z 00471750 f   SimpleMenu.obj
 0001:00070780       ?GetSub@CSimpleMenu@@QBEPAUHMENU__@@H@Z 00471780 f   SimpleMenu.obj
 0001:000707a0       ?GetSubFromRoot@CSimpleMenu@@QBEPAUHMENU__@@H@Z 004717a0 f   SimpleMenu.obj
 0001:000707c0       ?Attach@CSimpleMenu@@QAEXPAUHMENU__@@@Z 004717c0 f   SimpleMenu.obj
 0001:000707e0       ?Detach@CSimpleMenu@@QAEXXZ 004717e0 f   SimpleMenu.obj
 0001:000707f0       ??0CSSPProperty@@QAE@PAVCWnd@@@Z 004717f0 f   SSPProperty.obj
 0001:00070c90       ??_ECSSPProperty@@UAEPAXI@Z 00471c90 f i SSPProperty.obj
 0001:00070c90       ??_GCSSPProperty@@UAEPAXI@Z 00471c90 f i SSPProperty.obj
 0001:00070cc0       ??1CSSPProperty@@UAE@XZ    00471cc0 f   SSPProperty.obj
 0001:00070de0       ??1CSSPPropertyData@@QAE@XZ 00471de0 f i SSPProperty.obj
 0001:00070ee0       ?DoDataExchange@CSSPProperty@@MAEXPAVCDataExchange@@@Z 00471ee0 f   SSPProperty.obj
 0001:00070f20       ?GetMessageMap@CSSPProperty@@MBEPBUAFX_MSGMAP@@XZ 00471f20 f   SSPProperty.obj
 0001:00070f30       ?OnInitDialog@CSSPProperty@@MAEHXZ 00471f30 f   SSPProperty.obj
 0001:000710c0       ?OnDestroy@CSSPProperty@@IAEXXZ 004720c0 f   SSPProperty.obj
 0001:00071130       ?OnHelp@CSSPProperty@@IAEXXZ 00472130 f   SSPProperty.obj
 0001:00071150       ?HelpFileExec@CSSPProperty@@QAEXXZ 00472150 f   SSPProperty.obj
 0001:000711a0       ?HelpFileExecType@CSSPProperty@@QAEXPBG@Z 004721a0 f   SSPProperty.obj
 0001:00071200       ?OnItemChangedSheets@CSSPProperty@@IAEXPAUtagNMHDR@@PAJ@Z 00472200 f   SSPProperty.obj
 0001:00071270       ?AddPageData@CSSPProperty@@AAEXPAVCDialogCustom@@IPBG1@Z 00472270 f   SSPProperty.obj
 0001:000714b0       ?InitPropertyPages@CSSPProperty@@AAEXXZ 004724b0 f   SSPProperty.obj
 0001:00071510       ?LoadTemplate@CSSPPropertyData@@QAEXXZ 00472510 f i SSPProperty.obj
 0001:00071600       ?UpdatePagesList@CSSPProperty@@AAEXXZ 00472600 f   SSPProperty.obj
 0001:00071760       ?ReleasePropertyPages@CSSPProperty@@AAEXXZ 00472760 f   SSPProperty.obj
 0001:000717e0       ?SelectPageFromType@CSSPProperty@@QAEXPBG@Z 004727e0 f   SSPProperty.obj
 0001:00071820       ?GetPageFromType@CSSPProperty@@AAEJPBG@Z 00472820 f   SSPProperty.obj
 0001:00071880       ?SelectPage@CSSPProperty@@AAEXI_N@Z 00472880 f   SSPProperty.obj
 0001:00071a10       ?OnSize@CSSPProperty@@IAEXIHH@Z 00472a10 f   SSPProperty.obj
 0001:00071a30       ?OnCtlColor@CSSPProperty@@IAEPAUHBRUSH__@@PAVCDC@@PAVCWnd@@I@Z 00472a30 f   SSPProperty.obj
 0001:00071a90       ?GetDlgCtrlText@CSSPProperty@@AAEPAGPBGH@Z 00472a90 f   SSPProperty.obj
 0001:00073270       ?OnHelpInfo@CSSPProperty@@IAEHPAUtagHELPINFO@@@Z 00474270 f   SSPProperty.obj
 0001:00073440       ?WindowProc@CSSPProperty@@MAEJIIJ@Z 00474440 f   SSPProperty.obj
 0001:000734c0       ??0CStatusWnd@@QAE@XZ      004744c0 f   StatusWnd.obj
 0001:000734f0       ??_ECStatusWnd@@UAEPAXI@Z  004744f0 f i StatusWnd.obj
 0001:000734f0       ??_GCStatusWnd@@UAEPAXI@Z  004744f0 f i StatusWnd.obj
 0001:00073520       ??1CStatusWnd@@UAE@XZ      00474520 f   StatusWnd.obj
 0001:00073530       ?GetMessageMap@CStatusWnd@@MBEPBUAFX_MSGMAP@@XZ 00474530 f   StatusWnd.obj
 0001:00073540       ?CreateMe@CStatusWnd@@QAEHXZ 00474540 f   StatusWnd.obj
 0001:00073630       ?OnDestroy@CStatusWnd@@IAEXXZ 00474630 f   StatusWnd.obj
 0001:000736a0       ?OnPaint@CStatusWnd@@IAEXXZ 004746a0 f   StatusWnd.obj
 0001:000736c0       ?WindowProc@CStatusWnd@@MAEJIIJ@Z 004746c0 f   StatusWnd.obj
 0001:00073700       ?Update@CStatusWnd@@QAEX_N@Z 00474700 f   StatusWnd.obj
 0001:00073790       ?DrawWindow@CStatusWnd@@QAEXPAVJSurface@@@Z 00474790 f   StatusWnd.obj
 0001:00073a20       ?SetPos@CStatusWnd@@QAEXXZ 00474a20 f   StatusWnd.obj
 0001:00073ab0       ?Show@CStatusWnd@@QAEXXZ   00474ab0 f   StatusWnd.obj
 0001:00073b50       ?OnTimer@CStatusWnd@@IAEXI@Z 00474b50 f   StatusWnd.obj
 0001:00073c60       ?OnShowWindow@CStatusWnd@@IAEXHI@Z 00474c60 f   StatusWnd.obj
 0001:00073c60       ?OnShowWindow@CProgressWnd@@IAEXHI@Z 00474c60 f   StatusWnd.obj
 0001:00073c80       ?WinExFlag@@YAKK@Z         00474c80 f   StdAfx.obj
 0001:00073cc0       ??0CStdInput@@QAE@PAVCWnd@@@Z 00474cc0 f   StdInput.obj
 0001:00073df0       ??_GCStdInput@@UAEPAXI@Z   00474df0 f i StdInput.obj
 0001:00073df0       ??_ECStdInput@@UAEPAXI@Z   00474df0 f i StdInput.obj
 0001:00073e20       ?DoModalExt@CStdInput@@QAEHPAUHWND__@@@Z 00474e20 f   StdInput.obj
 0001:00073e40       ?DoModalExt@CStdInput@@QAEHPAVCWnd@@@Z 00474e40 f   StdInput.obj
 0001:00073e50       ?GetMessageMap@CStdInput@@MBEPBUAFX_MSGMAP@@XZ 00474e50 f   StdInput.obj
 0001:00073e60       ?OnOK@CStdInput@@MAEXXZ    00474e60 f   StdInput.obj
 0001:00073e90       ?OnCancel@CStdInput@@MAEXXZ 00474e90 f   StdInput.obj
 0001:00073eb0       ?OnInitDialog@CStdInput@@MAEHXZ 00474eb0 f   StdInput.obj
 0001:00073f40       ?SetMessage@CStdInput@@QAEXPBGH0_N@Z 00474f40 f   StdInput.obj
 0001:00073f80       ?SetMessage@CStdInput@@QAEXPBG00_N@Z 00474f80 f   StdInput.obj
 0001:00073ff0       ?GetText@CStdInput@@QAEPBGXZ 00474ff0 f   StdInput.obj
 0001:00074000       ?GetNum@CStdInput@@QAEHXZ  00475000 f   StdInput.obj
 0001:00074080       ?GetSubWindowList@@YAAAVCSubWindowList@@XZ 00475080 f   SubWindowList.obj
 0001:000740d0       ??0CSubWindowList@@QAE@XZ  004750d0 f   SubWindowList.obj
 0001:00074130       ??_ECSubWindowList@@UAEPAXI@Z 00475130 f i SubWindowList.obj
 0001:00074130       ??_GCSubWindowList@@UAEPAXI@Z 00475130 f i SubWindowList.obj
 0001:00074160       ??1CSubWindowList@@UAE@XZ  00475160 f   SubWindowList.obj
 0001:000741e0       ?AddWindow@CSubWindowList@@QAEXPAVCWnd@@K@Z 004751e0 f   SubWindowList.obj
 0001:00074300       ?DeleteWindow@CSubWindowList@@QAEXPAVCWnd@@@Z 00475300 f   SubWindowList.obj
 0001:00074450       ?CheckWindowIsInWorkrect@CSubWindowList@@QAEXXZ 00475450 f   SubWindowList.obj
 0001:00074590       ?ActivateWindow@CSubWindowList@@QAEXKPAUHWND__@@@Z 00475590 f   SubWindowList.obj
 0001:00074600       ??0CSurfaceTest@@QAE@PAVCWnd@@@Z 00475600 f   SurfaceTest.obj
 0001:00074760       ??_GCListBox@@UAEPAXI@Z    00475760 f i SurfaceTest.obj
 0001:00074760       ??_ECListBox@@UAEPAXI@Z    00475760 f i SurfaceTest.obj
 0001:00074790       ??_GCSurfaceTest@@UAEPAXI@Z 00475790 f i SurfaceTest.obj
 0001:00074790       ??_ECSurfaceTest@@UAEPAXI@Z 00475790 f i SurfaceTest.obj
 0001:000747c0       ??1CSurfaceTest@@UAE@XZ    004757c0 f i SurfaceTest.obj
 0001:000748e0       ?DoDataExchange@CSurfaceTest@@MAEXPAVCDataExchange@@@Z 004758e0 f   SurfaceTest.obj
 0001:00074940       ?GetMessageMap@CSurfaceTest@@MBEPBUAFX_MSGMAP@@XZ 00475940 f   SurfaceTest.obj
 0001:00074950       ?OnSelchangeSurface@CSurfaceTest@@IAEXXZ 00475950 f   SurfaceTest.obj
 0001:00074980       ?OnInitDialog@CSurfaceTest@@MAEHXZ 00475980 f   SurfaceTest.obj
 0001:00074db0       ?SetGhost@CSurfaceTest@@QAEXPAVSPGhost@@@Z 00475db0 f   SurfaceTest.obj
 0001:00074dc0       ?OnDestroy@CSurfaceTest@@IAEXXZ 00475dc0 f   SurfaceTest.obj
 0001:00074ea0       ??1SPSurfaceTestManager@@QAE@XZ 00475ea0 f i SurfaceTest.obj
 0001:00074f00       ?OnClose@CSurfaceTest@@IAEXXZ 00475f00 f   SurfaceTest.obj
 0001:00074f00       ?OnCancel@CSurfaceTest@@MAEXXZ 00475f00 f   SurfaceTest.obj
 0001:00074f30       ?OnSelchangeChar@CSurfaceTest@@IAEXXZ 00475f30 f   SurfaceTest.obj
 0001:00074f40       ?OnSelchangeAnimID@CSurfaceTest@@IAEXXZ 00475f40 f   SurfaceTest.obj
 0001:00074f70       ?OnSurfacetestExec@CSurfaceTest@@IAEXXZ 00475f70 f   SurfaceTest.obj
 0001:00074f80       ?SelChange@CSurfaceTest@@IAEX_N@Z 00475f80 f   SurfaceTest.obj
 0001:000754a0       ?ListSerikoID@CSurfaceTest@@IAEX_N@Z 004764a0 f   SurfaceTest.obj
 0001:000760e0       ??1CSurfaceTestNameCache@@QAE@XZ 004770e0 f i SurfaceTest.obj
 0001:00076130       ?ListAnimID@CSurfaceTest@@IAEXXZ 00477130 f   SurfaceTest.obj
 0001:000768f0       ?OnSize@CSurfaceTest@@IAEXIHH@Z 004778f0 f   SurfaceTest.obj
 0001:00076930       ?OnScript@CSurfaceTest@@IAEXXZ 00477930 f   SurfaceTest.obj
 0001:00076980       ?OnCopy@CSurfaceTest@@IAEXXZ 00477980 f   SurfaceTest.obj
 0001:000769c0       ?OnSort@CSurfaceTest@@IAEXXZ 004779c0 f   SurfaceTest.obj
 0001:00076a10       ?OnGetMinMaxInfo@CSurfaceTest@@IAEXPAUtagMINMAXINFO@@@Z 00477a10 f   SurfaceTest.obj
 0001:00076ab0       ?WindowProc@CSurfaceTest@@MAEJIIJ@Z 00477ab0 f   SurfaceTest.obj
 0001:00076c20       ?OnSurfaceTestMenu@CSurfaceTest@@IAEXXZ 00477c20 f   SurfaceTest.obj
 0001:00076ef0       ?MultipleChange@CSurfaceTest@@IAEX_N@Z 00477ef0 f   SurfaceTest.obj
 0001:00077040       ??0?$JPtrArray@PAVSPSurfaceTestData@@@@QAE@J@Z 00478040 f i SurfaceTest.obj
 0001:000770a0       ?Realloc@?$JArray@K@@QAE_NK@Z 004780a0 f i SurfaceTest.obj
 0001:000770a0       ?Realloc@?$JArray@PAX@@QAE_NK@Z 004780a0 f i SurfaceTest.obj
 0001:000770a0       ?Realloc@?$JArray@J@@QAE_NK@Z 004780a0 f i SurfaceTest.obj
 0001:000770a0       ?Realloc@?$JArray@H@@QAE_NK@Z 004780a0 f i SurfaceTest.obj
 0001:00077180       ?_Sort_0@std@@YAXPAVCSurfaceTestBaseList@@0U?$JArray_PredConverterRev@VCSurfaceTestBaseList@@P6AHABV1@0PAX@Z@@0@Z 00478180 f i SurfaceTest.obj
 0001:00077510       ?_Sort_0@std@@YAXPAVCSurfaceTestBaseList@@0U?$JArray_PredConverter@VCSurfaceTestBaseList@@P6AHABV1@0PAX@Z@@0@Z 00478510 f i SurfaceTest.obj
 0001:000778a0       ?_Sort@std@@YAXPAVCSurfaceTestBaseList@@0U?$JArray_PredConverterRev@VCSurfaceTestBaseList@@P6AHABV1@0PAX@Z@@0@Z 004788a0 f i SurfaceTest.obj
 0001:00077a50       ?_Sort@std@@YAXPAVCSurfaceTestBaseList@@0U?$JArray_PredConverter@VCSurfaceTestBaseList@@P6AHABV1@0PAX@Z@@0@Z 00478a50 f i SurfaceTest.obj
 0001:00077c00       ??R?$JArray_PredConverterRev@VCSurfaceTestBaseList@@P6AHABV1@0PAX@Z@@QBE_NABVCSurfaceTestBaseList@@0@Z 00478c00 f i SurfaceTest.obj
 0001:00077c30       ??R?$JArray_PredConverter@VCSurfaceTestBaseList@@P6AHABV1@0PAX@Z@@QBE_NABVCSurfaceTestBaseList@@0@Z 00478c30 f i SurfaceTest.obj
 0001:00077c60       ?_Unguarded_partition@std@@YAPAVCSurfaceTestBaseList@@PAV2@0V2@U?$JArray_PredConverterRev@VCSurfaceTestBaseList@@P6AHABV1@0PAX@Z@@@Z 00478c60 f i SurfaceTest.obj
 0001:00077cf0       ?_Unguarded_partition@std@@YAPAVCSurfaceTestBaseList@@PAV2@0V2@U?$JArray_PredConverter@VCSurfaceTestBaseList@@P6AHABV1@0PAX@Z@@@Z 00478cf0 f i SurfaceTest.obj
 0001:00077d80       ?CreateObject@CTalkDlg@@SGPAVCObject@@XZ 00478d80 f   TalkDlg.obj
 0001:00077de0       ?GetRuntimeClass@CTalkDlg@@UBEPAUCRuntimeClass@@XZ 00478de0 f   TalkDlg.obj
 0001:00077df0       ??0CTalkDlg@@QAE@PAVCWnd@@@Z 00478df0 f   TalkDlg.obj
 0001:00077ee0       ??_GCTalkDlg@@UAEPAXI@Z    00478ee0 f i TalkDlg.obj
 0001:00077ee0       ??_ECTalkDlg@@UAEPAXI@Z    00478ee0 f i TalkDlg.obj
 0001:00077f10       ??1CTalkDlg@@UAE@XZ        00478f10 f i TalkDlg.obj
 0001:00077fc0       ?DoDataExchange@CTalkDlg@@MAEXPAVCDataExchange@@@Z 00478fc0 f   TalkDlg.obj
 0001:00078050       ?GetMessageMap@CTalkDlg@@MBEPBUAFX_MSGMAP@@XZ 00479050 f   TalkDlg.obj
 0001:00078060       ?OnInitDialog@CTalkDlg@@MAEHXZ 00479060 f   TalkDlg.obj
 0001:00078460       ?InitTimeoutSlider@CTalkDlg@@AAEXAAVCSliderCtrl@@H@Z 00479460 f   TalkDlg.obj
 0001:000784c0       ?ReinitSlider@CTalkDlg@@AAEXAAVCSliderCtrl@@@Z 004794c0 f   TalkDlg.obj
 0001:00078560       ?OnHScroll@CTalkDlg@@IAEXIIPAVCScrollBar@@@Z 00479560 f   TalkDlg.obj
 0001:000786e0       ?OnTalkNews@CTalkDlg@@IAEXXZ 004796e0 f   TalkDlg.obj
 0001:00078730       ?OnChangeLeftdcSetting@CTalkDlg@@IAEXXZ 00479730 f   TalkDlg.obj
 0001:00078770       ?OnChangeRightSetting@CTalkDlg@@IAEXXZ 00479770 f   TalkDlg.obj
 0001:000787b0       ?OnNoWaitHeadline@CTalkDlg@@IAEXXZ 004797b0 f   TalkDlg.obj
 0001:00078800       ?OnShowBalloonOnline@CTalkDlg@@IAEXXZ 00479800 f   TalkDlg.obj
 0001:00078850       ?OnMouseOverNoTimeout@CTalkDlg@@IAEXXZ 00479850 f   TalkDlg.obj
 0001:000788a0       ?OnSelchangeSpeedupKey@CTalkDlg@@IAEXXZ 004798a0 f   TalkDlg.obj
 0001:000788e0       ?OnSpeedup@CTalkDlg@@IAEXXZ 004798e0 f   TalkDlg.obj
 0001:00078950       ?OnTalkPlay@CTalkDlg@@IAEXXZ 00479950 f   TalkDlg.obj
 0001:00078ae0       ?OnTalkNone@CTalkDlg@@IAEXXZ 00479ae0 f   TalkDlg.obj
 0001:00078b10       ?OnTalkBrowse@CTalkDlg@@IAEXXZ 00479b10 f   TalkDlg.obj
 0001:00078c40       ?OnChangeTalkSoundpath@CTalkDlg@@IAEXXZ 00479c40 f   TalkDlg.obj
 0001:00078d50       ?OnHeadlineNoTimeout@CTalkDlg@@IAEXXZ 00479d50 f   TalkDlg.obj
 0001:00078d80       ??0CThumbnailWnd@@QAE@XZ   00479d80 f   ThumbnailWnd.obj
 0001:00078e50       ??_ECThumbnailWnd@@UAEPAXI@Z 00479e50 f i ThumbnailWnd.obj
 0001:00078e50       ??_GCThumbnailWnd@@UAEPAXI@Z 00479e50 f i ThumbnailWnd.obj
 0001:00078e80       ??1CThumbnailWnd@@UAE@XZ   00479e80 f   ThumbnailWnd.obj
 0001:00078ef0       ?GetMessageMap@CThumbnailWnd@@MBEPBUAFX_MSGMAP@@XZ 00479ef0 f   ThumbnailWnd.obj
 0001:00078f00       ?OnPaint@CThumbnailWnd@@IAEXXZ 00479f00 f   ThumbnailWnd.obj
 0001:00078fa0       ?CreateMe@CThumbnailWnd@@QAE_NPAVCHelperMainWnd@@PBG_N@Z 00479fa0 f   ThumbnailWnd.obj
 0001:000794e0       ?PostNcDestroy@CThumbnailWnd@@MAEXXZ 0047a4e0 f   ThumbnailWnd.obj
 0001:000795b0       ??0CThumbnailWndLoader@@QAE@XZ 0047a5b0 f   ThumbnailWnd.obj
 0001:00079810       ??_ECThumbnailWndLoader@@UAEPAXI@Z 0047a810 f i ThumbnailWnd.obj
 0001:00079810       ??_GCThumbnailWndLoader@@UAEPAXI@Z 0047a810 f i ThumbnailWnd.obj
 0001:00079840       ??1CThumbnailWndLoader@@UAE@XZ 0047a840 f i ThumbnailWnd.obj
 0001:00079a70       ?Loop@CThumbnailWndLoader@@UAEHXZ 0047aa70 f   ThumbnailWnd.obj
 0001:00079c80       ?Exit@CThumbnailWndLoader@@UAEHXZ 0047ac80 f   ThumbnailWnd.obj
 0001:00079cd0       ?LoadThumbnail@CThumbnailWndLoader@@QAEXPAUHWND__@@PAVJWString@@@Z 0047acd0 f   ThumbnailWnd.obj
 0001:00079d20       ?GetCacheName@CThumbnailWndLoader@@SAXPBGAAVJWString@@@Z 0047ad20 f   ThumbnailWnd.obj
 0001:00079d40       ?Delete@?$SPCacheObj@VJWString@@VJCriticalSection@@VJLock@@@@QAEXPAVJWString@@@Z 0047ad40 f i ThumbnailWnd.obj
 0001:00079e40       ??0CTimeMachinePalette@@QAE@PAVCWnd@@@Z 0047ae40 f   TimeMachinePalette.obj
 0001:00079ed0       ??_ECTimeMachinePalette@@UAEPAXI@Z 0047aed0 f i TimeMachinePalette.obj
 0001:00079ed0       ??_GCTimeMachinePalette@@UAEPAXI@Z 0047aed0 f i TimeMachinePalette.obj
 0001:00079f00       ??1CTimeMachinePalette@@UAE@XZ 0047af00 f i TimeMachinePalette.obj
 0001:00079f60       ?DoDataExchange@CTimeMachinePalette@@MAEXPAVCDataExchange@@@Z 0047af60 f   TimeMachinePalette.obj
 0001:00079fa0       ?GetMessageMap@CTimeMachinePalette@@MBEPBUAFX_MSGMAP@@XZ 0047afa0 f   TimeMachinePalette.obj
 0001:00079fb0       ?OnTimeMachineReset@CTimeMachinePalette@@IAEXXZ 0047afb0 f   TimeMachinePalette.obj
 0001:0007a020       ?OnTimeMachineApply@CTimeMachinePalette@@IAEXXZ 0047b020 f   TimeMachinePalette.obj
 0001:0007a140       ?OnInitDialog@CTimeMachinePalette@@MAEHXZ 0047b140 f   TimeMachinePalette.obj
 0001:0007a1e0       ?OnTimer@CTimeMachinePalette@@IAEXI@Z 0047b1e0 f   TimeMachinePalette.obj
 0001:0007a210       ?OnCancel@CTimeMachinePalette@@MAEXXZ 0047b210 f   TimeMachinePalette.obj
 0001:0007a240       ?OnDestroy@CTimeMachinePalette@@IAEXXZ 0047b240 f   TimeMachinePalette.obj
 0001:0007a280       ?UpdateTime@CTimeMachinePalette@@AAEXXZ 0047b280 f   TimeMachinePalette.obj
 0001:0007a3e0       ?UpdateButtonState@CTimeMachinePalette@@AAEXXZ 0047b3e0 f   TimeMachinePalette.obj
 0001:0007a410       ??0CToolTipCustom@@QAE@XZ  0047b410 f   ToolTipCustom.obj
 0001:0007a540       ??_GCToolTipCustom@@UAEPAXI@Z 0047b540 f i ToolTipCustom.obj
 0001:0007a540       ??_ECToolTipCustom@@UAEPAXI@Z 0047b540 f i ToolTipCustom.obj
 0001:0007a570       ??1CToolTipCustom@@UAE@XZ  0047b570 f   ToolTipCustom.obj
 0001:0007a5d0       ?Create@CToolTipCustom@@QAEXPAUHWND__@@K@Z 0047b5d0 f   ToolTipCustom.obj
 0001:0007a6a0       ?Release@CToolTipCustom@@QAEXXZ 0047b6a0 f   ToolTipCustom.obj
 0001:0007a6d0       ?InitTOOLINFOA@CToolTipCustom@@AAEXAAUtagTOOLINFOA@@@Z 0047b6d0 f   ToolTipCustom.obj
 0001:0007a750       ?InitTOOLINFOW@CToolTipCustom@@AAEXAAUtagTOOLINFOW@@@Z 0047b750 f   ToolTipCustom.obj
 0001:0007a7d0       ?Activate@CToolTipCustom@@QAEX_N0@Z 0047b7d0 f   ToolTipCustom.obj
 0001:0007a940       ?TrackSetPos@CToolTipCustom@@QAEXXZ 0047b940 f   ToolTipCustom.obj
 0001:0007a9a0       ?TrackSetText@CToolTipCustom@@QAEXPBG@Z 0047b9a0 f   ToolTipCustom.obj
 0001:0007aa70       _png_sig_cmp               0047ba70 f   png.obj
 0001:0007aaf0       _png_zalloc                0047baf0 f   png.obj
 0001:0007ab40       _png_zfree                 0047bb40 f   png.obj
 0001:0007ab60       _png_reset_crc             0047bb60 f   png.obj
 0001:0007ab80       _png_calculate_crc         0047bb80 f   png.obj
 0001:0007abf0       _png_user_version_check    0047bbf0 f   png.obj
 0001:0007acc0       _png_create_png_struct     0047bcc0 f   png.obj
 0001:0007ade0       _png_create_info_struct    0047bde0 f   png.obj
 0001:0007ae10       _png_destroy_info_struct   0047be10 f   png.obj
 0001:0007ae60       _png_free_data             0047be60 f   png.obj
 0001:0007afc0       _png_get_io_ptr            0047bfc0 f   png.obj
 0001:0007afe0       _png_init_io               0047bfe0 f   png.obj
 0001:0007b000       _png_get_libpng_ver        0047c000 f   png.obj
 0001:0007b020       _png_get_header_ver        0047c020 f   png.obj
 0001:0007b030       _png_handle_as_unknown     0047c030 f   png.obj
 0001:0007b090       _png_chunk_unknown_handling 0047c090 f   png.obj
 0001:0007b0d0       _png_zstream_error         0047c0d0 f   png.obj
 0001:0007b1a0       _png_check_IHDR            0047c1a0 f   png.obj
 0001:0007b360       _png_set_option            0047c360 f   png.obj
 0001:0007b3c0       _png_error                 0047c3c0 f   pngerror.obj
 0001:0007b3f0       _png_safecat               0047c3f0 f   pngerror.obj
 0001:0007b430       _png_warning               0047c430 f   pngerror.obj
 0001:0007b480       _png_benign_error          0047c480 f   pngerror.obj
 0001:0007b4f0       _png_app_warning           0047c4f0 f   pngerror.obj
 0001:0007b520       _png_app_error             0047c520 f   pngerror.obj
 0001:0007b550       _png_chunk_error           0047c550 f   pngerror.obj
 0001:0007b640       _png_chunk_warning         0047c640 f   pngerror.obj
 0001:0007b690       _png_chunk_benign_error    0047c690 f   pngerror.obj
 0001:0007b6c0       _png_chunk_report          0047c6c0 f   pngerror.obj
 0001:0007b720       _png_set_longjmp_fn        0047c720 f   pngerror.obj
 0001:0007b7b0       _png_free_jmpbuf           0047c7b0 f   pngerror.obj
 0001:0007b870       _png_longjmp               0047c870 f   pngerror.obj
 0001:0007b8d0       _png_set_error_fn          0047c8d0 f   pngerror.obj
 0001:0007b8f0       _png_get_error_ptr         0047c8f0 f   pngerror.obj
 0001:0007b910       _png_get_valid             0047c910 f   pngget.obj
 0001:0007b930       _png_get_IHDR              0047c930 f   pngget.obj
 0001:0007b9f0       _png_get_PLTE              0047c9f0 f   pngget.obj
 0001:0007ba30       _png_get_tRNS              0047ca30 f   pngget.obj
 0001:0007bab0       _png_destroy_png_struct    0047cab0 f   pngmem.obj
 0001:0007bb00       _png_calloc                0047cb00 f   pngmem.obj
 0001:0007bb40       _png_malloc_base           0047cb40 f   pngmem.obj
 0001:0007bbb0       _png_realloc_array         0047cbb0 f   pngmem.obj
 0001:0007bc60       _png_malloc                0047cc60 f   pngmem.obj
 0001:0007bca0       _png_malloc_warn           0047cca0 f   pngmem.obj
 0001:0007bcd0       _png_free                  0047ccd0 f   pngmem.obj
 0001:0007bd00       _png_free_default          0047cd00 f   pngmem.obj
 0001:0007bd20       _png_set_mem_fn            0047cd20 f   pngmem.obj
 0001:0007bd50       _png_create_read_struct    0047cd50 f   pngread.obj
 0001:0007bd80       _png_create_read_struct_2  0047cd80 f   pngread.obj
 0001:0007bde0       _png_read_info             0047cde0 f   pngread.obj
 0001:0007bfc0       _png_read_update_info      0047cfc0 f   pngread.obj
 0001:0007c000       _png_start_read_image      0047d000 f   pngread.obj
 0001:0007c030       _png_read_row              0047d030 f   pngread.obj
 0001:0007c340       _png_read_image            0047d340 f   pngread.obj
 0001:0007c3e0       _png_read_end              0047d3e0 f   pngread.obj
 0001:0007c590       _png_destroy_read_struct   0047d590 f   pngread.obj
 0001:0007c6c0       _png_read_data             0047d6c0 f   pngrio.obj
 0001:0007c6f0       _png_default_read_data     0047d6f0 f   pngrio.obj
 0001:0007c730       _png_set_read_fn           0047d730 f   pngrio.obj
 0001:0007c780       _png_set_crc_action        0047d780 f   pngrtran.obj
 0001:0007c890       _png_set_strip_16          0047d890 f   pngrtran.obj
 0001:0007c8c0       _png_set_strip_alpha       0047d8c0 f   pngrtran.obj
 0001:0007c8e0       _png_set_expand_gray_1_2_4_to_8 0047d8e0 f   pngrtran.obj
 0001:0007c910       _png_set_tRNS_to_alpha     0047d910 f   pngrtran.obj
 0001:0007c930       _png_init_read_transformations 0047d930 f   pngrtran.obj
 0001:0007ca30       _png_read_transform_info   0047da30 f   pngrtran.obj
 0001:0007cb90       _png_do_read_transformations 0047db90 f   pngrtran.obj
 0001:0007d970       _png_get_uint_31           0047e970 f   pngrutil.obj
 0001:0007d9c0       _png_read_sig              0047e9c0 f   pngrutil.obj
 0001:0007da60       _png_read_chunk_header     0047ea60 f   pngrutil.obj
 0001:0007db00       _png_crc_read              0047eb00 f   pngrutil.obj
 0001:0007db30       _png_crc_finish            0047eb30 f   pngrutil.obj
 0001:0007dbd0       _png_crc_error             0047ebd0 f   pngrutil.obj
 0001:0007dc70       _png_zlib_inflate          0047ec70 f   pngrutil.obj
 0001:0007dcc0       _png_handle_IHDR           0047ecc0 f   pngrutil.obj
 0001:0007de30       _png_handle_PLTE           0047ee30 f   pngrutil.obj
 0001:0007dfe0       _png_handle_IEND           0047efe0 f   pngrutil.obj
 0001:0007e030       _png_handle_tRNS           0047f030 f   pngrutil.obj
 0001:0007e270       _png_handle_acTL           0047f270 f   pngrutil.obj
 0001:0007e350       _png_handle_fcTL           0047f350 f   pngrutil.obj
 0001:0007e4c0       _png_have_info             0047f4c0 f   pngrutil.obj
 0001:0007e500       _png_handle_fdAT           0047f500 f   pngrutil.obj
 0001:0007e530       _png_ensure_sequence_number 0047f530 f   pngrutil.obj
 0001:0007e590       _png_handle_unknown        0047f590 f   pngrutil.obj
 0001:0007e800       _png_check_chunk_name      0047f800 f   pngrutil.obj
 0001:0007e850       _png_check_chunk_length    0047f850 f   pngrutil.obj
 0001:0007e910       _png_combine_row           0047f910 f   pngrutil.obj
 0001:0007ee00       _png_do_read_interlace     0047fe00 f   pngrutil.obj
 0001:0007f130       _png_read_filter_row       00480130 f   pngrutil.obj
 0001:0007f400       _png_read_IDAT_data        00480400 f   pngrutil.obj
 0001:0007f6f0       _png_read_finish_IDAT      004806f0 f   pngrutil.obj
 0001:0007f750       _png_read_finish_row       00480750 f   pngrutil.obj
 0001:0007f860       _png_read_start_row        00480860 f   pngrutil.obj
 0001:0007fc30       _png_read_reinit           00480c30 f   pngrutil.obj
 0001:0007fcd0       _png_set_IHDR              00480cd0 f   pngset.obj
 0001:0007fdb0       _png_set_PLTE              00480db0 f   pngset.obj
 0001:0007fea0       _png_set_tRNS              00480ea0 f   pngset.obj
 0001:0007ffc0       _png_set_acTL              00480fc0 f   pngset.obj
 0001:00080060       _png_set_next_frame_fcTL   00481060 f   pngset.obj
 0001:00080130       _png_ensure_fcTL_is_valid  00481130 f   pngset.obj
 0001:00080220       _png_set_unknown_chunks    00481220 f   pngset.obj
 0001:000803e0       _png_set_keep_unknown_chunks 004813e0 f   pngset.obj
 0001:00080610       _png_set_benign_errors     00481610 f   pngset.obj
 0001:00080640       _png_set_bgr               00481640 f   pngtrans.obj
 0001:00080650       _png_set_packing           00481650 f   pngtrans.obj
 0001:00080680       _png_set_interlace_handling 00481680 f   pngtrans.obj
 0001:000806b0       _png_set_filler            004816b0 f   pngtrans.obj
 0001:00080750       _png_do_strip_channel      00481750 f   pngtrans.obj
 0001:000808b0       _png_do_bgr                004818b0 f   pngtrans.obj
 0001:00080980       _png_do_check_palette_indexes 00481980 f   pngtrans.obj
 0001:00080b30       _png_write_data            00481b30 f   pngwio.obj
 0001:00080b60       _png_default_write_data    00481b60 f   pngwio.obj
 0001:00080ba0       _png_flush                 00481ba0 f   pngwio.obj
 0001:00080bc0       _png_default_flush         00481bc0 f   pngwio.obj
 0001:00080be0       _png_set_write_fn          00481be0 f   pngwio.obj
 0001:00080c40       _png_write_info_before_PLTE 00481c40 f   pngwrite.obj
 0001:00080cc0       _png_write_info            00481cc0 f   pngwrite.obj
 0001:00080d20       _png_write_end             00481d20 f   pngwrite.obj
 0001:00080da0       _png_create_write_struct   00481da0 f   pngwrite.obj
 0001:00080dd0       _png_create_write_struct_2 00481dd0 f   pngwrite.obj
 0001:00080e50       _png_write_image           00481e50 f   pngwrite.obj
 0001:00080e90       _png_write_row             00481e90 f   pngwrite.obj
 0001:00080fe0       _png_write_flush           00481fe0 f   pngwrite.obj
 0001:00081020       _png_destroy_write_struct  00482020 f   pngwrite.obj
 0001:000810f0       _png_do_write_transformations 004820f0 f   pngwtran.obj
 0001:000811d0       _png_save_uint_32          004821d0 f   pngwutil.obj
 0001:00081200       _png_write_sig             00482200 f   pngwutil.obj
 0001:000812e0       _png_write_chunk_data      004822e0 f   pngwutil.obj
 0001:00081320       _png_write_chunk_end       00482320 f   pngwutil.obj
 0001:000813b0       _png_free_buffer_list      004823b0 f   pngwutil.obj
 0001:000813e0       _png_write_IHDR            004823e0 f   pngwutil.obj
 0001:00081650       _png_write_PLTE            00482650 f   pngwutil.obj
 0001:00081710       _png_compress_IDAT         00482710 f   pngwutil.obj
 0001:00081d20       _png_write_IEND            00482d20 f   pngwutil.obj
 0001:00081d50       _png_write_acTL            00482d50 f   pngwutil.obj
 0001:00081da0       _png_write_fdAT            00482da0 f   pngwutil.obj
 0001:00081e00       _png_write_start_row       00482e00 f   pngwutil.obj
 0001:00081f30       _png_write_finish_row      00482f30 f   pngwutil.obj
 0001:00081f60       _png_write_find_filter     00482f60 f   pngwutil.obj
 0001:000827b0       _adler32_z                 004837b0 f   adler32.obj
 0001:00082a30       _adler32                   00483a30 f   adler32.obj
 0001:00082a50       _get_crc_table             00483a50 f   crc32.obj
 0001:00082a60       _crc32_z                   00483a60 f   crc32.obj
 0001:00082dd0       _crc32                     00483dd0 f   crc32.obj
 0001:00082df0       _deflateInit2_             00483df0 f   deflate.obj
 0001:000830e0       _deflateResetKeep          004840e0 f   deflate.obj
 0001:00083170       _deflateReset              00484170 f   deflate.obj
 0001:000831f0       _deflate                   004841f0 f   deflate.obj
 0001:00083cd0       _deflateEnd                00484cd0 f   deflate.obj
 0001:00085400       _inflate_fast              00486400 f   inffast.obj
 0001:00085880       _inflateResetKeep          00486880 f   inflate.obj
 0001:00085960       _inflateReset              00486960 f   inflate.obj
 0001:000859a0       _inflateReset2             004869a0 f   inflate.obj
 0001:00085a40       _inflateInit2_             00486a40 f   inflate.obj
 0001:00085b10       _inflate                   00486b10 f   inflate.obj
 0001:00087460       _inflateEnd                00488460 f   inflate.obj
 0001:000874b0       _inflateValidate           004884b0 f   inflate.obj
 0001:00087500       _inflate_table             00488500 f   inftrees.obj
 0001:000878f0       __tr_init                  004888f0 f   trees.obj
 0001:000879d0       __tr_stored_block          004889d0 f   trees.obj
 0001:00087ae0       __tr_flush_bits            00488ae0 f   trees.obj
 0001:00087b00       __tr_align                 00488b00 f   trees.obj
 0001:00087c40       __tr_flush_block           00488c40 f   trees.obj
 0001:000893a0       _zlibVersion               0048a3a0 f   zutil.obj
 0001:000893b0       _zcalloc                   0048a3b0 f   zutil.obj
 0001:000893d0       ??0JCriticalSection@@QAE@XZ 0048a3d0 f   j_criticalsection.obj
 0001:000894f0       ??_GJCriticalSection@@UAEPAXI@Z 0048a4f0 f i j_criticalsection.obj
 0001:000894f0       ??_EJCriticalSection@@UAEPAXI@Z 0048a4f0 f i j_criticalsection.obj
 0001:00089520       ??1JCriticalSection@@UAE@XZ 0048a520 f   j_criticalsection.obj
 0001:00089540       ?Lock@JCriticalSection@@UAE_NJ@Z 0048a540 f   j_criticalsection.obj
 0001:00089550       ?Unlock@JCriticalSection@@UAEXXZ 0048a550 f   j_criticalsection.obj
 0001:00089560       ??0JDC@@QAE@XZ             0048a560 f   j_dc.obj
 0001:00089580       ??_GJDC@@UAEPAXI@Z         0048a580 f i j_dc.obj
 0001:00089580       ??_EJDC@@UAEPAXI@Z         0048a580 f i j_dc.obj
 0001:000895b0       ??0JDC@@QAE@PAUHWND__@@@Z  0048a5b0 f   j_dc.obj
 0001:000895e0       ?Init@JDC@@AAEXXZ          0048a5e0 f   j_dc.obj
 0001:000895f0       ??1JDC@@UAE@XZ             0048a5f0 f   j_dc.obj
 0001:00089610       ?CreateMemoryDC@JDC@@QAEPAUHDC__@@XZ 0048a610 f   j_dc.obj
 0001:00089670       ?ReleaseDC@JDC@@QAEXXZ     0048a670 f   j_dc.obj
 0001:000896f0       ?SelectBitmap@JDC@@QAEPAUHBITMAP__@@PAU2@@Z 0048a6f0 f   j_dc.obj
 0001:00089730       ?Read@JBITMAPINFOHEADER@@QAEHAAVJStream@@@Z 0048a730 f   j_dib.obj
 0001:000898f0       ??1JDib@@UAE@XZ            0048a8f0 f   j_dib.obj
 0001:00089940       ??_EJDib@@UAEPAXI@Z        0048a940 f i j_dib.obj
 0001:00089940       ??_GJDib@@UAEPAXI@Z        0048a940 f i j_dib.obj
 0001:00089970       ?SetFlag@JDib@@QAEXI@Z     0048a970 f   j_dib.obj
 0001:00089990       ?Create@JDib@@QAEHKK@Z     0048a990 f   j_dib.obj
 0001:00089b10       ?Release@JDib@@QAEXXZ      0048ab10 f   j_dib.obj
 0001:00089b80       ?Open@JDib@@QAEHAAVJStream@@@Z 0048ab80 f   j_dib.obj
 0001:00089f80       ?Save@JDib@@QAEHPBDK@Z     0048af80 f   j_dib.obj
 0001:0008a040       ?Save@JDib@@QAEHAAVJStream@@K@Z 0048b040 f   j_dib.obj
 0001:0008a290       ?SetPalette@JDib@@QAEXAAVJPalette@@@Z 0048b290 f   j_dib.obj
 0001:0008a2e0       ?GetPalette@JDib@@QAEXAAVJPalette@@@Z 0048b2e0 f   j_dib.obj
 0001:0008a300       ?To8bpp@JDib@@IAEHPAUtagBITMAPINFOHEADER@@PAUtagRGBQUAD@@PAX@Z 0048b300 f   j_dib.obj
 0001:0008a510       ?To32bpp@JDib@@IAEHPAUtagBITMAPINFOHEADER@@PAUtagRGBQUAD@@PAX@Z 0048b510 f   j_dib.obj
 0001:0008a7d0       ?ComputeCenter@JDibVect@@QAEXXZ 0048b7d0 f   j_dib.obj
 0001:0008a890       ?Quantize@JDibVect@@QAEHXZ 0048b890 f   j_dib.obj
 0001:0008abf0       ??0JDibDecPal@@QAE@XZ      0048bbf0 f i j_dib.obj
 0001:0008ac10       ??_EJDibDecPal@@UAEPAXI@Z  0048bc10 f i j_dib.obj
 0001:0008ac10       ??_GJDibDecPal@@UAEPAXI@Z  0048bc10 f i j_dib.obj
 0001:0008ac40       ??1JDibDecPal@@UAE@XZ      0048bc40 f i j_dib.obj
 0001:0008ac50       ??_EJList@@UAEPAXI@Z       0048bc50 f i j_dib.obj
 0001:0008ac50       ??_GJList@@UAEPAXI@Z       0048bc50 f i j_dib.obj
 0001:0008ac80       ?JDibCreateHistgram@@YAPAVJDibVect@@PAUtagBITMAPINFOHEADER@@PAE@Z 0048bc80 f   j_dib.obj
 0001:0008ae30       ?JDibVectQuantize@@YAHPAVJDibVect@@J@Z 0048be30 f   j_dib.obj
 0001:0008ae80       ?JDibVectQGetDeepest@@YAHPAVJDibVect@@PAPAV1@PAJ@Z 0048be80 f   j_dib.obj
 0001:0008aee0       ?JDibVectQCreatePalette@@YAHPAVJDibVect@@PAUtagRGBQUAD@@PAE@Z 0048bee0 f   j_dib.obj
 0001:0008b010       ?DecreaseTo8@JDib@@QAEHPAUtagBITMAPINFOHEADER@@PAEHH@Z 0048c010 f   j_dib.obj
 0001:0008b700       ??1JDibVect@@QAE@XZ        0048c700 f i j_dib.obj
 0001:0008b780       ?Create@JDIBSurface@@UAEHJJJ@Z 0048c780 f   j_dibsurf.obj
 0001:0008b8b0       ?Update@JDIBSurface@@UAEXXZ 0048c8b0 f   j_dibsurf.obj
 0001:0008b900       ?SetPixel@JDIBSurface@@UAEXJJEEE@Z 0048c900 f   j_dibsurf.obj
 0001:0008b940       ?GetPixel@JDIBSurface@@UAEXJJAAE00@Z 0048c940 f   j_dibsurf.obj
 0001:0008b980       ?InternalLoad@JDynLoad@@AAE_NXZ 0048c980 f   j_dynload.obj
 0001:0008ba40       ?InternalUnload@JDynLoad@@AAEXXZ 0048ca40 f   j_dynload.obj
 0001:0008ba60       ?GetProc@JDynLoad@@UAEPAXPBD@Z 0048ca60 f   j_dynload.obj
 0001:0008ba90       ?SetModuleName@JDynLoad@@UAEXPBD@Z 0048ca90 f   j_dynload.obj
 0001:0008bab0       ?SetModuleName@JDynLoadSystem@@UAEXPBD@Z 0048cab0 f   j_dynload.obj
 0001:0008bad0       ?Create@JGIFImage@@QAEHJJ@Z 0048cad0 f   j_gif.obj
 0001:0008bb10       ?Release@JGIFImage@@QAEXXZ 0048cb10 f   j_gif.obj
 0001:0008bb30       ?ReadPalette@JGIFImage@@IAEHAAVJStream@@H@Z 0048cb30 f   j_gif.obj
 0001:0008bbc0       ?ReadData@JGIFImage@@QAEHAAVJStream@@@Z 0048cbc0 f   j_gif.obj
 0001:0008bcf0       ?ReadPalette@JGIF@@IAEHAAVJStream@@H@Z 0048ccf0 f   j_gif.obj
 0001:0008bd80       ?Release@JGIF@@QAEHXZ      0048cd80 f   j_gif.obj
 0001:0008bdf0       ??1JGIFImage@@QAE@XZ       0048cdf0 f i j_gif.obj
 0001:0008be00       ?Read@JGIF@@QAEHAAVJStream@@@Z 0048ce00 f   j_gif.obj
 0001:0008c240       ?GetImageAsJSurface@JGIF@@QAEPAVJSurface@@H@Z 0048d240 f   j_gif.obj
 0001:0008c2f0       ?GetVer@JLibJPEG@@SAPBDXZ  0048d2f0 f   j_libjpeg.obj
 0001:0008c330       ?ErrorFunc@JLibJPEG@@QAEXPBD@Z 0048d330 f   j_libjpeg.obj
 0001:0008c3f0       ?Read@JLibJPEG@@QAEPAVJSurface@@PBG@Z 0048d3f0 f   j_libjpeg.obj
 0001:0008c410       ?ReadFromBuffer@JLibJPEG@@QAEPAVJSurface@@PADKPBG@Z 0048d410 f   j_libjpeg.obj
 0001:0008c440       ?Read@JLibJPEG@@AAEPAVJSurface@@PBGPADK@Z 0048d440 f   j_libjpeg.obj
 0001:0008c910       ?JLibMAG_Read@@YAPAVJSurface@@PBG_N@Z 0048d910 f   j_libmag.obj
 0001:0008cb70       ?JLibPI_Read@@YAPAVJSurface@@PBG_N@Z 0048db70 f   j_libpi.obj
 0001:0008ce00       ??0JLibPNG@@QAE@_N@Z       0048de00 f   j_libpng.obj
 0001:0008cf20       ?Release@JLibPNG@@QAEXXZ   0048df20 f   j_libpng.obj
 0001:0008d050       ?GetVer@JLibPNG@@SAPBDXZ   0048e050 f   j_libpng.obj
 0001:0008d080       ?Read@JLibPNG@@QAEPAVJSurface@@PBGH@Z 0048e080 f   j_libpng.obj
 0001:0008d190       ?ErrorFunc@JLibPNG@@QAEXPBD@Z 0048e190 f   j_libpng.obj
 0001:0008d250       ?WarnFunc@JLibPNG@@QAEXPBD@Z 0048e250 f   j_libpng.obj
 0001:0008d320       ?ReadFromBuffer@JLibPNG@@QAEPAVJSurface@@PADKPBGH_N@Z 0048e320 f   j_libpng.obj
 0001:0008d6e0       ?RealRead@JLibPNG@@AAEPAVJSurface@@HPAUpng_struct_def@@PAUpng_info_def@@_N@Z 0048e6e0 f   j_libpng.obj
 0001:0008deb0       ?GetCSFlag@JLibPNG@@QAEIXZ 0048eeb0 f   j_libpng.obj
 0001:0008dec0       ?SaveToFile@JLibPNG@@QAEHPBGPAVJSurface@@H@Z 0048eec0 f   j_libpng.obj
 0001:0008dff0       ?RealSave@JLibPNG@@AAEHPAVJSurface@@HPAUpng_struct_def@@PAUpng_info_def@@@Z 0048eff0 f   j_libpng.obj
 0001:0008e100       ?AddNode@JList@@QAEXPAV1@@Z 0048f100 f   j_list.obj
 0001:0008e120       ?DeleteNode@JList@@QAEXXZ  0048f120 f   j_list.obj
 0001:0008e140       ?DeleteAllNode@JList@@QAEXXZ 0048f140 f   j_list.obj
 0001:0008e170       ?Read@JLZWDecoder@@QAEKAAVJStream@@PAEH@Z 0048f170 f   j_lzw.obj
 0001:0008e370       ?Seek@JMappedStream@@UAEHJH@Z 0048f370 f   j_mapstream.obj
 0001:0008e3c0       ?Read@JMappedStream@@UAEKPAXK@Z 0048f3c0 f   j_mapstream.obj
 0001:0008e410       ?Open@JMappedStream@@QAEHKPAD@Z 0048f410 f   j_mapstream.obj
 0001:0008e490       ?Open@JMappedStream@@UAEHPBDH@Z 0048f490 f   j_mapstream.obj
 0001:0008e510       ?Open@JMappedStream@@UAEHPBGH@Z 0048f510 f   j_mapstream.obj
 0001:0008e670       ?Close@JMappedStream@@UAEXXZ 0048f670 f   j_mapstream.obj
 0001:0008e6d0       ?InitData@JMappedStream@@AAEXXZ 0048f6d0 f   j_mapstream.obj
 0001:0008e6f0       ?GetJMemoryManager@@YAAAVJMemoryManager@@XZ 0048f6f0 f   j_mem.obj
 0001:0008e740       ??0JMemoryManager@@QAE@XZ  0048f740 f   j_mem.obj
 0001:0008e7c0       ?Malloc@JMemoryManager@@QAEPADK@Z 0048f7c0 f   j_mem.obj
 0001:0008e810       ?Free@JMemoryManager@@QAEXPAX@Z 0048f810 f   j_mem.obj
 0001:0008e840       ?Realloc@JMemoryManager@@QAEPADPAXK@Z 0048f840 f   j_mem.obj
 0001:0008e8d0       ?Size@JMemoryManager@@QAEKPAX@Z 0048f8d0 f   j_mem.obj
 0001:0008e900       ?Read@JMemStream@@UAEKPAXK@Z 0048f900 f   j_memstrm.obj
 0001:0008e940       ?Write@JMemStream@@UAEKPBXK@Z 0048f940 f   j_memstrm.obj
 0001:0008e980       ?Seek@JMemStream@@UAEHJH@Z 0048f980 f   j_memstrm.obj
 0001:0008e9e0       ?Create@JMutex@@QAEHPBDH@Z 0048f9e0 f   j_mutex.obj
 0001:0008ea10       ?Release@JMutex@@QAEXXZ    0048fa10 f   j_mutex.obj
 0001:0008ea30       ?Lock@JMutex@@UAE_NJ@Z     0048fa30 f   j_mutex.obj
 0001:0008ea70       ?Unlock@JMutex@@UAEXXZ     0048fa70 f   j_mutex.obj
 0001:0008ea80       ?JGXCreateSurfaceObject@@YAPAVJSurfaceObject@@XZ 0048fa80 f   j_objman.obj
 0001:0008eac0       ?Clear@JSurfaceObject@@UAEHJJJJ@Z 0048fac0 f i j_objman.obj
 0001:0008eac0       ?Proc8@SPVE_DesktopNotification@@UAGJPAUIVirtualDesktop@@HH@Z 0048fac0 f i j_objman.obj
 0001:0008ead0       ?Load@JDIBSurface@@UAEHAAVJStream@@@Z 0048fad0 f i j_objman.obj
 0001:0008eaf0       ?Save@JDIBSurface@@UAEHAAVJStream@@K@Z 0048faf0 f i j_objman.obj
 0001:0008eb20       ?Save@JDIBSurface@@UAEHPBDK@Z 0048fb20 f i j_objman.obj
 0001:0008eb50       ?SetFlag@JDIBSurface@@UAEXI@Z 0048fb50 f i j_objman.obj
 0001:0008eb80       ?GetFlag@JDIBSurface@@UAEIXZ 0048fb80 f i j_objman.obj
 0001:0008eb90       ?Lock@JDIBSurface@@UAEPAEXZ 0048fb90 f i j_objman.obj
 0001:0008eba0       ?Pitch@JDIBSurface@@UAEJXZ 0048fba0 f i j_objman.obj
 0001:0008ebd0       ?Pixel@JDIBSurface@@UAEJXZ 0048fbd0 f i j_objman.obj
 0001:0008ebf0       ?Width@JDIBSurface@@UAEJXZ 0048fbf0 f i j_objman.obj
 0001:0008ec10       ?Height@JDIBSurface@@UAEJXZ 0048fc10 f i j_objman.obj
 0001:0008ec30       ?SetPalette@JDIBSurface@@UAEHAAVJPalette@@@Z 0048fc30 f i j_objman.obj
 0001:0008ec60       ?GetPalette@JDIBSurface@@UAEHAAVJPalette@@@Z 0048fc60 f i j_objman.obj
 0001:0008ec80       ?GetPalette@JDIBSurface@@UAEPAUtagRGBQUAD@@XZ 0048fc80 f i j_objman.obj
 0001:0008ec90       ?IsCreated@JDIBSurface@@UAE_NXZ 0048fc90 f i j_objman.obj
 0001:0008eca0       ?Handle@JDIBSurface@@UAEPAXXZ 0048fca0 f i j_objman.obj
 0001:0008ecb0       ?HandleBitmap@JDIBSurface@@UAEPAXXZ 0048fcb0 f i j_objman.obj
 0001:0008ecc0       ?Bitmap@JDIBSurface@@UAEPAXXZ 0048fcc0 f i j_objman.obj
 0001:0008ecd0       ?BitmapBits@JDIBSurface@@UAEPAEXZ 0048fcd0 f i j_objman.obj
 0001:0008ece0       ??_EJDIBSurface@@UAEPAXI@Z 0048fce0 f i j_objman.obj
 0001:0008ece0       ??_GJDIBSurface@@UAEPAXI@Z 0048fce0 f i j_objman.obj
 0001:0008ed10       ??1JDIBSurface@@UAE@XZ     0048fd10 f i j_objman.obj
 0001:0008ed60       ??1JSurfaceObject@@UAE@XZ  0048fd60 f i j_objman.obj
 0001:0008ed70       ??_GJSurfaceObject@@UAEPAXI@Z 0048fd70 f i j_objman.obj
 0001:0008ed70       ??_EJSurfaceObject@@UAEPAXI@Z 0048fd70 f i j_objman.obj
 0001:0008eda0       ?JGXCreateCompatibleSurface@@YAPAVJSurface@@PAV1@@Z 0048fda0 f   j_objman.obj
 0001:0008edd0       ?JGXCreateSurface@@YAPAVJSurface@@I_N@Z 0048fdd0 f   j_objman.obj
 0001:0008ef10       ?Load@JSurface@@UAEHAAVJStream@@@Z 0048ff10 f i j_objman.obj
 0001:0008ef50       ?Save@JSurface@@UAEHAAVJStream@@K@Z 0048ff50 f i j_objman.obj
 0001:0008ef80       ?Save@JSurface@@UAEHPBDK@Z 0048ff80 f i j_objman.obj
 0001:0008efb0       ?GetRowTable@JSurface@@UAEPAPAEXZ 0048ffb0 f i j_objman.obj
 0001:0008efc0       ?SetPixel@JSurface@@UAEXJJEEE@Z 0048ffc0 f i j_objman.obj
 0001:0008eff0       ?GetPixel@JSurface@@UAEXJJAAE00@Z 0048fff0 f i j_objman.obj
 0001:0008f020       ?GetPixelAlpha@JSurface@@UAEEJJ@Z 00490020 f i j_objman.obj
 0001:0008f030       ?SetPixelAlpha@JSurface@@UAEXJJE@Z 00490030 f i j_objman.obj
 0001:0008f030       ?AlphaPlaneSet@JSurface@@UAEXPBEE_N@Z 00490030 f i j_objman.obj
 0001:0008f030       ?SetPixelIndex@JSurface@@UAEXJJK@Z 00490030 f i j_objman.obj
 0001:0008f040       ?Logon@SPSensLogon@@UAGJPAG@Z 00490040 f i j_objman.obj
 0001:0008f040       ?Write@JMappedStream@@EAEKPBXK@Z 00490040 f i j_objman.obj
 0001:0008f040       ?GetIntensity@JSurface@@UAEJJJ@Z 00490040 f i j_objman.obj
 0001:0008f040       ?GetPixelIndex@JSurface@@UAEKJJ@Z 00490040 f i j_objman.obj
 0001:0008f040       ?Save@JSurfaceObject@@UAEHPBDK@Z 00490040 f i j_objman.obj
 0001:0008f040       ?Save@JSurfaceObject@@UAEHAAVJStream@@K@Z 00490040 f i j_objman.obj
 0001:0008f040       ?Logoff@SPSensLogon@@UAGJPAG@Z 00490040 f i j_objman.obj
 0001:0008f040       ?Proc7@SPVE_DesktopNotification@@UAGJH@Z 00490040 f i j_objman.obj
 0001:0008f040       ?Compare@JList@@UAEHPAV1@H@Z 00490040 f i j_objman.obj
 0001:0008f040       ?StartShell@SPSensLogon@@UAGJPAG@Z 00490040 f i j_objman.obj
 0001:0008f050       ?SetPalette@JSurface@@UAEHAAVJPalette@@@Z 00490050 f i j_objman.obj
 0001:0008f070       ?GetPalette@JSurface@@UAEHAAVJPalette@@@Z 00490070 f i j_objman.obj
 0001:0008f090       ?Unlock@JSurface@@UAEXXZ   00490090 f i j_objman.obj
 0001:0008f0a0       ?Lock@JSurface@@UAEPAEJJ@Z 004900a0 f i j_objman.obj
 0001:0008f0a0       ?GetAddress@JSurface@@UAEPAEJJ@Z 004900a0 f i j_objman.obj
 0001:0008f0c0       ?ColorFill@JSurface@@UAEHJJJJK@Z 004900c0 f i j_objman.obj
 0001:0008f0c0       ?ColorFill@JSurfaceObject@@UAEHJJJJK@Z 004900c0 f i j_objman.obj
 0001:0008f0c0       ?AlphaFill@JSurface@@UAEHJJJJE@Z 004900c0 f i j_objman.obj
 0001:0008f0d0       ?ColorFillAlpha@JSurfaceObject@@UAEHJJJJKE@Z 004900d0 f i j_objman.obj
 0001:0008f0d0       ?ColorFillAlpha@JSurface@@UAEHJJJJKE@Z 004900d0 f i j_objman.obj
 0001:0008f0e0       ?StretchCopy@JSurface@@UAEHJJJJPAV1@JJJJ@Z 004900e0 f i j_objman.obj
 0001:0008f0f0       ?StretchCopyEx@JSurface@@UAEHJJJJPAV1@JJJJPAJ1@Z 004900f0 f i j_objman.obj
 0001:0008f0f0       ?ZoomCopy@JSurface@@UAEHJJJJPAV1@JJJJJJ@Z 004900f0 f i j_objman.obj
 0001:0008f100       ?BlendHardLight@JSurface@@UAEHJJJJPAV1@JJ0@Z 00490100 f i j_objman.obj
 0001:0008f100       ?BlendNormal@JSurface@@UAEHJJJJPAV1@JJ0@Z 00490100 f i j_objman.obj
 0001:0008f100       ?BlendSoftLight@JSurface@@UAEHJJJJPAV1@JJ0@Z 00490100 f i j_objman.obj
 0001:0008f100       ?BlendHue@JSurface@@UAEHJJJJPAV1@JJ0@Z 00490100 f i j_objman.obj
 0001:0008f100       ?BlendSaturation@JSurface@@UAEHJJJJPAV1@JJ0@Z 00490100 f i j_objman.obj
 0001:0008f100       ?BlendScreen@JSurface@@UAEHJJJJPAV1@JJ0@Z 00490100 f i j_objman.obj
 0001:0008f100       ?BlendColor@JSurface@@UAEHJJJJPAV1@JJ0@Z 00490100 f i j_objman.obj
 0001:0008f100       ?BlendDissolve@JSurface@@UAEHJJJJPAV1@JJ0@Z 00490100 f i j_objman.obj
 0001:0008f100       ?BlendDifference@JSurface@@UAEHJJJJPAV1@JJ0@Z 00490100 f i j_objman.obj
 0001:0008f100       ?BlendMultiply@JSurface@@UAEHJJJJPAV1@JJ0@Z 00490100 f i j_objman.obj
 0001:0008f100       ?BlendDarken@JSurface@@UAEHJJJJPAV1@JJ0@Z 00490100 f i j_objman.obj
 0001:0008f100       ?BlendLighten@JSurface@@UAEHJJJJPAV1@JJ0@Z 00490100 f i j_objman.obj
 0001:0008f100       ?BlendLuminosity@JSurface@@UAEHJJJJPAV1@JJ0@Z 00490100 f i j_objman.obj
 0001:0008f100       ?BlendOverlay@JSurface@@UAEHJJJJPAV1@JJ0@Z 00490100 f i j_objman.obj
 0001:0008f100       ?BlendSubtract@JSurface@@UAEHJJJJPAV1@JJ0@Z 00490100 f i j_objman.obj
 0001:0008f110       ?Copy@JSurfaceObject@@UAEHJJJJPAV1@JJ@Z 00490110 f i j_objman.obj
 0001:0008f110       ?CopyXOR@JSurface@@UAEHJJJJPAV1@JJ@Z 00490110 f i j_objman.obj
 0001:0008f110       ?CopyNOR@JSurface@@UAEHJJJJPAV1@JJ@Z 00490110 f i j_objman.obj
 0001:0008f110       ?CopyAlpha@JSurfaceObject@@UAEHJJJJPAV1@JJ@Z 00490110 f i j_objman.obj
 0001:0008f110       ?CopyKey@JSurface@@UAEHJJJJPAV1@JJ@Z 00490110 f i j_objman.obj
 0001:0008f110       ?CopyAlpha@JSurface@@UAEHJJJJPAV1@JJ@Z 00490110 f i j_objman.obj
 0001:0008f110       ?CopyFrom@JSurface@@UAEHJJJJPAV1@JJ@Z 00490110 f i j_objman.obj
 0001:0008f110       ?BlendFill@JSurface@@UAEHJJJJKPAV1@E@Z 00490110 f i j_objman.obj
 0001:0008f110       ?CopyAND@JSurface@@UAEHJJJJPAV1@JJ@Z 00490110 f i j_objman.obj
 0001:0008f110       ?CopyNAND@JSurface@@UAEHJJJJPAV1@JJ@Z 00490110 f i j_objman.obj
 0001:0008f110       ?CopyOR@JSurface@@UAEHJJJJPAV1@JJ@Z 00490110 f i j_objman.obj
 0001:0008f110       ?CopyNOT@JSurface@@UAEHJJJJPAV1@JJ@Z 00490110 f i j_objman.obj
 0001:0008f120       ??_EJSurface@@UAEPAXI@Z    00490120 f i j_objman.obj
 0001:0008f120       ??_GJSurface@@UAEPAXI@Z    00490120 f i j_objman.obj
 0001:0008f150       ??1JSurface@@UAE@XZ        00490150 f i j_objman.obj
 0001:0008f1a0       ?SetPixelIndex@JSurface8@@UAEXJJK@Z 004901a0 f i j_objman.obj
 0001:0008f1c0       ?GetPixelIndex@JSurface8@@UAEKJJ@Z 004901c0 f i j_objman.obj
 0001:0008f1e0       ??_EJSurface8@@UAEPAXI@Z   004901e0 f i j_objman.obj
 0001:0008f1e0       ??_GJSurface8@@UAEPAXI@Z   004901e0 f i j_objman.obj
 0001:0008f210       ??1JSurface8@@UAE@XZ       00490210 f i j_objman.obj
 0001:0008f260       ?Release@JSurface32@@UAEXXZ 00490260 f i j_objman.obj
 0001:0008f290       ?GetIntensity@JSurface32@@UAEJJJ@Z 00490290 f i j_objman.obj
 0001:0008f2d0       ?SetPixelAlpha@JSurface32@@UAEXJJE@Z 004902d0 f i j_objman.obj
 0001:0008f2f0       ?GetPixelAlpha@JSurface32@@UAEEJJ@Z 004902f0 f i j_objman.obj
 0001:0008f310       ?SetPixelIndex@JSurface32@@UAEXJJK@Z 00490310 f i j_objman.obj
 0001:0008f390       ??_GJSurface32@@UAEPAXI@Z  00490390 f i j_objman.obj
 0001:0008f390       ??_EJSurface32@@UAEPAXI@Z  00490390 f i j_objman.obj
 0001:0008f3c0       ??1JSurface32@@UAE@XZ      004903c0 f i j_objman.obj
 0001:0008f440       ?JGXCreateThread@@YAPAVJThread@@XZ 00490440 f   j_objman.obj
 0001:0008f4a0       ?SetGrayscalePalette@JPalette@@QAEXXZ 004904a0 f   j_pal.obj
 0001:0008f4c0       ?Find@JPalette@@QAEHUtagRGBQUAD@@@Z 004904c0 f   j_pal.obj
 0001:0008f4f0       ?SetDefaultPalette@JPalette@@QAEXXZ 004904f0 f   j_pal.obj
 0001:0008f590       ?Copy@JPalette@@QAEXPAUtagRGBQUAD@@HHH@Z 00490590 f   j_pal.obj
 0001:0008f5f0       ?Clear@JPalette@@QAEXK@Z   004905f0 f   j_pal.obj
 0001:0008f630       ?Set@JPackedPalette@@QAEXAAVJPalette@@@Z 00490630 f   j_pal.obj
 0001:0008f670       ?Set@JPackedPalette@@QAEXAAV1@@Z 00490670 f   j_pal.obj
 0001:0008f690       ?Find@JPackedPalette@@QAEHK@Z 00490690 f   j_pal.obj
 0001:0008f6c0       ?Distance@JPoint@@QAENABUtagPOINT@@KK@Z 004906c0 f   j_point.obj
 0001:0008f710       ?Degree@JPoint@@QAENABUtagPOINT@@@Z 00490710 f   j_point.obj
 0001:0008f7b0       ?DegreeToDirection8@JPoint@@SA?AW4JPointDirection@@N@Z 004907b0 f   j_point.obj
 0001:0008f8b0       ?PointToTextW@JPoint@@QBEPBGXZ 004908b0 f   j_point.obj
 0001:0008f9a0       _tinymt32_init_by_array    004909a0 f   j_prng.obj
 0001:0008fc00       _genrand_ulong             00490c00 f   j_prng.obj
 0001:0008fdd0       _genrand_nativeint         00490dd0 f   j_prng.obj
 0001:0008fe80       _genrand                   00490e80 f   j_prng.obj
 0001:0008fea0       ??4JExtent@@QAEAAV0@ABVJRect@@@Z 00490ea0 f   j_rect.obj
 0001:0008fed0       ?IsIntersect@JRect@@QBE_NABUtagRECT@@@Z 00490ed0 f   j_rect.obj
 0001:0008ff10       ?ExpandToIntersect@JRect@@QAEXABUtagRECT@@@Z 00490f10 f   j_rect.obj
 0001:0008ff50       ?IsInRect@JRect@@QBE_NABUtagRECT@@@Z 00490f50 f   j_rect.obj
 0001:0008ff90       ?LimitRect@JRect@@QAEXJJ@Z 00490f90 f   j_rect.obj
 0001:0008ffd0       ?MultiplyRectH@JRect@@QAEXN@Z 00490fd0 f   j_rect.obj
 0001:00090020       ?MultiplyRectV@JRect@@QAEXN@Z 00491020 f   j_rect.obj
 0001:00090070       ?TextToRect@JRect@@QAE_NPBG@Z 00491070 f   j_rect.obj
 0001:00090150       ?RectToTextA@JRect@@QBEPBDXZ 00491150 f   j_rect.obj
 0001:00090180       ?RectToTextW@JRect@@QBEPBGXZ 00491180 f   j_rect.obj
 0001:000901b0       ?Center@JRect@@QBE?AVJPoint@@XZ 004911b0 f   j_rect.obj
 0001:000901e0       ?Distance@JRect@@QBENABV1@KKPAW4JPointDirection@@@Z 004911e0 f   j_rect.obj
 0001:00090380       ?Distance@JRect@@QBENABUtagPOINT@@KK@Z 00491380 f   j_rect.obj
 0001:00090470       ?IsEmpty@JRect@@QBE_NXZ    00491470 f   j_rect.obj
 0001:00090490       ??_4JRect@@QAEAAV0@ABUtagRECT@@@Z 00491490 f   j_rect.obj
 0001:00090520       ??0JRect@@QAE@ABVJExtent@@@Z 00491520 f   j_rect.obj
 0001:00090520       ??4JRect@@QAEAAV0@ABVJExtent@@@Z 00491520 f   j_rect.obj
 0001:00090610       ?Init@JSocketManager@@QAE_N_N0@Z 00491610 f   j_sock.obj
 0001:00090660       ?InitSSL@JSocketManager@@AAEX_N@Z 00491660 f   j_sock.obj
 0001:000910f0       ?InitSSLCTX@JSocketManager@@AAEXPAUssl_ctx_st@@@Z 004920f0 f   j_sock.obj
 0001:00091170       ?CreateSSL@JSocketManager@@QAEPAUssl_st@@I_N0PAU2@PBD@Z 00492170 f   j_sock.obj
 0001:00091240       ?SessionNewCallback@JSocketManager@@AAEHPAUssl_st@@PAUssl_session_st@@@Z 00492240 f   j_sock.obj
 0001:00091480       ??1JSocketManagerSessionCache@@QAE@XZ 00492480 f i j_sock.obj
 0001:000914d0       ?SessionRemoveCallback@JSocketManager@@AAEXPAUssl_ctx_st@@PAUssl_session_st@@@Z 004924d0 f   j_sock.obj
 0001:00091610       ?SessionGet@JSocketManager@@AAE_NPAUssl_st@@PBD@Z 00492610 f   j_sock.obj
 0001:000917a0       ?InvalidateCache@JSocketManager@@QAEXXZ 004927a0 f   j_sock.obj
 0001:000918e0       ?SessionFindIndex@JSocketManager@@AAEJPBD@Z 004928e0 f   j_sock.obj
 0001:00091930       ??1JSocketManager@@QAE@XZ  00492930 f   j_sock.obj
 0001:00091ac0       ?JSocket_SSL_Thread_Destroy@@YAXXZ 00492ac0 f   j_sock.obj
 0001:00091ad0       ?IsSSLforSSPSite@JSocket@@SA_NXZ 00492ad0 f   j_sock.obj
 0001:00091af0       ?Startup@JSocket@@SAH_N0@Z 00492af0 f   j_sock.obj
 0001:00091c10       ?Cleanup@JSocket@@SAXXZ    00492c10 f   j_sock.obj
 0001:00091c40       ?Periodic@JSocket@@SAXXZ   00492c40 f   j_sock.obj
 0001:00091c50       ?GetWSAData@JSocket@@SAPBUWSAData@@XZ 00492c50 f   j_sock.obj
 0001:00091c60       ?SetProxyMode@JSocket@@SAXW4JSocketProxyOption@@PBDH11@Z 00492c60 f   j_sock.obj
 0001:00091ed0       ??0JSocket@@QAE@XZ         00492ed0 f   j_sock.obj
 0001:00092090       ?Release@JSocket@@QAEXXZ   00493090 f   j_sock.obj
 0001:000920d0       ?AddSSLErrorLog@JSocket@@AAEX_N@Z 004930d0 f   j_sock.obj
 0001:000921a0       ?recv_wrapper@JSocket@@AAEHPADHHPAUssl_st@@_N@Z 004931a0 f   j_sock.obj
 0001:00092300       ??1JSocketSSLAddRef@@QAE@XZ 00493300 f i j_sock.obj
 0001:00092310       ?send_wrapper@JSocket@@AAEHPBDHHPAUssl_st@@_N@Z 00493310 f   j_sock.obj
 0001:000924b0       ?Connect@JSocket@@QAEHPBDH@Z 004934b0 f   j_sock.obj
 0001:00092580       ?Connect@JSocket@@QAEHABVJSockAddr@@H@Z 00493580 f   j_sock.obj
 0001:000926a0       ?ConnectReal@JSocket@@AAEHABVJSockAddr@@H@Z 004936a0 f   j_sock.obj
 0001:00092ef0       ?ConnectUDP@JSocket@@QAEHABVJSockAddr@@H@Z 00493ef0 f   j_sock.obj
 0001:00092fa0       ?SetSSLMode@JSocket@@QAE_NHPBD_N1@Z 00493fa0 f   j_sock.obj
 0001:00093010       ?SetUpperSSLMode@JSocket@@QAE_NPBD_N1@Z 00494010 f   j_sock.obj
 0001:00093050       ?SetSSLSessionResumption@JSocket@@QAEX_N@Z 00494050 f   j_sock.obj
 0001:00093060       ?SetSSLSecureMode@JSocket@@QAEX_N@Z 00494060 f   j_sock.obj
 0001:00093070       ?SetSSLEarlyData@JSocket@@QAEX_N@Z 00494070 f   j_sock.obj
 0001:000930b0       ?Status@JSocket@@QAEHXZ    004940b0 f   j_sock.obj
 0001:000930d0       ?Break@JSocket@@QAEXXZ     004940d0 f   j_sock.obj
 0001:000930f0       ?ListenUDP@JSocket@@QAEHHHABVJSockAddr@@@Z 004940f0 f   j_sock.obj
 0001:000931d0       ?AllowBroadcast@JSocket@@QAEXXZ 004941d0 f   j_sock.obj
 0001:00093200       ?Listen@JSocket@@QAEHHHABVJSockAddr@@@Z 00494200 f   j_sock.obj
 0001:00093320       ?Accept@JSocket@@QAEPAV1@XZ 00494320 f   j_sock.obj
 0001:00093340       ?AcceptFromSocket@JSocket@@SAPAV1@I_N0@Z 00494340 f   j_sock.obj
 0001:00093450       ?Close@JSocket@@QAEXW4JSocketCloseOption@@@Z 00494450 f   j_sock.obj
 0001:00093630       ?SendString@JSocket@@QAEHPBD@Z 00494630 f   j_sock.obj
 0001:00093660       ?Send@JSocket@@QAEHPBDJ@Z  00494660 f   j_sock.obj
 0001:000936d0       ?SendTo@JSocket@@QAEHVJSockAddr@@HPBDJ@Z 004946d0 f   j_sock.obj
 0001:00093800       ?RecvFrom@JSocket@@QAEHPADJAAVJSockAddr@@AAH@Z 00494800 f   j_sock.obj
 0001:00093860       ?JunkRecvData@JSocket@@AAEXPAUssl_st@@@Z 00494860 f   j_sock.obj
 0001:00093900       ?Recv@JSocket@@QAEHPADJ@Z  00494900 f   j_sock.obj
 0001:00093a30       ?RecvLineSub@JSocket@@AAEHAAD@Z 00494a30 f   j_sock.obj
 0001:00093bb0       ?RecvLine@JSocket@@QAEPADAAJ@Z 00494bb0 f   j_sock.obj
 0001:00093e40       ?AddLog@JSocket@@QAEXPBDJ@Z 00494e40 f   j_sock.obj
 0001:00093ea0       ?AddNetworkLog@JSocket@@QAEXPBG_N@Z 00494ea0 f   j_sock.obj
 0001:00093f60       ?WaitForDataIO@JSocket@@AAEHH@Z 00494f60 f   j_sock.obj
 0001:000940e0       ?AsyncSelect@JSocket@@QAEHPAXIJ@Z 004950e0 f   j_sock.obj
 0001:00094130       ?SSLRelease@JSocket@@AAEXXZ 00495130 f   j_sock.obj
 0001:00094180       ??1JSocketSSLInfo@@QAE@XZ  00495180 f i j_sock.obj
 0001:00094250       ?SetALPN@JSocket@@QAEXPBD000@Z 00495250 f   j_sock.obj
 0001:00094510       ?ProcessX509Info@JSocket@@AAEXPAUssl_st@@_N@Z 00495510 f   j_sock.obj
 0001:00094d20       ?SSLInit@JSocket@@AAE_NPBD_N1@Z 00495d20 f   j_sock.obj
 0001:00094ef0       ?SSLProcessAfterConnect@JSocket@@AAEXPAUssl_st@@H_N@Z 00495ef0 f   j_sock.obj
 0001:000953b0       ?Add@?$JArray@D@@QAEXPBDJ@Z 004963b0 f i j_sock.obj
 0001:000954e0       ?GetTypeName@JSockAddr@@SAPBDW4tagJSockAddrProtocolType@@@Z 004964e0 f   j_sockaddr.obj
 0001:00095510       ?GetConfigDispName@JSockAddr@@SAPAPBDAAK@Z 00496510 f   j_sockaddr.obj
 0001:00095530       ?GetConfig@JSockAddr@@SAKXZ 00496530 f   j_sockaddr.obj
 0001:00095540       ?GetConfigName@JSockAddr@@SAPBDK@Z 00496540 f   j_sockaddr.obj
 0001:00095560       ?SetConfig@JSockAddr@@SAKPBD@Z 00496560 f   j_sockaddr.obj
 0001:000955b0       ?IsEnable@JSockAddr@@SA_NW4tagJSockAddrProtocolType@@@Z 004965b0 f   j_sockaddr.obj
 0001:00095630       ?SetAddr@JSockAddr@@QAEXW4JSockAddrPredefinedIP@@W4tagJSockAddrProtocolType@@@Z 00496630 f   j_sockaddr.obj
 0001:000958f0       ?IsLoopbackOrIgnoreAddr@JSockAddr@@QBE_NXZ 004968f0 f   j_sockaddr.obj
 0001:00095a20       ?IsLowPriorityAddr@JSockAddr@@QBE_NXZ 00496a20 f   j_sockaddr.obj
 0001:00095a60       ?GetAddressFamily@JSockAddr@@QBEHXZ 00496a60 f   j_sockaddr.obj
 0001:00095a80       ?IsIPv6@JSockAddr@@QBE_NXZ 00496a80 f   j_sockaddr.obj
 0001:00095a90       ?IsIPv4@JSockAddr@@QBE_NXZ 00496a90 f   j_sockaddr.obj
 0001:00095aa0       ?IsIP@JSockAddr@@QBE_NXZ   00496aa0 f   j_sockaddr.obj
 0001:00095ad0       ?ToIPv4@JSockAddr@@QBEXAAK@Z 00496ad0 f   j_sockaddr.obj
 0001:00095b00       ?ToIPv4Raw@JSockAddr@@QBEXAAK@Z 00496b00 f   j_sockaddr.obj
 0001:00095b30       ?FromIPv4@JSockAddr@@QAEXK@Z 00496b30 f   j_sockaddr.obj
 0001:00095b60       ?FromIPv4Raw@JSockAddr@@QAEXK@Z 00496b60 f   j_sockaddr.obj
 0001:00095b80       ?ToIPv6@JSockAddr@@QBEXPAG@Z 00496b80 f   j_sockaddr.obj
 0001:00095be0       ?FromIPv6@JSockAddr@@QAEXPBG@Z 00496be0 f   j_sockaddr.obj
 0001:00095c10       ?ConvToIPv4@JSockAddr@@QAE_NXZ 00496c10 f   j_sockaddr.obj
 0001:00095c60       ?ConvToIPv6@JSockAddr@@QAE_NXZ 00496c60 f   j_sockaddr.obj
 0001:00095ca0       ?PrepareListen@JSockAddr@@SAXAAUsockaddr_storage@@@Z 00496ca0 f   j_sockaddr.obj
 0001:00095db0       ?AfterClose@JSockAddr@@SAXAAUsockaddr_storage@@@Z 00496db0 f   j_sockaddr.obj
 0001:00095ec0       ?FromStorage@JSockAddr@@QAE_NPAUsockaddr@@AAH@Z 00496ec0 f   j_sockaddr.obj
 0001:00095fc0       ?ToStorage@JSockAddr@@QBE_NAAUsockaddr_storage@@HAAK@Z 00496fc0 f   j_sockaddr.obj
 0001:00096110       ??8JSockAddr@@QBE_NABV0@@Z 00497110 f   j_sockaddr.obj
 0001:00096180       ??4JSockAddr@@QAEAAV0@ABV0@@Z 00497180 f   j_sockaddr.obj
 0001:000961b0       ?IPAddrToStrA@JSockAddr@@QBEPAD_N@Z 004971b0 f   j_sockaddr.obj
 0001:000963c0       _WspiapiLoad@4             004973c0 f i j_sockaddr.obj
 0001:00096590       _WspiapiLegacyFreeAddrInfo@4 00497590 f i j_sockaddr.obj
 0001:000965e0       _WspiapiLegacyGetAddrInfo@16 004975e0 f i j_sockaddr.obj
 0001:00096bb0       _WspiapiStrdup@4           00497bb0 f i j_sockaddr.obj
 0001:00096c10       _WspiapiNewAddrInfo@16     00497c10 f i j_sockaddr.obj
 0001:00096c90       _WspiapiLegacyGetNameInfo@28 00497c90 f i j_sockaddr.obj
 0001:00096eb0       ?IPAddrToStrW@JSockAddr@@QBEPAG_N@Z 00497eb0 f   j_sockaddr.obj
 0001:00097000       ?GetAddrInfo@JSockAddr@@AAE_NPBDHHPAV1@@Z 00498000 f   j_sockaddr.obj
 0001:00097690       ?TranslateNumName@JSockAddr@@QAE_NPBD@Z 00498690 f   j_sockaddr.obj
 0001:000976b0       ?ResolveName@JSockAddr@@QAE_NPBDPAV1@@Z 004986b0 f   j_sockaddr.obj
 0001:000977e0       ?First@JSockAddrLocal@@QAEABVJSockAddr@@XZ 004987e0 f   j_sockaddr.obj
 0001:00097800       ?FirstIPv4@JSockAddrLocal@@QAEABVJSockAddr@@XZ 00498800 f   j_sockaddr.obj
 0001:00097870       ?FirstIPv6@JSockAddrLocal@@QAEABVJSockAddr@@XZ 00498870 f   j_sockaddr.obj
 0001:000978e0       ?IsOnline@JSockAddrLocal@@QAE_NXZ 004988e0 f   j_sockaddr.obj
 0001:00097920       ?GetLocalAddrList@JSockAddrLocal@@QAEPBVJSockAddr@@AAK@Z 00498920 f   j_sockaddr.obj
 0001:00097950       ?GetHostName@JSockAddrLocal@@QAEPBDXZ 00498950 f   j_sockaddr.obj
 0001:00097970       ?FindLocalAddr@JSockAddrLocal@@QAE_NABVJSockAddr@@@Z 00498970 f   j_sockaddr.obj
 0001:000979a0       ?FindLocalAddrInternal@JSockAddrLocal@@AAE_NABVJSockAddr@@@Z 004989a0 f   j_sockaddr.obj
 0001:000979f0       ?LocalAddrGet@JSockAddrLocal@@QAEXI@Z 004989f0 f   j_sockaddr.obj
 0001:00097b90       ?EnumLocalAddr@JSockAddrLocal@@QAEXXZ 00498b90 f   j_sockaddr.obj
 0001:00097c60       ?IsLocalAddr@JSockAddr@@QBE_NXZ 00498c60 f   j_sockaddr.obj
 0001:00097cc0       ??0JSockAddrLocal@@QAE@XZ  00498cc0 f i j_sockaddr.obj
 0001:00097d70       ?GetLocalAddr@JSockAddr@@SAABV1@XZ 00498d70 f   j_sockaddr.obj
 0001:00097d80       ?GetLocalAddrIPv4@JSockAddr@@SAABV1@XZ 00498d80 f   j_sockaddr.obj
 0001:00097d90       ?GetLocalAddrIPv6@JSockAddr@@SAABV1@XZ 00498d90 f   j_sockaddr.obj
 0001:00097da0       ?GetLocalAddrList@JSockAddr@@SAPBV1@AAK@Z 00498da0 f   j_sockaddr.obj
 0001:00097dc0       ?GetHostName@JSockAddr@@SAPBDXZ 00498dc0 f   j_sockaddr.obj
 0001:00097dd0       ?IsOnline@JSockAddr@@SA_NXZ 00498dd0 f   j_sockaddr.obj
 0001:00097de0       ??0JTokenStream@@QAE@XZ    00498de0 f   j_stoken.obj
 0001:00097e10       ??1JTokenStream@@QAE@XZ    00498e10 f   j_stoken.obj
 0001:00097e20       ?ReadEOL@JTokenStream@@IAEIAAPAD@Z 00498e20 f   j_stoken.obj
 0001:00097ec0       ?SetSeparator@JTokenStream@@QAEXD@Z 00498ec0 f   j_stoken.obj
 0001:00097ee0       ?OpenInternal@JTokenStream@@AAEHPBGPBD@Z 00498ee0 f   j_stoken.obj
 0001:00098020       ?Open@JTokenStream@@QAEHPBG@Z 00499020 f   j_stoken.obj
 0001:00098040       ?Open@JTokenStream@@QAEHKPAD@Z 00499040 f   j_stoken.obj
 0001:00098090       ?Init@JTokenStream@@IAEXPAX@Z 00499090 f   j_stoken.obj
 0001:00098150       ?Close@JTokenStream@@QAEXXZ 00499150 f   j_stoken.obj
 0001:00098180       ?ReadToFileEnd@JTokenStream@@QAEPADXZ 00499180 f   j_stoken.obj
 0001:00098190       ?ReadToken@JTokenStream@@IAEPADH@Z 00499190 f   j_stoken.obj
 0001:000981d0       ?NextToken@JTokenStream@@IAEHH@Z 004991d0 f   j_stoken.obj
 0001:00098310       ?IsNextLineExist@JTokenStream@@QAE_NXZ 00499310 f   j_stoken.obj
 0001:00098330       ?NextLineIfNotLineEnd@JTokenStream@@QAEHXZ 00499330 f   j_stoken.obj
 0001:00098350       ?ProcessReturnPointer@JTokenStream@@IAEPADPAD@Z 00499350 f   j_stoken.obj
 0001:000983c0       ??1JString@@QAE@XZ         004993c0 f   j_str.obj
 0001:000983c0       ??1JWString@@QAE@XZ        004993c0 f   j_str.obj
 0001:000983f0       ??4JString@@QAEAAV0@PBD@Z  004993f0 f   j_str.obj
 0001:000984d0       ??4JString@@QAEAAV0@ABV0@@Z 004994d0 f   j_str.obj
 0001:00098610       ?Cat@JString@@QAEXPBDK@Z   00499610 f   j_str.obj
 0001:000986c0       ??9JString@@QBE_NPBD@Z     004996c0 f   j_str.obj
 0001:000986e0       ?Remove@JString@@QAE_NPBD@Z 004996e0 f   j_str.obj
 0001:000987e0       ?Remove@JString@@QAE_NJJ@Z 004997e0 f   j_str.obj
 0001:00098880       ?RemoveLast@JString@@QAEXJ@Z 00499880 f   j_str.obj
 0001:00098960       ?Replace@JString@@QAEHPBD0@Z 00499960 f   j_str.obj
 0001:00098b70       ?Replace@JString@@QAEHDD@Z 00499b70 f   j_str.obj
 0001:00098bb0       ?ReplaceCharList@JString@@QAEHPBDD@Z 00499bb0 f   j_str.obj
 0001:00098c00       ?FindList@JString@@QBEJPBDJKPAJ@Z 00499c00 f   j_str.obj
 0001:00098c70       ?Insert@JString@@QAEHKPBD@Z 00499c70 f   j_str.obj
 0001:00098df0       ?ConvEUCKRtoISOKR@JString@@QAEHXZ 00499df0 f   j_str.obj
 0001:000990e0       ?ConvHZtoGB2312@JString@@QAEHXZ 0049a0e0 f   j_str.obj
 0001:00099190       ?ConvGB2312toHZ@JString@@QAEHXZ 0049a190 f   j_str.obj
 0001:00099430       ?ConvEUCtoSJIS@JString@@QAEHXZ 0049a430 f   j_str.obj
 0001:00099570       ?ConvSJIStoEUC@JString@@QAEHXZ 0049a570 f   j_str.obj
 0001:00099870       ?ConvISOtoWindows@JString@@AAEHXZ 0049a870 f   j_str.obj
 0001:000999d0       ?ConvSJIStoJIS@JString@@QAEHXZ 0049a9d0 f   j_str.obj
 0001:00099d70       ??0JString@@QAE@ABVJWString@@@Z 0049ad70 f   j_str.obj
 0001:00099dc0       ??0JString@@QAE@ABVJWString@@H@Z 0049adc0 f   j_str.obj
 0001:00099e10       ??0JString@@QAE@PBGH@Z     0049ae10 f   j_str.obj
 0001:00099e70       ??0JString@@QAE@PBG@Z      0049ae70 f   j_str.obj
 0001:00099ec0       ??4JString@@QAEAAV0@ABVJWString@@@Z 0049aec0 f   j_str.obj
 0001:00099ee0       ??4JString@@QAEAAV0@PBG@Z  0049aee0 f   j_str.obj
 0001:00099f00       ??4JString@@QAEAAV0@ABVJWStrASCII@@@Z 0049af00 f   j_str.obj
 0001:00099f20       ??YJString@@QAEAAV0@ABVJWStrASCII@@@Z 0049af20 f   j_str.obj
 0001:0009a090       ?ToMbs@JString@@QAEKABVJWString@@PBD@Z 0049b090 f   j_str.obj
 0001:0009a0b0       ?ToMbs@JString@@QAEKABVJWString@@H@Z 0049b0b0 f   j_str.obj
 0001:0009a0d0       ?ToMbs@JString@@QAEKPBGPBD@Z 0049b0d0 f   j_str.obj
 0001:0009a200       ?ToMbs@JString@@QAEKPBGH@Z 0049b200 f   j_str.obj
 0001:0009a420       ?ToMbsFunc@JString@@QAEKPBGH@Z 0049b420 f   j_str.obj
 0001:0009a5b0       ?ConvUnicodeToUTF8@JString@@QAEKPBG@Z 0049b5b0 f   j_str.obj
 0001:0009a860       ?Add@JString@@QAEXD@Z      0049b860 f i j_str.obj
 0001:0009a9b0       ?SwapBuffer@?$JArray@D@@QAEXAAV1@@Z 0049b9b0 f i j_str.obj
 0001:0009ab60       ?JGXCreateStreamObject@@YAPAVJStreamObject@@XZ 0049bb60 f   j_stream.obj
 0001:0009abc0       ?Create@JSurface32@@UAEHPAVJSurfaceObject@@JJJ@Z 0049bbc0 f   j_surf32.obj
 0001:0009ac20       ?Create@JSurface32@@UAEHJJJ@Z 0049bc20 f   j_surf32.obj
 0001:0009ac90       ?CopyFrom@JSurface32@@UAEHJJJJPAVJSurface@@JJ@Z 0049bc90 f   j_surf32.obj
 0001:0009ad20       ?CopyKey@JSurface32@@UAEHJJJJPAVJSurface@@JJ@Z 0049bd20 f   j_surf32.obj
 0001:0009ae00       ?ColorFill@JSurface32@@UAEHJJJJK@Z 0049be00 f   j_surf32.obj
 0001:0009ae90       ?AlphaFill@JSurface32@@UAEHJJJJE@Z 0049be90 f   j_surf32.obj
 0001:0009aee0       ?CopyAlpha@JSurface32@@UAEHJJJJPAVJSurface@@JJ@Z 0049bee0 f   j_surf32.obj
 0001:0009b110       ?ColorFillAlpha@JSurface32@@UAEHJJJJKE@Z 0049c110 f   j_surf32.obj
 0001:0009b220       ?StretchCopy@JSurface32@@UAEHJJJJPAVJSurface@@JJJJ@Z 0049c220 f   j_surf32.obj
 0001:0009b590       ?StretchCopyEx@JSurface32@@UAEHJJJJPAVJSurface@@JJJJPAJ1@Z 0049c590 f   j_surf32.obj
 0001:0009b960       ?ZoomCopy@JSurface32@@UAEHJJJJPAVJSurface@@JJJJJJ@Z 0049c960 f   j_surf32.obj
 0001:0009bb40       ?CopyAND@JSurface32@@UAEHJJJJPAVJSurface@@JJ@Z 0049cb40 f   j_surf32.obj
 0001:0009bc60       ?CopyOR@JSurface32@@UAEHJJJJPAVJSurface@@JJ@Z 0049cc60 f   j_surf32.obj
 0001:0009bd80       ?CopyXOR@JSurface32@@UAEHJJJJPAVJSurface@@JJ@Z 0049cd80 f   j_surf32.obj
 0001:0009bea0       ?CopyNOT@JSurface32@@UAEHJJJJPAVJSurface@@JJ@Z 0049cea0 f   j_surf32.obj
 0001:0009bfd0       ?CopyNAND@JSurface32@@UAEHJJJJPAVJSurface@@JJ@Z 0049cfd0 f   j_surf32.obj
 0001:0009c100       ?CopyNOR@JSurface32@@UAEHJJJJPAVJSurface@@JJ@Z 0049d100 f   j_surf32.obj
 0001:0009c230       ?BlendFill@JSurface32@@UAEHJJJJKPAVJSurface@@E@Z 0049d230 f   j_surf32.obj
 0001:0009c5b0       ?BlendDarken@JSurface32@@UAEHJJJJPAVJSurface@@JJ0@Z 0049d5b0 f   j_surf32.obj
 0001:0009ca00       ?BlendLighten@JSurface32@@UAEHJJJJPAVJSurface@@JJ0@Z 0049da00 f   j_surf32.obj
 0001:0009ce30       ?BlendLuminosity@JSurface32@@UAEHJJJJPAVJSurface@@JJ0@Z 0049de30 f   j_surf32.obj
 0001:0009ce30       ?BlendHue@JSurface32@@UAEHJJJJPAVJSurface@@JJ0@Z 0049de30 f   j_surf32.obj
 0001:0009ce30       ?BlendOverlay@JSurface32@@UAEHJJJJPAVJSurface@@JJ0@Z 0049de30 f   j_surf32.obj
 0001:0009ce30       ?BlendNormal@JSurface32@@UAEHJJJJPAVJSurface@@JJ0@Z 0049de30 f   j_surf32.obj
 0001:0009ce30       ?BlendSaturation@JSurface32@@UAEHJJJJPAVJSurface@@JJ0@Z 0049de30 f   j_surf32.obj
 0001:0009ce30       ?BlendColor@JSurface32@@UAEHJJJJPAVJSurface@@JJ0@Z 0049de30 f   j_surf32.obj
 0001:0009d2c0       ?BlendMultiply@JSurface32@@UAEHJJJJPAVJSurface@@JJ0@Z 0049e2c0 f   j_surf32.obj
 0001:0009d740       ?BlendScreen@JSurface32@@UAEHJJJJPAVJSurface@@JJ0@Z 0049e740 f   j_surf32.obj
 0001:0009dc20       ?BlendDissolve@JSurface32@@UAEHJJJJPAVJSurface@@JJ0@Z 0049ec20 f   j_surf32.obj
 0001:0009df90       ?BlendHardLight@JSurface32@@UAEHJJJJPAVJSurface@@JJ0@Z 0049ef90 f   j_surf32.obj
 0001:0009e550       ?BlendSoftLight@JSurface32@@UAEHJJJJPAVJSurface@@JJ0@Z 0049f550 f   j_surf32.obj
 0001:0009eaf0       ?BlendDifference@JSurface32@@UAEHJJJJPAVJSurface@@JJ0@Z 0049faf0 f   j_surf32.obj
 0001:0009eff0       ?AlphaPlaneSet@JSurface32@@UAEXPBEE_N@Z 0049fff0 f   j_surf32.obj
 0001:0009f100       ?AlphaPlaneGet@JSurface32@@UAEPAEXZ 004a0100 f   j_surf32.obj
 0001:0009f180       ?AlphaPlaneInvert@JSurface32@@UAEXXZ 004a0180 f   j_surf32.obj
 0001:0009f1e0       ?AlphaPlaneFill@JSurface32@@UAEXE@Z 004a01e0 f   j_surf32.obj
 0001:0009f240       ?Create@JSurface8@@UAEHPAVJSurfaceObject@@JJJ@Z 004a0240 f   j_surf8.obj
 0001:0009f2a0       ?Create@JSurface8@@UAEHJJJ@Z 004a02a0 f   j_surf8.obj
 0001:0009f310       ?CopyFrom@JSurface8@@UAEHJJJJPAVJSurface@@JJ@Z 004a0310 f   j_surf8.obj
 0001:0009f3b0       ?ColorFill@JSurface8@@UAEHJJJJK@Z 004a03b0 f   j_surf8.obj
 0001:0009f450       ?CopyAlpha@JSurface8@@UAEHJJJJPAVJSurface@@JJ@Z 004a0450 f   j_surf8.obj
 0001:0009f580       ?ColorFillAlpha@JSurface8@@UAEHJJJJKE@Z 004a0580 f   j_surf8.obj
 0001:0009f610       ?StretchCopy@JSurface8@@UAEHJJJJPAVJSurface@@JJJJ@Z 004a0610 f   j_surf8.obj
 0001:0009f940       ?StretchCopyEx@JSurface8@@UAEHJJJJPAVJSurface@@JJJJPAJ1@Z 004a0940 f   j_surf8.obj
 0001:0009fca0       ?CopyAND@JSurface8@@UAEHJJJJPAVJSurface@@JJ@Z 004a0ca0 f   j_surf8.obj
 0001:0009fdc0       ?CopyOR@JSurface8@@UAEHJJJJPAVJSurface@@JJ@Z 004a0dc0 f   j_surf8.obj
 0001:0009fee0       ?CopyXOR@JSurface8@@UAEHJJJJPAVJSurface@@JJ@Z 004a0ee0 f   j_surf8.obj
 0001:000a0000       ?CopyNOT@JSurface8@@UAEHJJJJPAVJSurface@@JJ@Z 004a1000 f   j_surf8.obj
 0001:000a0130       ?CopyNAND@JSurface8@@UAEHJJJJPAVJSurface@@JJ@Z 004a1130 f   j_surf8.obj
 0001:000a0260       ?CopyNOR@JSurface8@@UAEHJJJJPAVJSurface@@JJ@Z 004a1260 f   j_surf8.obj
 0001:000a0390       ?SetupSurface@JSurface@@UAEHXZ 004a1390 f   j_surfc.obj
 0001:000a0420       ?Release@JSurface@@UAEXXZ  004a1420 f   j_surfc.obj
 0001:000a0460       ?AdjustParameters@JSurface@@QAEHPAV1@AAJ11111@Z 004a1460 f   j_surfc.obj
 0001:000a0560       ??_GJThread@@UAEPAXI@Z     004a1560 f i j_thread.obj
 0001:000a0560       ??_EJThread@@UAEPAXI@Z     004a1560 f i j_thread.obj
 0001:000a0590       ?SetLoop@JThread@@QAEXPAVJThreadLoop@@@Z 004a1590 f   j_thread.obj
 0001:000a05a0       ?GetDayOfWeekStatic@JTime@@SAHHHH@Z 004a15a0 f   j_time.obj
 0001:000a0620       ?ToString@JTime@@QBEXAAVJWString@@G@Z 004a1620 f   j_time.obj
 0001:000a0880       ??YJString@@QAEAAV0@PBD@Z  004a1880 f i j_time.obj
 0001:000a08c0       ??4JTime@@QAEAAV0@ABV0@@Z  004a18c0 f   j_time.obj
 0001:000a0900       ??8JTime@@QBE_NABV0@@Z     004a1900 f   j_time.obj
 0001:000a0980       ??MJTime@@QBE_NABV0@@Z     004a1980 f   j_time.obj
 0001:000a0a10       ??NJTime@@QBE_NABV0@@Z     004a1a10 f   j_time.obj
 0001:000a0aa0       ??0JWinFile@@QAE@XZ        004a1aa0 f   j_winfile.obj
 0001:000a0ac0       ?Length@JStreamObject@@UAEKXZ 004a1ac0 f i j_winfile.obj
 0001:000a0ac0       ?GetNum@?$JArray@J@@QBEKXZ 004a1ac0 f i j_winfile.obj
 0001:000a0ad0       ??_GJWinFile@@UAEPAXI@Z    004a1ad0 f i j_winfile.obj
 0001:000a0ad0       ??_EJWinFile@@UAEPAXI@Z    004a1ad0 f i j_winfile.obj
 0001:000a0b00       ??1JWinFile@@UAE@XZ        004a1b00 f   j_winfile.obj
 0001:000a0b50       ??1JStreamObject@@UAE@XZ   004a1b50 f i j_winfile.obj
 0001:000a0b60       ??_EJStreamObject@@UAEPAXI@Z 004a1b60 f i j_winfile.obj
 0001:000a0b60       ??_GJStreamObject@@UAEPAXI@Z 004a1b60 f i j_winfile.obj
 0001:000a0b90       ?Open@JWinFile@@UAEHPBDH@Z 004a1b90 f   j_winfile.obj
 0001:000a0c40       ?OpenW@JWinFile@@UAEHPBGH@Z 004a1c40 f   j_winfile.obj
 0001:000a0d80       ?Close@JWinFile@@UAEXXZ    004a1d80 f   j_winfile.obj
 0001:000a0db0       ?Read@JWinFile@@UAEEXZ     004a1db0 f   j_winfile.obj
 0001:000a0df0       ?Read@JWinFile@@UAEKPAXK@Z 004a1df0 f   j_winfile.obj
 0001:000a0e20       ?Write@JWinFile@@UAEKE@Z   004a1e20 f   j_winfile.obj
 0001:000a0e60       ?Write@JWinFile@@UAEKPBXK@Z 004a1e60 f   j_winfile.obj
 0001:000a0ea0       ?Seek@JWinFile@@UAEHJH@Z   004a1ea0 f   j_winfile.obj
 0001:000a0f00       ?Flush@JWinFile@@UAEXXZ    004a1f00 f   j_winfile.obj
 0001:000a0f20       ?Eof@JWinFile@@UAEXXZ      004a1f20 f   j_winfile.obj
 0001:000a0f40       ??0JWinThread@@QAE@XZ      004a1f40 f   j_wintrd.obj
 0001:000a0fb0       ??1JThread@@UAE@XZ         004a1fb0 f i j_wintrd.obj
 0001:000a0fc0       ?Handle@JWinThread@@UAEPAXXZ 004a1fc0 f i j_wintrd.obj
 0001:000a0fd0       ?IsSuspend@JWinThread@@UAE_NXZ 004a1fd0 f i j_wintrd.obj
 0001:000a0fe0       ?IsThreadStarted@JWinThread@@UAEHXZ 004a1fe0 f i j_wintrd.obj
 0001:000a0ff0       ?SetMsgQueueNeed@JWinThread@@UAEX_N@Z 004a1ff0 f i j_wintrd.obj
 0001:000a1000       ?GetMsgQueueNeed@JWinThread@@UAE_NXZ 004a2000 f i j_wintrd.obj
 0001:000a1010       ?SetMultiThreadCapable@JWinThread@@UAEX_N@Z 004a2010 f i j_wintrd.obj
 0001:000a1020       ?GetMultiThreadCapable@JWinThread@@UAE_NXZ 004a2020 f i j_wintrd.obj
 0001:000a1030       ?Lock@JWinThread@@UAE_NJ@Z 004a2030 f i j_wintrd.obj
 0001:000a1040       ?Unlock@JWinThread@@UAEXXZ 004a2040 f i j_wintrd.obj
 0001:000a1050       ??_GJWinThread@@UAEPAXI@Z  004a2050 f i j_wintrd.obj
 0001:000a1050       ??_EJWinThread@@UAEPAXI@Z  004a2050 f i j_wintrd.obj
 0001:000a1080       ??1JWinThread@@UAE@XZ      004a2080 f   j_wintrd.obj
 0001:000a10e0       ?Start@JWinThread@@UAEHJ@Z 004a20e0 f   j_wintrd.obj
 0001:000a1190       ?Suspend@JWinThread@@UAEHXZ 004a2190 f   j_wintrd.obj
 0001:000a11b0       ?Resume@JWinThread@@UAEHXZ 004a21b0 f   j_wintrd.obj
 0001:000a11d0       ?ForceResume@JWinThread@@UAEHXZ 004a21d0 f   j_wintrd.obj
 0001:000a11f0       ?Exit@JWinThread@@UAEHXZ   004a21f0 f   j_wintrd.obj
 0001:000a1240       ?Terminate@JWinThread@@UAEHXZ 004a2240 f   j_wintrd.obj
 0001:000a1290       ?Release@JWinThread@@QAEXXZ 004a2290 f   j_wintrd.obj
 0001:000a12a0       ?SetPriority@JWinThread@@UAEXH@Z 004a22a0 f   j_wintrd.obj
 0001:000a1300       ?SetInterval@JWinThread@@UAEHJ@Z 004a2300 f   j_wintrd.obj
 0001:000a1440       ?Sleep@JWinThread@@UAEHJ@Z 004a2440 f   j_wintrd.obj
 0001:000a1480       ?WaitForThreadRelease@JWinThread@@UAEHH@Z 004a2480 f   j_wintrd.obj
 0001:000a14d0       ?PostQueue@JWinThread@@UAE_NHPAX@Z 004a24d0 f   j_wintrd.obj
 0001:000a1520       ?TranslateDispatchMessage@JWinThread@@SAHAAUtagMSG@@@Z 004a2520 f   j_wintrd.obj
 0001:000a1540       ?GetQueue@JWinThread@@UAEPAXAAH@Z 004a2540 f   j_wintrd.obj
 0001:000a1630       ?InitEssentialRuntime@JWinThread@@SAX_N@Z 004a2630 f   j_wintrd.obj
 0001:000a16b0       ?ProcessLastMessages@JWinThread@@SAXXZ 004a26b0 f   j_wintrd.obj
 0001:000a1710       ?UninitEssentialRuntime@JWinThread@@SAX_N0@Z 004a2710 f   j_wintrd.obj
 0001:000a1750       ?InitLocale@JWinThread@@SAXXZ 004a2750 f   j_wintrd.obj
 0001:000a17a0       ?JGXGetLocaleTable@@YAPBUtagJGX_LOCALE_TABLE@@XZ 004a27a0 f   j_wstr.obj
 0001:000a17b0       ?JGXGetCodePageTable@@YAPBHXZ 004a27b0 f   j_wstr.obj
 0001:000a17f0       ??0JGXCodepageTable@@QAE@XZ 004a27f0 f i j_wstr.obj
 0001:000a19a0       ??4JWString@@QAEAAV0@PBG@Z 004a29a0 f   j_wstr.obj
 0001:000a1a80       ??4JWString@@QAEAAV0@ABV0@@Z 004a2a80 f   j_wstr.obj
 0001:000a1bd0       ?Cat@JWString@@QAEXPBGK@Z  004a2bd0 f   j_wstr.obj
 0001:000a1c90       ?Remove@JWString@@QAE_NPBG@Z 004a2c90 f   j_wstr.obj
 0001:000a1da0       ?RemoveLast@JWString@@QAEXJ@Z 004a2da0 f   j_wstr.obj
 0001:000a1e90       ?RemoveToLast@JWString@@QAEXJ@Z 004a2e90 f   j_wstr.obj
 0001:000a1f30       ?Remove@JWString@@QAE_NJJ@Z 004a2f30 f   j_wstr.obj
 0001:000a1fd0       ?Replace@JWString@@QAEHPBG0J@Z 004a2fd0 f   j_wstr.obj
 0001:000a21f0       ?Replace@JWString@@QAEHGG@Z 004a31f0 f   j_wstr.obj
 0001:000a2230       ?ReplaceCharList@JWString@@QAEHPBGG@Z 004a3230 f   j_wstr.obj
 0001:000a2290       ?ReplacePathChar@JWString@@QAEHG@Z 004a3290 f   j_wstr.obj
 0001:000a2310       ?ReplaceCharTable@JWString@@QAEHPBG0@Z 004a3310 f   j_wstr.obj
 0001:000a2380       ?Find@JWString@@QBEJPBGJ@Z 004a3380 f   j_wstr.obj
 0001:000a23b0       ?FindList@JWString@@QBEJPBGJKPAJ@Z 004a33b0 f   j_wstr.obj
 0001:000a2430       ?ReverseFind@JWString@@QBEJPBGJ@Z 004a3430 f   j_wstr.obj
 0001:000a2490       ?ReverseFindList@JWString@@QBEJPBGJK@Z 004a3490 f   j_wstr.obj
 0001:000a2500       ?Replace@JWString@@QAEHKKPBG@Z 004a3500 f   j_wstr.obj
 0001:000a2670       ?Extract@JWString@@QBE?AV1@KK@Z 004a3670 f   j_wstr.obj
 0001:000a2800       ?ExtractRight@JWString@@QBE?AV1@K@Z 004a3800 f   j_wstr.obj
 0001:000a2870       ?ExtractLeft@JWString@@QBE?AV1@K@Z 004a3870 f   j_wstr.obj
 0001:000a29b0       ?Insert@JWString@@QAEHKPBG@Z 004a39b0 f   j_wstr.obj
 0001:000a2b40       ?Insert@JWString@@QAEHKG@Z 004a3b40 f   j_wstr.obj
 0001:000a2c80       ??YJWString@@QAEAAV0@PBD@Z 004a3c80 f   j_wstr.obj
 0001:000a2cf0       ??YJWString@@QAEAAV0@ABVJStrASCII@@@Z 004a3cf0 f   j_wstr.obj
 0001:000a2e60       ?ConvUTF8ToUnicode@JWString@@AAEKPBD@Z 004a3e60 f   j_wstr.obj
 0001:000a3130       ?NormalizeMSUnicode@JWString@@QAEXXZ 004a4130 f   j_wstr.obj
 0001:000a31a0       ?InitDefaultCodePage@JWString@@SAXXZ 004a41a0 f   j_wstr.obj
 0001:000a3210       ?GetDefaultCodePage@JWString@@SAHXZ 004a4210 f   j_wstr.obj
 0001:000a3220       ?GetLocaleDefaultCodePage@JWString@@SAHXZ 004a4220 f   j_wstr.obj
 0001:000a3230       ?GetCodePage@JWString@@SAHPBD_N@Z 004a4230 f   j_wstr.obj
 0001:000a3370       ?GetCodePageText@JWString@@SAPBDH@Z 004a4370 f   j_wstr.obj
 0001:000a33a0       ?ToUnicode@JWString@@QAEKPBD0@Z 004a43a0 f   j_wstr.obj
 0001:000a34e0       ?ToUnicode@JWString@@QAEKPBDH@Z 004a44e0 f   j_wstr.obj
 0001:000a3780       ?ToUnicodeFunc@JWString@@AAEKPBDH@Z 004a4780 f   j_wstr.obj
 0001:000a38b0       ?JGXMakeSystemPath@@YAPBDPBD@Z 004a48b0 f   jgxbase.obj
 0001:000a39b0       ?IsNT@@YA_NXZ              004a49b0 f   jgxbase.obj
 0001:000a3a40       ?strchr_list@@YAPADPADPBD@Z 004a4a40 f   libc_custom.obj
 0001:000a3a80       ?strtod_impl@@YANPBDPAPAD@Z 004a4a80 f   libc_custom.obj
 0001:000a3ba0       ?wcstod_impl@@YANPBGPAPAG@Z 004a4ba0 f   libc_custom.obj
 0001:000a3c10       ?atol_impl@@YAJPBD@Z       004a4c10 f   libc_custom.obj
 0001:000a3c60       ?atoul_impl@@YAKPBD@Z      004a4c60 f   libc_custom.obj
 0001:000a3cb0       ?wtol_impl@@YAJPBG@Z       004a4cb0 f   libc_custom.obj
 0001:000a3d20       ?wtoul_impl@@YAKPBG@Z      004a4d20 f   libc_custom.obj
 0001:000a3d90       ?strtoll_impl@@YA_JPBDPAPADH@Z 004a4d90 f   libc_custom.obj
 0001:000a3f80       ?strtoull_impl@@YA_KPBDPAPADH@Z 004a4f80 f   libc_custom.obj
 0001:000a4180       ?ltostr@@YAPBDJ@Z          004a5180 f   libc_custom.obj
 0001:000a41b0       ?ultowcs@@YAPBGK@Z         004a51b0 f   libc_custom.obj
 0001:000a41e0       ?ltowcs@@YAPBGJ@Z          004a51e0 f   libc_custom.obj
 0001:000a4210       ?stricmp_custom@@YAHPBD0@Z 004a5210 f   libc_custom.obj
 0001:000a4290       ?wcsicmp_custom@@YAHPBG0@Z 004a5290 f   libc_custom.obj
 0001:000a4340       ?strnicmp_custom@@YAHPBD0I@Z 004a5340 f   libc_custom.obj
 0001:000a43e0       ?wcsnicmp_custom@@YAHPBG0I@Z 004a53e0 f   libc_custom.obj
 0001:000a44b0       ?stricmp_opt@@YAHPBD0@Z    004a54b0 f   libc_custom.obj
 0001:000a4530       ?wcsicmp_opt@@YAHPBG0@Z    004a5530 f   libc_custom.obj
 0001:000a45c0       ?strnicmp_opt@@YAHPBD0I@Z  004a55c0 f   libc_custom.obj
 0001:000a4650       ?wcsnicmp_opt@@YAHPBG0I@Z  004a5650 f   libc_custom.obj
 0001:000a4710       ?strstri_custom@@YAPADPBD0@Z 004a5710 f   libc_custom.obj
 0001:000a47e0       ?wcsstri_custom@@YAPAGPBG0@Z 004a57e0 f   libc_custom.obj
 0001:000a4910       ?strstri_opt@@YAPADPBD0@Z  004a5910 f   libc_custom.obj
 0001:000a49d0       ?wcsstri_opt@@YAPAGPBG0@Z  004a59d0 f   libc_custom.obj
 0001:000a4ad0       ?wcs_cutctrlchar@@YAPAGPAG@Z 004a5ad0 f   libc_custom.obj
 0001:000a4b40       ?wcs_isemptystring@@YA_NPBG@Z 004a5b40 f   libc_custom.obj
 0001:000a4b80       ?wcsicmpex@@YAHPBG0@Z      004a5b80 f   libc_custom.obj
 0001:000a4ef0       ?wcsnicmpex@@YAHPBG0I@Z    004a5ef0 f   libc_custom.obj
 0001:000a5150       ?wcsstriex@@YAPBGPBG0@Z    004a6150 f   libc_custom.obj
 0001:000a51d0       ?wcsicmp_printchar@@YAHPBG0@Z 004a61d0 f   libc_custom.obj
 0001:000a5290       ?wcsicmp_trivial@@YAHPBG0@Z 004a6290 f   libc_custom.obj
 0001:000a5440       ?wcsrchr_list@@YAPBGPBG0@Z 004a6440 f   libc_custom.obj
 0001:000a5480       ?wcsrchr_path@@YAPAGPAG@Z  004a6480 f   libc_custom.obj
 0001:000a54a0       ?wcsrchr_path@@YAPBGPBG@Z  004a64a0 f   libc_custom.obj
 0001:000a54c0       ?mbsrchr_path@@YAPADPAD@Z  004a64c0 f   libc_custom.obj
 0001:000a54e0       ?mbsrchr_path@@YAPBDPBD@Z  004a64e0 f   libc_custom.obj
 0001:000a5510       ?wcsicmp_equal_wildcard@@YA_NPBG0I@Z 004a6510 f   libc_custom.obj
 0001:000a55f0       ?strlcat@@YAIPADPBDI@Z     004a65f0 f   libc_custom.obj
 0001:000a5670       ?wcslcat@@YAIPAGPBGI@Z     004a6670 f   libc_custom.obj
 0001:000a5700       ?strlcpy@@YAIPADPBDI@Z     004a6700 f   libc_custom.obj
 0001:000a5760       ?wcslcpy@@YAIPAGPBGI@Z     004a6760 f   libc_custom.obj
 0001:000a57d0       _MMAG_hanalyze             004a67d0 f   M2BC.OBJ
 0001:000a5ac0       _MMAG_getpc                004a6ac0 f   M2BC.OBJ
 0001:000a5b70       _MMAG_decordMagPixel       004a6b70 f   M2BC.OBJ
 0001:000a5dd0       _pi_read_init              004a6dd0 f   piread.obj
 0001:000a5df0       _pi_read_end               004a6df0 f   piread.obj
 0001:000a5e10       _pi_read_header            004a6e10 f   piread.obj
 0001:000a61b0       _pi_read_palette           004a71b0 f   piread.obj
 0001:000a6290       _pi_read_row_init          004a7290 f   piread.obj
 0001:000a6520       _pi_read_image             004a7520 f   piread.obj
 0001:000a6560       _pi_read_row               004a7560 f   piread.obj
 0001:000a6ca0       _pi_read_init_io           004a7ca0 f   piread.obj
 0001:000a6ce0       _pi_read_end_io            004a7ce0 f   piread.obj
 0001:000a6d40       _sp_resetstkoflw           004a7d40 f   resetstk.obj
 0001:000a6ec0       ??0SPAdjustPrivADVAPI32@@QAE@XZ 004a7ec0 f   sp_adjustpriv.obj
 0001:000a6fe0       ??1SPAdjustPrivADVAPI32@@QAE@XZ 004a7fe0 f   sp_adjustpriv.obj
 0001:000a7040       ?OpenProcessToken@SPAdjustPrivADVAPI32@@QAEHPAXKPAPAX@Z 004a8040 f   sp_adjustpriv.obj
 0001:000a7070       ?OpenThreadToken@SPAdjustPrivADVAPI32@@QAEHPAXKHPAPAX@Z 004a8070 f   sp_adjustpriv.obj
 0001:000a70a0       ?LookupPrivilegeValueA@SPAdjustPrivADVAPI32@@QAEHPAD0PAU_LUID@@@Z 004a80a0 f   sp_adjustpriv.obj
 0001:000a70d0       ?AdjustTokenPrivileges@SPAdjustPrivADVAPI32@@QAEHPAXHPAU_TOKEN_PRIVILEGES@@K1PAK@Z 004a80d0 f   sp_adjustpriv.obj
 0001:000a7100       ?GetTokenInformation@SPAdjustPrivADVAPI32@@QAEHPAXW4INFO_TOKEN_INFORMATION_CLASS@@0KPAK@Z 004a8100 f   sp_adjustpriv.obj
 0001:000a7130       ??0SPAdjustPriv@@QAE@PADH@Z 004a8130 f   sp_adjustpriv.obj
 0001:000a7220       ??1SPAdjustPriv@@QAE@XZ    004a8220 f   sp_adjustpriv.obj
 0001:000a7380       ??0SPNTPrivSystem@@AAE@XZ  004a8380 f   sp_adjustpriv.obj
 0001:000a7400       ??_ESPNTPrivSystem@@UAEPAXI@Z 004a8400 f i sp_adjustpriv.obj
 0001:000a7400       ??_GSPNTPrivSystem@@UAEPAXI@Z 004a8400 f i sp_adjustpriv.obj
 0001:000a7430       ??1SPNTPrivSystem@@UAE@XZ  004a8430 f   sp_adjustpriv.obj
 0001:000a74a0       ?GetSPNTPrivSystem@@YAAAVSPNTPrivSystem@@XZ 004a84a0 f   sp_adjustpriv.obj
 0001:000a7530       ?IsNT@SPNTPrivSystem@@AAE_NXZ 004a8530 f   sp_adjustpriv.obj
 0001:000a7540       ?SetPriv@SPNTPrivSystem@@QAE_NPADH@Z 004a8540 f   sp_adjustpriv.obj
 0001:000a7610       ?IsUAC@SPNTPrivSystem@@QAE_NXZ 004a8610 f   sp_adjustpriv.obj
 0001:000a76d0       ?IsElevated@SPNTPrivSystem@@QAE_NXZ 004a86d0 f   sp_adjustpriv.obj
 0001:000a7750       ??0SPCollisionProp@@AAE@J@Z 004a8750 f   sp_anime.obj
 0001:000a7840       ??1SPCollisionProp@@AAE@XZ 004a8840 f   sp_anime.obj
 0001:000a78a0       ?Create@SPCollisionProp@@SAPAV1@J@Z 004a88a0 f   sp_anime.obj
 0001:000a7900       ?AddRef@SPCollisionProp@@QAEXXZ 004a8900 f   sp_anime.obj
 0001:000a7930       ?Release@SPCollisionProp@@QAE_NXZ 004a8930 f   sp_anime.obj
 0001:000a7980       ?DrawCollision@SPCollisionProp@@QAEXPAXABUtagPOINT@@10000@Z 004a8980 f   sp_anime.obj
 0001:000a7c90       ?GetCollisionType@SPCollisionProp@@QAEPBGXZ 004a8c90 f   sp_anime.obj
 0001:000a7cc0       ?IsCollide@SPCollisionProp@@QAE_NJJABUtagPOINT@@@Z 004a8cc0 f   sp_anime.obj
 0001:000a7ea0       ?SetFromTableText@SPCollisionProp@@QAEHPAVSPAnimeBase@@_NPAG@Z 004a8ea0 f   sp_anime.obj
 0001:000a8570       ?CalcBoundingRect@SPCollisionProp@@AAE_NXZ 004a9570 f   sp_anime.obj
 0001:000a8610       ??0SPAnimeScript@@AAE@JAAVSPSeriko@@@Z 004a9610 f   sp_anime.obj
 0001:000a86b0       ??0SPAnimeScript@@AAE@AAV0@@Z 004a96b0 f   sp_anime.obj
 0001:000a8750       ?Create@SPAnimeScript@@SAPAV1@JAAVSPSeriko@@@Z 004a9750 f   sp_anime.obj
 0001:000a87c0       ?Duplicate@SPAnimeScript@@SAPAV1@PAV1@@Z 004a97c0 f   sp_anime.obj
 0001:000a8820       ?AddRef@SPAnimeScript@@QAEXXZ 004a9820 f   sp_anime.obj
 0001:000a8850       ?Release@SPAnimeScript@@QAE_NXZ 004a9850 f   sp_anime.obj
 0001:000a88a0       ??1SPAnimeScript@@AAE@XZ   004a98a0 f   sp_anime.obj
 0001:000a8a00       ?ExecuteBind@SPAnimeScript@@QAEXPAVSPSerikoAnimation@@PAVSPSerikoTask@@AAV?$JArray@VSPSerikoAnimationPlayPat@@@@AAV?$JArray@J@@PAVSPAnimeBase@@@Z 004a9a00 f   sp_anime.obj
 0001:000a8c30       ?CopyPatFromOther@SPAnimeScript@@QAEXAAV1@@Z 004a9c30 f   sp_anime.obj
 0001:000a8e70       ?CopyCollisionFromOther@SPAnimeScript@@QAEXAAV1@@Z 004a9e70 f   sp_anime.obj
 0001:000a8fc0       ?Execute@SPAnimeScript@@QAEXPAVSPSerikoTask@@JAAV?$JArray@VSPSerikoAnimationPlayPat@@@@@Z 004a9fc0 f   sp_anime.obj
 0001:000a9160       ?AllWait@SPAnimeScript@@QAEKXZ 004aa160 f   sp_anime.obj
 0001:000a9190       ?GetDefFileName@SPAnimeScript@@QAEPBGAAVSPSeriko@@@Z 004aa190 f   sp_anime.obj
 0001:000a91d0       ??0SPAnimeBalloonOffset@@QAE@XZ 004aa1d0 f   sp_anime.obj
 0001:000a9240       ?AppendFrom@SPAnimeBalloonOffset@@QAEXAAV1@@Z 004aa240 f   sp_anime.obj
 0001:000a9310       ?Release@SPAnimeBalloonOffset@@QAEXXZ 004aa310 f   sp_anime.obj
 0001:000a9370       ?Invalidate@SPAnimeBalloonOffset@@QAEXXZ 004aa370 f   sp_anime.obj
 0001:000a9390       ?AddToNum@SPAnimeBalloonOffset@@QAEXJ@Z 004aa390 f   sp_anime.obj
 0001:000a94e0       ?Parse@SPAnimeBalloonOffset@@QAEXJPBDAAVJTokenStream@@@Z 004aa4e0 f   sp_anime.obj
 0001:000a9620       ?Get@SPAnimeBalloonOffset@@QBE?BUtagPOINT@@W4tagSPABO_DIRECTION@@JPBV1@@Z 004aa620 f   sp_anime.obj
 0001:000a9760       ?GetDebugString@SPAnimeBalloonOffset@@QBEXAAVJWString@@@Z 004aa760 f   sp_anime.obj
 0001:000a9a10       ??0SPAnimeBase@@QAE@PAVSPGhost@@AAV?$SPSparsePtrArray@PAVSPAnimeBase@@@@@Z 004aaa10 f   sp_anime.obj
 0001:000a9b80       ??1SPAnimeBalloonOffset@@QAE@XZ 004aab80 f i sp_anime.obj
 0001:000a9ba0       ?Release@SPAnimeBase@@QAEXXZ 004aaba0 f   sp_anime.obj
 0001:000a9d70       ?ResetValue@SPAnimeBase@@QAEXXZ 004aad70 f   sp_anime.obj
 0001:000a9de0       ??1SPAnimeBase@@QAE@XZ     004aade0 f   sp_anime.obj
 0001:000a9ed0       ?LoadScript@SPAnimeBase@@QAEHPBGAAVSPSeriko@@@Z 004aaed0 f   sp_anime.obj
 0001:000aa4b0       ?FindScript@SPAnimeBase@@QAEJJ@Z 004ab4b0 f   sp_anime.obj
 0001:000aa4f0       ?GetScript@SPAnimeBase@@QAEPAVSPAnimeScript@@J@Z 004ab4f0 f   sp_anime.obj
 0001:000aa520       ?AddScript@SPAnimeBase@@QAEXPAVSPAnimeScript@@_N@Z 004ab520 f   sp_anime.obj
 0001:000aa720       ?LoadAreaNew@SPAnimeBase@@QAEHPBG@Z 004ab720 f   sp_anime.obj
 0001:000aae30       ?AddFromAnotherBase@SPAnimeBase@@QAEXPAV1@_N1@Z 004abe30 f   sp_anime.obj
 0001:000aaff0       ?AllBindIDList@SPAnimeBase@@QAEXAAV?$JArray@J@@@Z 004abff0 f   sp_anime.obj
 0001:000ab170       ?BindOverlay@SPAnimeBase@@QAEXPAVSPSerikoAnimation@@PAVSPSerikoTask@@AAV?$JArray@VSPSerikoAnimationPlayPat@@@@AAV?$JArray@J@@PAVJSurface@@PAXHH@Z 004ac170 f   sp_anime.obj
 0001:000ab4a0       ?SetBind@SPAnimeBase@@QAEXPAVSPSerikoAnimation@@PAJK_N@Z 004ac4a0 f   sp_anime.obj
 0001:000ab520       ?IsSurfaceUsed@SPAnimeBase@@QAE_NJ@Z 004ac520 f   sp_anime.obj
 0001:000ab570       ?CreateDummyDef@SPAnimeBase@@QAEXJKK@Z 004ac570 f   sp_anime.obj
 0001:000ab700       ?CalcBoundRect@SPAnimeBase@@QAEXAAVJPoint@@AAVJRect@@@Z 004ac700 f   sp_anime.obj
 0001:000ab780       ?CalcBoundRectReal@SPAnimeBase@@QAEXAAVJPoint@@AAVJRect@@@Z 004ac780 f   sp_anime.obj
 0001:000ab800       ?CreateBoundingBoxSub@SPAnimeBase@@IAEHAAVJRect@@0KK@Z 004ac800 f   sp_anime.obj
 0001:000ab930       ?CreateBoundingBox@SPAnimeBase@@QAEXXZ 004ac930 f   sp_anime.obj
 0001:000abcc0       ?SetOffset@SPAnimeBase@@QAEXHH@Z 004accc0 f   sp_anime.obj
 0001:000abd30       ?GetCollisionRectCompat@SPAnimeBase@@QAEHPAVSPSerikoAnimation@@AAVJRect@@PBG@Z 004acd30 f   sp_anime.obj
 0001:000abee0       ?GetAnimeCollisionRectCompat@SPAnimeBase@@QAEHPAVSPSerikoAnimation@@AAVJRect@@PBG@Z 004acee0 f   sp_anime.obj
 0001:000ac090       ?GetCollisionName@SPAnimeBase@@QAEPAGPAVSPSerikoAnimation@@HHPAJ@Z 004ad090 f   sp_anime.obj
 0001:000ac1d0       ?GetAnimeCollisionName@SPAnimeBase@@QAEPAGPAVSPSerikoAnimation@@HHPAJ@Z 004ad1d0 f   sp_anime.obj
 0001:000ac310       ?GetCollisionArray@SPAnimeBase@@QAEXPAVSPSerikoAnimation@@AAV?$JPtrArray@PAVSPCollisionProp@@@@AAV?$JArray@UtagPOINT@@@@@Z 004ad310 f   sp_anime.obj
 0001:000ac530       ?GetAnimeCollisionArray@SPAnimeBase@@QAEXPAVSPSerikoAnimation@@AAV?$JPtrArray@PAVSPCollisionProp@@@@AAV?$JArray@UtagPOINT@@@@@Z 004ad530 f   sp_anime.obj
 0001:000ac550       ?IsElementScriptDefined@SPAnimeBase@@QAE_NXZ 004ad550 f   sp_anime.obj
 0001:000ac580       ?AddSurfaceElement@SPAnimeBase@@QAEHPAVSPSurface@@KHHH@Z 004ad580 f   sp_anime.obj
 0001:000ac840       ?CreateElementCompositionCache@SPAnimeBase@@QAEXH@Z 004ad840 f   sp_anime.obj
 0001:000ad2b0       ?ElementRender@SPAnimeBase@@QAEHPAVJSurface@@PAVJRect@@HHHH@Z 004ae2b0 f   sp_anime.obj
 0001:000ae210       ?ElementCombineRegionOffset@SPAnimeBase@@QAEXPAXPAVJRect@@HHH@Z 004af210 f   sp_anime.obj
 0001:000ae310       ?CalcBoundRect@SPAnimeSurfaceElement@@QAEXAAVJRect@@@Z 004af310 f   sp_anime.obj
 0001:000ae370       ?CalcBoundRectReal@SPAnimeSurfaceElement@@QAEXAAVJRect@@@Z 004af370 f   sp_anime.obj
 0001:000ae3e0       ?InitFirst@SPAnimeBase@@QAEXXZ 004af3e0 f   sp_anime.obj
 0001:000ae880       ?CheckInvalidDef@SPAnimeBase@@QAEHXZ 004af880 f   sp_anime.obj
 0001:000af530       ??1SPAnimePat@@QAE@XZ      004b0530 f i sp_anime.obj
 0001:000af560       ?GetBalloonOffsetBase@SPAnimeBase@@QAEXHPAVSPSeriko@@AAUtagPOINT@@11@Z 004b0560 f   sp_anime.obj
 0001:000af5f0       ?GetDefFileName@SPAnimeBase@@QAEPBGAAVSPSeriko@@@Z 004b05f0 f   sp_anime.obj
 0001:000af630       ?SetNumNoPurge@?$JArray@VSPSerikoAnimationPlayPat@@@@QAEXK_N@Z 004b0630 f i sp_anime.obj
 0001:000af630       ?SetNumNoPurge@?$JArray@V?$SPSparsePtrArrayDefPair@PAVSPBalloonDescHolder@@@@@@QAEXK_N@Z 004b0630 f i sp_anime.obj
 0001:000af630       ?SetNumNoPurge@?$JArray@VJPoint@@@@QAEXK_N@Z 004b0630 f i sp_anime.obj
 0001:000af630       ?SetNumNoPurge@?$JArray@V?$SPSparsePtrArrayDefPair@PAVSPAnimeBase@@@@@@QAEXK_N@Z 004b0630 f i sp_anime.obj
 0001:000af630       ?SetNumNoPurge@?$JArray@VSPSerikoRange@@@@QAEXK_N@Z 004b0630 f i sp_anime.obj
 0001:000af630       ?SetNumNoPurge@?$JArray@UtagPOINT@@@@QAEXK_N@Z 004b0630 f i sp_anime.obj
 0001:000af690       ?Realloc@?$JArray@UtagPOINT@@@@QAE_NK@Z 004b0690 f i sp_anime.obj
 0001:000af690       ?Realloc@?$JArray@VCSurfaceTestBaseList@@@@QAE_NK@Z 004b0690 f i sp_anime.obj
 0001:000af690       ?Realloc@?$JArray@VSPGhostBindBlockEntry@@@@QAE_NK@Z 004b0690 f i sp_anime.obj
 0001:000af690       ?Realloc@?$JArray@N@@QAE_NK@Z 004b0690 f i sp_anime.obj
 0001:000af690       ?Realloc@?$JArray@VSPSerikoAnimationPlayPat@@@@QAE_NK@Z 004b0690 f i sp_anime.obj
 0001:000af690       ?Realloc@?$JArray@VSPSerikoRange@@@@QAE_NK@Z 004b0690 f i sp_anime.obj
 0001:000af690       ?Realloc@?$JArray@U_TASKDIALOG_BUTTON@@@@QAE_NK@Z 004b0690 f i sp_anime.obj
 0001:000af690       ?Realloc@?$JArray@VJPoint@@@@QAE_NK@Z 004b0690 f i sp_anime.obj
 0001:000af770       ?_Sort_0@std@@YAXPAPAVSPAnimeScript@@0U?$JArray_PredConverter@PAVSPAnimeScript@@P6AHPBV1@0PAX@Z@@0@Z 004b0770 f i sp_anime.obj
 0001:000afa70       ?_Sort_0@std@@YAXPAPAVSPCollisionProp@@0U?$JArray_PredConverter@PAVSPCollisionProp@@P6AHPBV1@0PAX@Z@@0@Z 004b0a70 f i sp_anime.obj
 0001:000afd70       ?_Sort@std@@YAXPAPAVSPAnimeScript@@0U?$JArray_PredConverter@PAVSPAnimeScript@@P6AHPBV1@0PAX@Z@@0@Z 004b0d70 f i sp_anime.obj
 0001:000aff00       ?_Sort@std@@YAXPAPAVSPCollisionProp@@0U?$JArray_PredConverter@PAVSPCollisionProp@@P6AHPBV1@0PAX@Z@@0@Z 004b0f00 f i sp_anime.obj
 0001:000b00d0       ?SPBalloon_CheckFontSize@@YAHH@Z 004b10d0 f   sp_balloon.obj
 0001:000b00f0       ?SPBalloon_CheckFontSize@@YAHPBD@Z 004b10f0 f   sp_balloon.obj
 0001:000b0110       ?SPBalloon_CheckFontSize@@YAHPBG@Z 004b1110 f   sp_balloon.obj
 0001:000b0130       ?SPBalloon_MakeColor@@YA_NAAVJTokenStream@@AAVSPColor@@PBD@Z 004b1130 f   sp_balloon.obj
 0001:000b02d0       ?SPBalloon_MakeFont@@YA_NPAPBGKAAVJWString@@PBG@Z 004b12d0 f   sp_balloon.obj
 0001:000b0430       ?SPBalloon_MakeFont@@YA_NAAVJTokenStream@@AAVJWString@@HPBG@Z 004b1430 f   sp_balloon.obj
 0001:000b0590       ?ProcessDescript@SPBalloonFontPropMask@@QAE_NAAVJTokenStream@@PBD@Z 004b1590 f   sp_balloon.obj
 0001:000b0980       ?GetBrushColor@SPBalloonFontPropMask@@QBE_NAAVSPColor@@PAPBV1@@Z 004b1980 f   sp_balloon.obj
 0001:000b0a00       ?GetFontColor@SPBalloonFontPropMask@@QBE_NAAVSPColor@@PAPBV1@@Z 004b1a00 f   sp_balloon.obj
 0001:000b0a80       ?GetPenColor@SPBalloonFontPropMask@@QBE_NAAVSPColor@@PAPBV1@@Z 004b1a80 f   sp_balloon.obj
 0001:000b0b00       ?GetShadowColor@SPBalloonFontPropMask@@QBE_NAAVSPColor@@PAPBV1@@Z 004b1b00 f   sp_balloon.obj
 0001:000b0b80       ?GetHasShadow@SPBalloonFontPropMask@@QBE_NAAW4tagSPBALLOONFONTPROP_SHADOW@@PAPBV1@@Z 004b1b80 f   sp_balloon.obj
 0001:000b0bf0       ?GetMethod@SPBalloonFontPropMask@@QBE_NAAIPAPBV1@@Z 004b1bf0 f   sp_balloon.obj
 0001:000b0c60       ?GetStyle@SPBalloonFontPropMask@@QBE_NAAIPAPBV1@@Z 004b1c60 f   sp_balloon.obj
 0001:000b0cd0       ?Add@SPBalloonDescHolder@@QAEPAVSPBalloonDesc@@H@Z 004b1cd0 f   sp_balloon.obj
 0001:000b0dc0       ?Get@SPBalloonDescHolder@@QAEPAVSPBalloonDesc@@H@Z 004b1dc0 f   sp_balloon.obj
 0001:000b0df0       ?GetArray@SPBalloonDescHolder@@QAEXAAV?$JArray@K@@@Z 004b1df0 f   sp_balloon.obj
 0001:000b0f30       ?ResetFontResource@SPBalloonDescHolder@@QAEXXZ 004b1f30 f   sp_balloon.obj
 0001:000b0f60       ?Release@SPBalloonDescHolder@@QAEXXZ 004b1f60 f   sp_balloon.obj
 0001:000b0fb0       ??0SPBalloonDesc@@QAE@PAVSPBalloon@@@Z 004b1fb0 f   sp_balloon.obj
 0001:000b1240       ??1SPVarSystemNode@@UAE@XZ 004b2240 f i sp_balloon.obj
 0001:000b1250       ??_ESPVarSystemNode@@UAEPAXI@Z 004b2250 f i sp_balloon.obj
 0001:000b1250       ??_GSPVarSystemNode@@UAEPAXI@Z 004b2250 f i sp_balloon.obj
 0001:000b1280       ??0SPBalloonPoint@@QAE@XZ  004b2280 f i sp_balloon.obj
 0001:000b1290       ??_GSPBalloonDesc@@UAEPAXI@Z 004b2290 f i sp_balloon.obj
 0001:000b1290       ??_ESPBalloonDesc@@UAEPAXI@Z 004b2290 f i sp_balloon.obj
 0001:000b12c0       ??1SPBalloonDesc@@UAE@XZ   004b22c0 f i sp_balloon.obj
 0001:000b1370       ?Release@SPBalloonDesc@@QAEXXZ 004b2370 f   sp_balloon.obj
 0001:000b1390       ?Width@SPBalloonDesc@@QAEJXZ 004b2390 f   sp_balloon.obj
 0001:000b13a0       ?Height@SPBalloonDesc@@QAEJXZ 004b23a0 f   sp_balloon.obj
 0001:000b13b0       ?LoadDescript@SPBalloonDesc@@QAEHPBG0@Z 004b23b0 f   sp_balloon.obj
 0001:000b1fe0       ?VarGet@SPBalloonDesc@@UAE_NPAVSPGhost@@PAGAAVJWString@@PAVSPVarSystemNode@@@Z 004b2fe0 f   sp_balloon.obj
 0001:000b2070       ?LoadFinish@SPBalloonDesc@@QAEXPBG@Z 004b3070 f   sp_balloon.obj
 0001:000b21a0       ?SetDefaultHelper@SPBalloonDesc@@AAEXAAVSPBalloonPoint@@ABUtagPOINT@@@Z 004b31a0 f   sp_balloon.obj
 0001:000b2210       ?SetDefault@SPBalloonDesc@@QAEHPAVSPBalloon@@JH@Z 004b3210 f   sp_balloon.obj
 0001:000b2640       ??0SPBalloonParts@@QAE@XZ  004b3640 f   sp_balloon.obj
 0001:000b27e0       ??_ESPBalloonParts@@UAEPAXI@Z 004b37e0 f i sp_balloon.obj
 0001:000b27e0       ??_GSPBalloonParts@@UAEPAXI@Z 004b37e0 f i sp_balloon.obj
 0001:000b2810       ??1SPBalloonParts@@UAE@XZ  004b3810 f   sp_balloon.obj
 0001:000b28d0       ?SetPartsDefault@SPBalloonParts@@IAEHJ@Z 004b38d0 f   sp_balloon.obj
 0001:000b29e0       ?ParseDescript@SPBalloonParts@@IAE_NPBDAAVJTokenStream@@H@Z 004b39e0 f   sp_balloon.obj
 0001:000b2b30       ?LoadParts@SPBalloonParts@@IAEHPBG@Z 004b3b30 f   sp_balloon.obj
 0001:000b2fe0       ?LoadSurfaceOne@SPBalloonParts@@IAEPAVSPSurface@@PBGVJWString@@H@Z 004b3fe0 f i sp_balloon.obj
 0001:000b3040       ?Release@SPBalloonParts@@QAEXXZ 004b4040 f   sp_balloon.obj
 0001:000b3090       ?LoadSurfaceOne@SPBalloonParts@@IAEPAVSPSurface@@PBG0H@Z 004b4090 f   sp_balloon.obj
 0001:000b30c0       ?LoadSurfaceTwo@SPBalloonParts@@IAE_NPAPAVSPSurface@@PBG11H@Z 004b40c0 f   sp_balloon.obj
 0001:000b3170       ??0SPBalloon@@QAE@PAVSPGhost@@@Z 004b4170 f   sp_balloon.obj
 0001:000b35b0       ??1SPSurfaceManager@@QAE@XZ 004b45b0 f i sp_balloon.obj
 0001:000b3670       ??_GSPBalloon@@UAEPAXI@Z   004b4670 f i sp_balloon.obj
 0001:000b3670       ??_ESPBalloon@@UAEPAXI@Z   004b4670 f i sp_balloon.obj
 0001:000b36a0       ??1SPBalloon@@UAE@XZ       004b46a0 f i sp_balloon.obj
 0001:000b3870       ?Release@SPBalloon@@QAEXXZ 004b4870 f   sp_balloon.obj
 0001:000b3970       ??1SPBalloonDescHolder@@QAE@XZ 004b4970 f i sp_balloon.obj
 0001:000b39d0       ?LoadBalloon@SPBalloon@@QAEHPBG@Z 004b49d0 f   sp_balloon.obj
 0001:000b4b50       ?ScanSurface@SPBalloon@@AAEHAAVSPBalloonDescHolder@@JPBG1H@Z 004b5b50 f   sp_balloon.obj
 0001:000b4ed0       ?LoadSurface@SPBalloon@@AAEHPBG@Z 004b5ed0 f   sp_balloon.obj
 0001:000b55c0       ?FillLoadSurface@SPBalloon@@QAEHPBG@Z 004b65c0 f   sp_balloon.obj
 0001:000b57d0       ?OKButtonExtent@SPBalloon@@QAE?AUtagPOINT@@XZ 004b67d0 f   sp_balloon.obj
 0001:000b5820       ?CancelButtonExtent@SPBalloon@@QAE?AUtagPOINT@@XZ 004b6820 f   sp_balloon.obj
 0001:000b5870       ?ModeButtonExtent@SPBalloon@@QAE?AUtagPOINT@@XZ 004b6870 f   sp_balloon.obj
 0001:000b58c0       ?MaxButtonExtent@SPBalloon@@QAE?AUtagPOINT@@XZ 004b68c0 f   sp_balloon.obj
 0001:000b5930       ?GetInput@SPBalloon@@QAEPAVSPBalloonDesc@@K@Z 004b6930 f   sp_balloon.obj
 0001:000b5a00       ?GetCharIndexArray@SPBalloon@@QAEXAAV?$JArray@K@@@Z 004b6a00 f   sp_balloon.obj
 0001:000b5b90       ?GetArray@SPBalloon@@QAEXHAAV?$JArray@K@@@Z 004b6b90 f   sp_balloon.obj
 0001:000b5c00       ?GetArrow@SPBalloon@@QAEPAVSPSurface@@PAVSPBalloonDesc@@HH@Z 004b6c00 f   sp_balloon.obj
 0001:000b5c30       ?GetClickWaitMarker@SPBalloon@@QAEPAVSPSurface@@PAVSPBalloonDesc@@H@Z 004b6c30 f   sp_balloon.obj
 0001:000b5c60       ?GetMarker@SPBalloon@@QAEPAVSPSurface@@PAVSPBalloonDesc@@H@Z 004b6c60 f   sp_balloon.obj
 0001:000b5c90       ?GetPropA@SPBalloon@@QAEPAVSPBalloonDesc@@JH@Z 004b6c90 f   sp_balloon.obj
 0001:000b5df0       ?ResetFontResourceAll@SPBalloon@@QAEXXZ 004b6df0 f   sp_balloon.obj
 0001:000b5f40       ?VarGet@SPBalloon@@UAE_NPAVSPGhost@@PAGAAVJWString@@PAVSPVarSystemNode@@@Z 004b6f40 f   sp_balloon.obj
 0001:000b6170       ?VarSet@SPBalloon@@UAE_NPAVSPGhost@@PAG1PAVSPVarSystemNode@@@Z 004b7170 f   sp_balloon.obj
 0001:000b6250       ??0SPBalloonWnd@@QAE@PAVSPGhost@@H@Z 004b7250 f   sp_balloon.obj
 0001:000b6700       ??0JDummyLockSection@@QAE@XZ 004b7700 f i sp_balloon.obj
 0001:000b6710       ?Visit@XMLVisitor@tinyxml2@@UAE_NABVXMLDeclaration@2@@Z 004b7710 f i sp_balloon.obj
 0001:000b6710       ?VisitExit@XMLVisitor@tinyxml2@@UAE_NABVXMLDocument@2@@Z 004b7710 f i sp_balloon.obj
 0001:000b6710       ?VisitExit@XMLPrinter@tinyxml2@@UAE_NABVXMLDocument@2@@Z 004b7710 f i sp_balloon.obj
 0001:000b6710       ?VisitEnter@XMLVisitor@tinyxml2@@UAE_NABVXMLDocument@2@@Z 004b7710 f i sp_balloon.obj
 0001:000b6710       ?Lock@JThread@@UAE_NJ@Z    004b7710 f i sp_balloon.obj
 0001:000b6710       ?Visit@XMLVisitor@tinyxml2@@UAE_NABVXMLComment@2@@Z 004b7710 f i sp_balloon.obj
 0001:000b6710       ?Visit@XMLVisitor@tinyxml2@@UAE_NABVXMLText@2@@Z 004b7710 f i sp_balloon.obj
 0001:000b6710       ?Visit@XMLVisitor@tinyxml2@@UAE_NABVXMLUnknown@2@@Z 004b7710 f i sp_balloon.obj
 0001:000b6710       ?VisitExit@XMLVisitor@tinyxml2@@UAE_NABVXMLElement@2@@Z 004b7710 f i sp_balloon.obj
 0001:000b6710       ?Lock@JDummyLockSection@@UAE_NJ@Z 004b7710 f i sp_balloon.obj
 0001:000b6720       ??_EJDummyLockSection@@UAEPAXI@Z 004b7720 f i sp_balloon.obj
 0001:000b6720       ??_GJDummyLockSection@@UAEPAXI@Z 004b7720 f i sp_balloon.obj
 0001:000b6750       ??1SPScaleSurface@@UAE@XZ  004b7750 f i sp_balloon.obj
 0001:000b67c0       ??_GSPScaleSurface@@UAEPAXI@Z 004b77c0 f i sp_balloon.obj
 0001:000b67c0       ??_ESPScaleSurface@@UAEPAXI@Z 004b77c0 f i sp_balloon.obj
 0001:000b67f0       ??_F?$JArray@D@@QAEXXZ     004b77f0 f i sp_balloon.obj
 0001:000b67f0       ??_F?$JArray@VJPoint@@@@QAEXXZ 004b77f0 f i sp_balloon.obj
 0001:000b67f0       ??_F?$JArray@J@@QAEXXZ     004b77f0 f i sp_balloon.obj
 0001:000b6800       ??_GSPBalloonWnd@@UAEPAXI@Z 004b7800 f i sp_balloon.obj
 0001:000b6800       ??_ESPBalloonWnd@@UAEPAXI@Z 004b7800 f i sp_balloon.obj
 0001:000b6830       ??1SPMultiFileEntry@@QAE@XZ 004b7830 f i sp_balloon.obj
 0001:000b6830       ??1SPCalendarImage@@QAE@XZ 004b7830 f i sp_balloon.obj
 0001:000b6830       ??1SPBalloonWndProgressState@@QAE@XZ 004b7830 f i sp_balloon.obj
 0001:000b6840       ?ResetWrapState@SPBalloonWnd@@QAEXXZ 004b7840 f   sp_balloon.obj
 0001:000b6860       ?ResetState@SPBalloonWnd@@QAEXXZ 004b7860 f   sp_balloon.obj
 0001:000b68c0       ??1SPBalloonWnd@@UAE@XZ    004b78c0 f   sp_balloon.obj
 0001:000b6b20       ?OnCreate@SPBalloonWnd@@QAEXPAX0@Z 004b7b20 f   sp_balloon.obj
 0001:000b6b80       ?OnDestroy@SPBalloonWnd@@QAEXXZ 004b7b80 f   sp_balloon.obj
 0001:000b6bd0       ?Release@SPBalloonWnd@@QAEXXZ 004b7bd0 f   sp_balloon.obj
 0001:000b6e40       ?WindowWidth@SPBalloonWnd@@UAEHXZ 004b7e40 f   sp_balloon.obj
 0001:000b6ea0       ?WindowHeight@SPBalloonWnd@@UAEHXZ 004b7ea0 f   sp_balloon.obj
 0001:000b6f10       ?OriginalWidth@SPBalloonWnd@@UAEHXZ 004b7f10 f   sp_balloon.obj
 0001:000b6f30       ?OriginalHeight@SPBalloonWnd@@UAEHXZ 004b7f30 f   sp_balloon.obj
 0001:000b6f50       ?CreateBackBuffer@SPBalloonWnd@@QAEHXZ 004b7f50 f   sp_balloon.obj
 0001:000b72a0       ?ResetGlobalFontHeight@SPBalloonWnd@@AAEXXZ 004b82a0 f   sp_balloon.obj
 0001:000b72e0       ?VarGet@SPBalloonWnd@@UAE_NPAVSPGhost@@PAGAAVJWString@@PAVSPVarSystemNode@@@Z 004b82e0 f   sp_balloon.obj
 0001:000b7620       ?VarSet@SPBalloonWnd@@UAE_NPAVSPGhost@@PAG1PAVSPVarSystemNode@@@Z 004b8620 f   sp_balloon.obj
 0001:000b7780       ?SetBalloon@SPBalloonWnd@@QAEHPAVSPBalloon@@HHPAUtagPOINT@@@Z 004b8780 f   sp_balloon.obj
 0001:000b7c90       ?UpdateRegion@SPBalloonWnd@@QAEHXZ 004b8c90 f   sp_balloon.obj
 0001:000b7d60       ?DrawBackBuffer@SPBalloonWnd@@QAEXXZ 004b8d60 f   sp_balloon.obj
 0001:000b8010       ?DrawImage@SPBalloonWnd@@AAEK_N@Z 004b9010 f   sp_balloon.obj
 0001:000b8270       ?FillTextBuffer@SPBalloonWnd@@AAEXXZ 004b9270 f   sp_balloon.obj
 0001:000b8350       ?BlendTextBuffer@SPBalloonWnd@@AAEXXZ 004b9350 f   sp_balloon.obj
 0001:000b83e0       ?IsScrollUpLimit@SPBalloonWnd@@QAEHXZ 004b93e0 f   sp_balloon.obj
 0001:000b83f0       ?IsScrollDownLimit@SPBalloonWnd@@QAEHXZ 004b93f0 f   sp_balloon.obj
 0001:000b8420       ?SetScrollToDownLimit@SPBalloonWnd@@QAEXXZ 004b9420 f   sp_balloon.obj
 0001:000b8440       ?DrawScrollArrowAuto@SPBalloonWnd@@AAEXXZ 004b9440 f   sp_balloon.obj
 0001:000b84b0       ?DrawScrollArrowAutoRegion@SPBalloonWnd@@AAE_NPAX@Z 004b94b0 f   sp_balloon.obj
 0001:000b8530       ?GetScrollRangeY@SPBalloonWnd@@QAEHXZ 004b9530 f   sp_balloon.obj
 0001:000b8540       ?GetDefaultTextElementOffsetY@SPBalloonWnd@@QAEHXZ 004b9540 f   sp_balloon.obj
 0001:000b8550       ?IsMouseInScroolMarker@SPBalloonWnd@@QAEHHUtagPOINT@@@Z 004b9550 f   sp_balloon.obj
 0001:000b85e0       ?DrawClickWaitMarker@SPBalloonWnd@@AAEXXZ 004b95e0 f   sp_balloon.obj
 0001:000b87d0       ?DrawClickWaitMarkerRegion@SPBalloonWnd@@AAE_NPAX@Z 004b97d0 f   sp_balloon.obj
 0001:000b8820       ?IsSuppressDownArrow@SPBalloonWnd@@AAE_NXZ 004b9820 f   sp_balloon.obj
 0001:000b8870       ?DrawScrollArrow@SPBalloonWnd@@AAEXH@Z 004b9870 f   sp_balloon.obj
 0001:000b8a70       ?DrawScrollArrowRegion@SPBalloonWnd@@AAE_NPAXH@Z 004b9a70 f   sp_balloon.obj
 0001:000b8ad0       ?GetArrow@SPBalloonWnd@@QAEPAVSPSurface@@H@Z 004b9ad0 f   sp_balloon.obj
 0001:000b8b00       ?GetMarker@SPBalloonWnd@@QAEPAVSPSurface@@XZ 004b9b00 f   sp_balloon.obj
 0001:000b8b20       ?GetClickWaitMarker@SPBalloonWnd@@QAEPAVSPSurface@@XZ 004b9b20 f   sp_balloon.obj
 0001:000b8b40       ?GetSSTP@SPBalloonWnd@@QAEPAVSPSurface@@XZ 004b9b40 f   sp_balloon.obj
 0001:000b8b70       ?GetOnlineArray@SPBalloonWnd@@QAEAAV?$JPtrArray@PAVSPSurface@@@@XZ 004b9b70 f   sp_balloon.obj
 0001:000b8ba0       ?SetAlpha@SPBalloonWnd@@QAEXH@Z 004b9ba0 f   sp_balloon.obj
 0001:000b8bd0       ?Redraw@SPBalloonWnd@@QAEXXZ 004b9bd0 f   sp_balloon.obj
 0001:000b8c20       ?Present@SPBalloonWnd@@QAEXPAX@Z 004b9c20 f   sp_balloon.obj
 0001:000b8d90       ?NewString@SPBalloonWnd@@AAEPAVSPBalloonString@@PAV2@@Z 004b9d90 f   sp_balloon.obj
 0001:000b9030       ??_GSPBalloonRefBlock@@AAEPAXI@Z 004ba030 f i sp_balloon.obj
 0001:000b9060       ??1SPBalloonRefBlock@@AAE@XZ 004ba060 f i sp_balloon.obj
 0001:000b90f0       ??0SPBalloonString@@QAE@XZ 004ba0f0 f i sp_balloon.obj
 0001:000b9200       ?ClearStringCommand@SPBalloonWnd@@QAEHPAGH@Z 004ba200 f   sp_balloon.obj
 0001:000b9aa0       ?IsContentExist@SPBalloonWnd@@QAEIXZ 004baaa0 f   sp_balloon.obj
 0001:000b9ac0       ?UpdateFlags@SPBalloonWnd@@AAEXXZ 004baac0 f   sp_balloon.obj
 0001:000b9b60       ?ClearString@SPBalloonWnd@@QAEXXZ 004bab60 f   sp_balloon.obj
 0001:000b9db0       ?InitFontProp@SPBalloonWnd@@AAEXXZ 004badb0 f   sp_balloon.obj
 0001:000b9de0       ?ResetFontResource@SPBalloonWnd@@AAEXXZ 004bade0 f   sp_balloon.obj
 0001:000b9e00       ?ResetFontResourceReal@SPBalloonWnd@@AAEXXZ 004bae00 f   sp_balloon.obj
 0001:000b9ea0       ?CheckFontResource@SPBalloonWnd@@AAEXXZ 004baea0 f   sp_balloon.obj
 0001:000b9f90       ?IsNoWrapChar@SPBalloonWnd@@SAHG@Z 004baf90 f   sp_balloon.obj
 0001:000b9fb0       ?IsSendNextChar@SPBalloonWnd@@SAHG@Z 004bafb0 f   sp_balloon.obj
 0001:000b9fd0       ?GetWaitChar@SPBalloonWnd@@SAHG@Z 004bafd0 f   sp_balloon.obj
 0001:000ba070       ?AddString@SPBalloonWnd@@QAEXPAGK@Z 004bb070 f   sp_balloon.obj
 0001:000baa70       ?AddMarkerIcon@SPBalloonWnd@@QAEXPAG@Z 004bba70 f   sp_balloon.obj
 0001:000bab80       ?GetTextExtent@SPBalloonWnd@@AAEXPAVSPBalloonString@@@Z 004bbb80 f   sp_balloon.obj
 0001:000bac50       ?AddSelectableString@SPBalloonWnd@@QAEXPAG0HPAPAGI@Z 004bbc50 f   sp_balloon.obj
 0001:000baec0       ?LockUpdate@SPBalloonWnd@@QAEX_N@Z 004bbec0 f   sp_balloon.obj
 0001:000baf20       ?LockUpdateFromScript@SPBalloonWnd@@QAEXH@Z 004bbf20 f   sp_balloon.obj
 0001:000baf50       ?GetBalloonIndex@SPBalloonWnd@@QAEHXZ 004bbf50 f   sp_balloon.obj
 0001:000baf70       ?UpdateBalloonScroll@SPBalloonWnd@@QAEXHH@Z 004bbf70 f   sp_balloon.obj
 0001:000bafa0       ?AddAnchorOrSelectable@SPBalloonWnd@@QAEXPAG_N@Z 004bbfa0 f   sp_balloon.obj
 0001:000bb300       ?DrawString@SPBalloonWnd@@AAEXJ@Z 004bc300 f   sp_balloon.obj
 0001:000bb470       ?BTextOut@SPBalloonWnd@@AAE_NAAVJRect@@PAVJSurface@@HHPAVSPBalloonString@@HABVSPColor@@W4tagSPBALLOONFONTPROP_SHADOW@@3_N@Z 004bc470 f   sp_balloon.obj
 0001:000bb7e0       ?GetXAlignOffset@SPBalloonWnd@@AAEHJ@Z 004bc7e0 f   sp_balloon.obj
 0001:000bb8e0       ?DrawOneElement@SPBalloonWnd@@AAEXPAVSPBalloonString@@JH@Z 004bc8e0 f   sp_balloon.obj
 0001:000bc800       ?DrawBalloonTestRect@SPBalloonWnd@@AAEXPBVJRect@@PAXHHPAVSPBalloonString@@@Z 004bd800 f   sp_balloon.obj
 0001:000bc870       ?DrawBalloonTestRect@SPBalloonWnd@@AAEXPBVJRect@@PAXABV2@@Z 004bd870 f   sp_balloon.obj
 0001:000bc900       ?DrawSstpMarker@SPBalloonWnd@@AAEXXZ 004bd900 f   sp_balloon.obj
 0001:000bcae0       ?DrawNetworkMarker@SPBalloonWnd@@AAEXPAG@Z 004bdae0 f   sp_balloon.obj
 0001:000bcd70       ?DrawNetworkMarkerRegion@SPBalloonWnd@@AAE_NPAX@Z 004bdd70 f   sp_balloon.obj
 0001:000bcdb0       ?DrawProgressMsg@SPBalloonWnd@@AAEXXZ 004bddb0 f   sp_balloon.obj
 0001:000bcfb0       ?SetProgress@SPBalloonWnd@@QAEXPBGHH@Z 004bdfb0 f   sp_balloon.obj
 0001:000bd1a0       ?SaveProgressState@SPBalloonWnd@@QAEXAAVSPBalloonWndProgressState@@@Z 004be1a0 f   sp_balloon.obj
 0001:000bd1d0       ?RestoreProgressState@SPBalloonWnd@@QAEXABVSPBalloonWndProgressState@@@Z 004be1d0 f   sp_balloon.obj
 0001:000bd1f0       ?SetMarker@SPBalloonWnd@@QAEHPAG@Z 004be1f0 f   sp_balloon.obj
 0001:000bd230       ?GetSelectString@SPBalloonWnd@@QAEXPAVSPBalloonString@@AAVJWString@@@Z 004be230 f   sp_balloon.obj
 0001:000bd270       ?FindFirstAndLastChoice@SPBalloonWnd@@AAEXKAAK0@Z 004be270 f   sp_balloon.obj
 0001:000bd310       ?GetSelectString@SPBalloonWnd@@QAEXKAAVJWString@@@Z 004be310 f   sp_balloon.obj
 0001:000bd440       ?GetSelectRect@SPBalloonWnd@@QAEXKAAUtagRECT@@@Z 004be440 f   sp_balloon.obj
 0001:000bd5f0       ?FindNearChoiceStringRect@SPBalloonWnd@@QAE_NKABVJRect@@JAAV2@@Z 004be5f0 f   sp_balloon.obj
 0001:000bd8e0       ?FindChoiceIDFromString@SPBalloonWnd@@QAEJPBG@Z 004be8e0 f   sp_balloon.obj
 0001:000bda60       ?EnumChoiceText@SPBalloonWnd@@QAE_NP6A_NPBGPAX@Z1@Z 004bea60 f   sp_balloon.obj
 0001:000bdbe0       ?IsChoiceTextExist@SPBalloonWnd@@QAE_NXZ 004bebe0 f   sp_balloon.obj
 0001:000bdc80       ?SelectEvent@SPBalloonWnd@@QAE_NPBGJ@Z 004bec80 f   sp_balloon.obj
 0001:000bde20       ?SelectEvent@SPBalloonWnd@@QAE_NAAVSPShioriEvent@@PBGJAAVSPStaticStringArrayW@@AAVJWString@@3@Z 004bee20 f   sp_balloon.obj
 0001:000be160       ?SelectLine@SPBalloonWnd@@QAEJJJ@Z 004bf160 f   sp_balloon.obj
 0001:000be1d0       ?SelectLineAndGet@SPBalloonWnd@@QAEPAVSPBalloonString@@JJAAJ@Z 004bf1d0 f   sp_balloon.obj
 0001:000be270       ?SelectLineInternal@SPBalloonWnd@@AAEJJJ@Z 004bf270 f   sp_balloon.obj
 0001:000be400       ?StartForceDisplay@SPBalloonWnd@@QAEXXZ 004bf400 f   sp_balloon.obj
 0001:000be410       ?EndForceDisplay@SPBalloonWnd@@QAEXXZ 004bf410 f   sp_balloon.obj
 0001:000be420       ?IsShouldVisible@SPBalloonWnd@@QAE_NXZ 004bf420 f   sp_balloon.obj
 0001:000be460       ?IsShouldRedraw@SPBalloonWnd@@QAE_NXZ 004bf460 f   sp_balloon.obj
 0001:000be490       ?StartOnline@SPBalloonWnd@@QAEX_N@Z 004bf490 f   sp_balloon.obj
 0001:000be4f0       ?ProcessOnline@SPBalloonWnd@@QAEXXZ 004bf4f0 f   sp_balloon.obj
 0001:000be600       ?DrawOnline@SPBalloonWnd@@AAEXXZ 004bf600 f   sp_balloon.obj
 0001:000bea60       ?DrawOnlineRegion@SPBalloonWnd@@AAE_NPAX@Z 004bfa60 f   sp_balloon.obj
 0001:000bebc0       ?EndOnline@SPBalloonWnd@@QAEXXZ 004bfbc0 f   sp_balloon.obj
 0001:000bec50       ?StartWaiting@SPBalloonWnd@@QAEXJ_N@Z 004bfc50 f   sp_balloon.obj
 0001:000bed20       ?DoWaiting@SPBalloonWnd@@QAEX_N@Z 004bfd20 f   sp_balloon.obj
 0001:000bf030       ?EndWaiting@SPBalloonWnd@@QAEXXZ 004c0030 f   sp_balloon.obj
 0001:000bf040       ?DisableTimeoutTimer@SPBalloonWnd@@QAEXXZ 004c0040 f   sp_balloon.obj
 0001:000bf070       ?WaitUserInput@SPBalloonWnd@@QAEXXZ 004c0070 f   sp_balloon.obj
 0001:000bf140       ?OnUserInput@SPBalloonWnd@@QAEXXZ 004c0140 f   sp_balloon.obj
 0001:000bf170       ?ClearImageArray@SPBalloonWnd@@QAEXXZ 004c0170 f   sp_balloon.obj
 0001:000bf1f0       ?AddImage@SPBalloonWnd@@QAEHPBGH0@Z 004c01f0 f   sp_balloon.obj
 0001:000bfaa0       ??1SPSurfaceManagerStateSave@@QAE@XZ 004c0aa0 f i sp_balloon.obj
 0001:000bfab0       ?AdjustScrollPos@SPBalloonWnd@@AAEXPAVSPBalloonString@@@Z 004c0ab0 f   sp_balloon.obj
 0001:000bfb30       ?SetOffsetString@SPBalloonWnd@@QAEHPBGH@Z 004c0b30 f   sp_balloon.obj
 0001:000c00f0       ?LineFeed@SPBalloonWnd@@QAEXHH@Z 004c10f0 f   sp_balloon.obj
 0001:000c0120       ?LineFeedExt@SPBalloonWnd@@QAEXHH@Z 004c1120 f   sp_balloon.obj
 0001:000c0150       ?LineFeedProcessor@SPBalloonWnd@@AAEXXZ 004c1150 f   sp_balloon.obj
 0001:000c03c0       ?ParseFontCommand@SPBalloonWnd@@QAEHPBGH@Z 004c13c0 f   sp_balloon.obj
 0001:000c2690       ?GetAlign@SPBalloonWnd@@QAEHXZ 004c3690 f   sp_balloon.obj
 0001:000c26c0       ?SASetWindowPos@SPBalloonWnd@@AAE_NPAUtagPOINT@@0@Z 004c36c0 f   sp_balloon.obj
 0001:000c2a00       ?SAUpdateLayeredWindowAlpha@SPBalloonWnd@@AAEHPAVJSurface@@@Z 004c3a00 f   sp_balloon.obj
 0001:000c2ac0       ?ScaleSurfaceAndULW@SPBalloonWnd@@AAEHXZ 004c3ac0 f   sp_balloon.obj
 0001:000c2b10       ?Show@SPBalloonWnd@@QAE_N_N@Z 004c3b10 f   sp_balloon.obj
 0001:000c2c30       ?Hide@SPBalloonWnd@@QAE_N_N@Z 004c3c30 f   sp_balloon.obj
 0001:000c2d40       ?IsVisible@SPBalloonWnd@@QAE_NXZ 004c3d40 f   sp_balloon.obj
 0001:000c2d60       ?ShowInternal@SPBalloonWnd@@AAEX_N@Z 004c3d60 f   sp_balloon.obj
 0001:000c2da0       ?FadeProc@SPBalloonWnd@@QAEHXZ 004c3da0 f   sp_balloon.obj
 0001:000c2e80       ?GetDirection@SPBalloonWnd@@QAEHXZ 004c3e80 f   sp_balloon.obj
 0001:000c2fb0       ?SetDirection@SPBalloonWnd@@AAEXHPAUtagPOINT@@@Z 004c3fb0 f   sp_balloon.obj
 0001:000c2fe0       ?ToggleDirection@SPBalloonWnd@@QAEXH@Z 004c3fe0 f   sp_balloon.obj
 0001:000c3010       ?SetDirectionStickyWindow@SPBalloonWnd@@AAEXHPAUtagPOINT@@@Z 004c4010 f   sp_balloon.obj
 0001:000c30b0       ?SetDirectionAuto@SPBalloonWnd@@QAEXPAUtagPOINT@@@Z 004c40b0 f   sp_balloon.obj
 0001:000c30f0       ?SetUserOffset@SPBalloonWnd@@QAE_NAAVJPoint@@H@Z 004c40f0 f   sp_balloon.obj
 0001:000c31b0       ?SetBalloonScale@SPBalloonWnd@@QAEX_N@Z 004c41b0 f   sp_balloon.obj
 0001:000c32f0       ??0SPBalloonRefBlock@@QAE@PAPAGK@Z 004c42f0 f   sp_balloon.obj
 0001:000c33b0       ?Clear@SPBalloonString@@QAEXXZ 004c43b0 f   sp_balloon.obj
 0001:000c3500       ??1SPBalloonString@@QAE@XZ 004c4500 f   sp_balloon.obj
 0001:000c35e0       ?IsJumpString@SPBalloonString@@QAEHXZ 004c45e0 f   sp_balloon.obj
 0001:000c3610       ?GetJumpString@SPBalloonString@@QAEXAAVJWString@@@Z 004c4610 f   sp_balloon.obj
 0001:000c3730       ?Length@SPBalloonString@@QAEKXZ 004c4730 f   sp_balloon.obj
 0001:000c3760       ?Remove@SPBalloonString@@QAE_NJJ@Z 004c4760 f   sp_balloon.obj
 0001:000c37a0       ?IsSpaceOnly@SPBalloonString@@QAE_NXZ 004c47a0 f   sp_balloon.obj
 0001:000c37f0       ?SetMarkerIcon@SPBalloonString@@QAEXPAVSPBalloonWnd@@I@Z 004c47f0 f   sp_balloon.obj
 0001:000c3840       ?SetImage@SPBalloonString@@QAEXPAVSPSurface@@IABVJRect@@@Z 004c4840 f   sp_balloon.obj
 0001:000c3890       ?ProcessMaxHeight@SPBalloonString@@QAEXPAVSPBalloonWnd@@@Z 004c4890 f   sp_balloon.obj
 0001:000c38d0       ?GetFont@SPBalloonString@@QAEPBVSPBalloonFontProp@@PAVSPBalloonWnd@@@Z 004c48d0 f   sp_balloon.obj
 0001:000c38f0       ?GetID@SPBalloonString@@QAEXAAVJString@@@Z 004c48f0 f   sp_balloon.obj
 0001:000c3a60       ?GetHeight@SPBalloonString@@QAEJPAVSPBalloonWnd@@@Z 004c4a60 f   sp_balloon.obj
 0001:000c3ab0       ?GetRealHeight@SPBalloonString@@QAEJPAVSPBalloonWnd@@@Z 004c4ab0 f   sp_balloon.obj
 0001:000c3b20       ??0?$JHash@D@@QAE@XZ       004c4b20 f i sp_balloon.obj
 0001:000c3b20       ??0?$JHash@G@@QAE@XZ       004c4b20 f i sp_balloon.obj
 0001:000c3b40       ?Release@?$JHash@G@@QAEXXZ 004c4b40 f i sp_balloon.obj
 0001:000c3b40       ??1?$JHash@G@@QAE@XZ       004c4b40 f i sp_balloon.obj
 0001:000c3bd0       ??0?$JPtrArray@PAVSPBalloonDesc@@@@QAE@J@Z 004c4bd0 f i sp_balloon.obj
 0001:000c3c30       ??1?$SPSparsePtrArray@PAVSPBalloonDescHolder@@@@QAE@XZ 004c4c30 f i sp_balloon.obj
 0001:000c3c60       ??1?$SPCacheObj@VSPBalloonString@@VJDummyLockSection@@VJDummyLock@@@@QAE@XZ 004c4c60 f i sp_balloon.obj
 0001:000c3d30       ?Release@?$SPCacheObj@VSPBalloonString@@VJDummyLockSection@@VJDummyLock@@@@QAEXXZ 004c4d30 f i sp_balloon.obj
 0001:000c3df0       ??0?$JPtrArray@PAVSPBalloonString@@@@QAE@J@Z 004c4df0 f i sp_balloon.obj
 0001:000c3e50       ??1?$SPCacheObj@VSPBalloonFontProp@@VJDummyLockSection@@VJDummyLock@@@@QAE@XZ 004c4e50 f i sp_balloon.obj
 0001:000c3f30       ??0?$JPtrArray@PAVSPBalloonFontProp@@@@QAE@J@Z 004c4f30 f i sp_balloon.obj
 0001:000c3f90       ??_ESPBalloonFontProp@@UAEPAXI@Z 004c4f90 f i sp_balloon.obj
 0001:000c3ff0       ?DeleteLast@?$JArray@PAX@@QAEXK@Z 004c4ff0 f i sp_balloon.obj
 0001:000c4040       ?Release@?$SPCacheObj@VSPBalloonFontProp@@VJDummyLockSection@@VJDummyLock@@@@QAEXXZ 004c5040 f i sp_balloon.obj
 0001:000c40e0       ??1?$SPSparsePtrArrayDef@PAVSPBalloonDescHolder@@@@QAE@XZ 004c50e0 f i sp_balloon.obj
 0001:000c41c0       ?Add@?$SPSparsePtrArrayDef@PAVSPBalloonDescHolder@@@@QAEAAPAVSPBalloonDescHolder@@K@Z 004c51c0 f i sp_balloon.obj
 0001:000c42f0       ??_G?$JHashData@G@@QAEPAXI@Z 004c52f0 f i sp_balloon.obj
 0001:000c4340       ?Last@?$JArray@PAX@@QAEAAPAXXZ 004c5340 f i sp_balloon.obj
 0001:000c4360       ??1?$JHashData@G@@QAE@XZ   004c5360 f i sp_balloon.obj
 0001:000c43a0       ?Add@?$JArray@J@@QAEAAJXZ  004c53a0 f i sp_balloon.obj
 0001:000c43a0       ?Add@?$JArray@K@@QAEAAKXZ  004c53a0 f i sp_balloon.obj
 0001:000c43a0       ?Add@?$JArray@PAX@@QAEAAPAXXZ 004c53a0 f i sp_balloon.obj
 0001:000c44a0       ??_ESPBalloon@@W3AEPAXI@Z  004c54a0 f i sp_balloon.obj
 0001:000c44b0       ??_ESPBalloonDesc@@W3AEPAXI@Z 004c54b0 f i sp_balloon.obj
 0001:000c44c0       ??_ESPBalloonWnd@@W7AEPAXI@Z 004c54c0 f i sp_balloon.obj
 0001:000c44d0       ?CheckFontDifferent@SPBalloonFontProp@@ABE_NABV1@@Z 004c54d0 f   sp_balloonfontprop.obj
 0001:000c4540       ??4SPBalloonFontProp@@QAEAAV0@ABV0@@Z 004c5540 f   sp_balloonfontprop.obj
 0001:000c4780       ??4SPColor@@QAEAAV0@ABV0@@Z 004c5780 f i sp_balloonfontprop.obj
 0001:000c47a0       ??4SPBalloonFontPropMask@@QAEAAV0@ABV0@@Z 004c57a0 f i sp_balloonfontprop.obj
 0001:000c47f0       ??9SPBalloonFontProp@@QBE_NABV0@@Z 004c57f0 f   sp_balloonfontprop.obj
 0001:000c4b30       ??0SPBalloonFontProp@@QAE@XZ 004c5b30 f   sp_balloonfontprop.obj
 0001:000c4cf0       ?ResetFontResource@SPBalloonFontProp@@QAEXXZ 004c5cf0 f   sp_balloonfontprop.obj
 0001:000c4d10       ??1SPBalloonFontProp@@UAE@XZ 004c5d10 f   sp_balloonfontprop.obj
 0001:000c4d60       ?Clear@SPBalloonFontProp@@QAEXXZ 004c5d60 f   sp_balloonfontprop.obj
 0001:000c4e20       ?SetDefault@SPBalloonFontProp@@QAEXXZ 004c5e20 f   sp_balloonfontprop.obj
 0001:000c4eb0       ?ProcessDescript@SPBalloonFontProp@@QAE_N_NAAVJTokenStream@@PBDHPBG@Z 004c5eb0 f   sp_balloonfontprop.obj
 0001:000c4ef0       ?ProcessDescriptReal@SPBalloonFontProp@@AAE_N_NAAVJTokenStream@@PBDHPBG@Z 004c5ef0 f   sp_balloonfontprop.obj
 0001:000c5680       ?GetFontFaceRaw@SPBalloonFontProp@@QBEPBGXZ 004c6680 f   sp_balloonfontprop.obj
 0001:000c56a0       ?GetFontSizeRaw@SPBalloonFontProp@@QBEHXZ 004c66a0 f   sp_balloonfontprop.obj
 0001:000c56c0       ?GetFontFace@SPBalloonFontProp@@QBEPBGXZ 004c66c0 f   sp_balloonfontprop.obj
 0001:000c5720       ?GetFontSize@SPBalloonFontProp@@QBEHXZ 004c6720 f   sp_balloonfontprop.obj
 0001:000c5780       ?SetFontSize@SPBalloonFontProp@@QAEXH@Z 004c6780 f   sp_balloonfontprop.obj
 0001:000c57b0       ?SetFontFace@SPBalloonFontProp@@QAEXPBG@Z 004c67b0 f   sp_balloonfontprop.obj
 0001:000c5900       ?InitLogFont@SPBalloonFontProp@@SAXAAUtagLOGFONTW@@PBG@Z 004c6900 f   sp_balloonfontprop.obj
 0001:000c5930       ?GetFont@SPBalloonFontProp@@QBEPAXXZ 004c6930 f   sp_balloonfontprop.obj
 0001:000c59f0       ?GetCalcFontWidth@SPBalloonFontProp@@QBEHPAX@Z 004c69f0 f   sp_balloonfontprop.obj
 0001:000c5a70       ?GetAnchorPenColor@SPBalloonFontProp@@QBEXAAVSPColor@@PAPBVSPBalloonFontPropMask@@@Z 004c6a70 f   sp_balloonfontprop.obj
 0001:000c5ae0       ?GetAnchorNotselectPenColor@SPBalloonFontProp@@QBEXAAVSPColor@@PAPBVSPBalloonFontPropMask@@@Z 004c6ae0 f   sp_balloonfontprop.obj
 0001:000c5b50       ?GetAnchorVisitedPenColor@SPBalloonFontProp@@QBEXAAVSPColor@@PAPBVSPBalloonFontPropMask@@@Z 004c6b50 f   sp_balloonfontprop.obj
 0001:000c5bc0       ?GetCursorPenColor@SPBalloonFontProp@@QBEXAAVSPColor@@PAPBVSPBalloonFontPropMask@@@Z 004c6bc0 f   sp_balloonfontprop.obj
 0001:000c5c40       ?Release@SPBindProp@@QAEXXZ 004c6c40 f   sp_bind.obj
 0001:000c5da0       ??1SPBindGroup@@QAE@XZ     004c6da0 f i sp_bind.obj
 0001:000c5e10       ?Load@SPBindProp@@QAEXPAG@Z 004c6e10 f   sp_bind.obj
 0001:000c5f20       ?Save@SPBindProp@@QAEXAAVJWString@@@Z 004c6f20 f   sp_bind.obj
 0001:000c6000       ?GetFromEnableID@SPBindProp@@QAEPAVSPBindEntry@@H@Z 004c7000 f   sp_bind.obj
 0001:000c6070       ?GetFromFirstID@SPBindProp@@QAEPAVSPBindEntry@@H@Z 004c7070 f   sp_bind.obj
 0001:000c60b0       ?GetFromMenuID@SPBindProp@@QAEPAVSPBindEntry@@H@Z 004c70b0 f   sp_bind.obj
 0001:000c60e0       ?GetFromUniqueID@SPBindProp@@QAEPAVSPBindEntry@@J@Z 004c70e0 f   sp_bind.obj
 0001:000c6110       ?GetFromName@SPBindProp@@QAEPAVSPBindEntry@@PBG0@Z 004c7110 f   sp_bind.obj
 0001:000c6180       ?GetGroupFromName@SPBindProp@@QAEPAVSPBindGroup@@PBG@Z 004c7180 f   sp_bind.obj
 0001:000c61d0       ?NewGroupFromName@SPBindProp@@QAEPAVSPBindGroup@@PBG@Z 004c71d0 f   sp_bind.obj
 0001:000c63a0       ?GetMenuIndexFromID@SPBindProp@@QAEHH@Z 004c73a0 f   sp_bind.obj
 0001:000c63e0       ?ParseEntry@SPBindProp@@QAEHPAVSPGhost@@PADPAG@Z 004c73e0 f   sp_bind.obj
 0001:000c6c20       ?PreserveEnableState@SPBindProp@@QAEXXZ 004c7c20 f   sp_bind.obj
 0001:000c6c50       ?CheckPreservedEnableState@SPBindProp@@QAE_NAAV?$JPtrArray@PAVSPBindEntry@@@@@Z 004c7c50 f   sp_bind.obj
 0001:000c6d20       ?CheckEntry@SPBindProp@@QAEJPAVSPGhost@@PAV?$JArray@J@@@Z 004c7d20 f   sp_bind.obj
 0001:000c72e0       ?ValidateEntryFlag@SPBindProp@@QAEXXZ 004c82e0 f   sp_bind.obj
 0001:000c7310       ?AddUniqueIDToArray@SPBindProp@@QAEXAAV?$JArray@J@@@Z 004c8310 f   sp_bind.obj
 0001:000c74a0       ?MakeOtherPropIDArray@SPBindProp@@QAEXAAV?$JArray@J@@@Z 004c84a0 f   sp_bind.obj
 0001:000c7600       ?GetUniqueID@SPBindProp@@QAEJXZ 004c8600 f   sp_bind.obj
 0001:000c7630       ?GetThumbnail@SPBindEntry@@QAEPBGPAVSPGhost@@@Z 004c8630 f   sp_bind.obj
 0001:000c7820       ?GetNotifyEntry@SPBindEntry@@QAEPAGKPAVSPGhost@@@Z 004c8820 f   sp_bind.obj
 0001:000c7af0       ?Add@JWString@@QAEXG@Z     004c8af0 f i sp_bind.obj
 0001:000c7c50       ?Release@SPBindGroup@@QAEXXZ 004c8c50 f   sp_bind.obj
 0001:000c7c90       ?Find@SPBindGroup@@QAEJPAVSPBindEntry@@@Z 004c8c90 f   sp_bind.obj
 0001:000c7cc0       ?SetOption@SPBindGroup@@QAEXPBG@Z 004c8cc0 f   sp_bind.obj
 0001:000c7d10       ?IsEnabled@SPBindGroup@@QBE_NKK@Z 004c8d10 f   sp_bind.obj
 0001:000c7d70       ?ValidateEntryFlag@SPBindGroup@@QAEXXZ 004c8d70 f   sp_bind.obj
 0001:000c7de0       ?IsMultiple@SPBindGroup@@QAE_NXZ 004c8de0 f   sp_bind.obj
 0001:000c7df0       ?GetIconIndex@SPBindGroup@@QAEHXZ 004c8df0 f   sp_bind.obj
 0001:000c7e20       ?DisableAllEntry@SPBindGroup@@QAEXPAVSPBindEntry@@@Z 004c8e20 f   sp_bind.obj
 0001:000c7e50       ??1SPBindEntry@@QAE@XZ     004c8e50 f i sp_bind.obj
 0001:000c7ed0       ?_Stable_sort@std@@YAXPAPAVSPBindEntry@@0PAH0U?$JArray_PredConverter@PAVSPBindEntry@@P6AHPBV1@0PAX@Z@@@Z 004c8ed0 f i sp_bind.obj
 0001:000c80d0       ??1?$_Temp_iterator@PAVSPBindEntry@@@std@@QAE@XZ 004c90d0 f i sp_bind.obj
 0001:000c80d0       ??1?$_Temp_iterator@PAVSPHeadlineRSSElement@@@std@@QAE@XZ 004c90d0 f i sp_bind.obj
 0001:000c80f0       ?_Stable_sort@std@@YAXPAPAVSPBindEntry@@0HAAV?$_Temp_iterator@PAVSPBindEntry@@@1@U?$JArray_PredConverter@PAVSPBindEntry@@P6AHPBV1@0PAX@Z@@@Z 004c90f0 f i sp_bind.obj
 0001:000c8440       ?_Buffered_merge_sort@std@@YAXPAPAVSPBindEntry@@0HAAV?$_Temp_iterator@PAVSPBindEntry@@@1@U?$JArray_PredConverter@PAVSPBindEntry@@P6AHPBV1@0PAX@Z@@@Z 004c9440 f i sp_bind.obj
 0001:000c86c0       ?_Buffered_merge@std@@YAXPAPAVSPBindEntry@@00HHAAV?$_Temp_iterator@PAVSPBindEntry@@@1@U?$JArray_PredConverter@PAVSPBindEntry@@P6AHPBV1@0PAX@Z@@@Z 004c96c0 f i sp_bind.obj
 0001:000c8ac0       ?_Init@?$_Temp_iterator@PAVSPHeadlineRSSElement@@@std@@QAEAAV12@XZ 004c9ac0 f i sp_bind.obj
 0001:000c8ac0       ?_Init@?$_Temp_iterator@PAVSPBindEntry@@@std@@QAEAAV12@XZ 004c9ac0 f i sp_bind.obj
 0001:000c8ad0       ?_Chunked_merge@std@@YAXPAPAVSPBindEntry@@0AAV?$_Temp_iterator@PAVSPBindEntry@@@1@HHU?$JArray_PredConverter@PAVSPBindEntry@@P6AHPBV1@0PAX@Z@@@Z 004c9ad0 f i sp_bind.obj
 0001:000c8be0       ?_Chunked_merge@std@@YAXPAPAVSPBindEntry@@0AAPAPAV2@HHU?$JArray_PredConverter@PAVSPBindEntry@@P6AHPBV1@0PAX@Z@@@Z 004c9be0 f i sp_bind.obj
 0001:000c8d50       ?merge@std@@YAPAPAVSPBindEntry@@PAPAV2@0000U?$JArray_PredConverter@PAVSPBindEntry@@P6AHPBV1@0PAX@Z@@@Z 004c9d50 f i sp_bind.obj
 0001:000c8de0       ?merge@std@@YA?AV?$_Temp_iterator@PAVSPBindEntry@@@1@PAPAVSPBindEntry@@000V21@U?$JArray_PredConverter@PAVSPBindEntry@@P6AHPBV1@0PAX@Z@@@Z 004c9de0 f i sp_bind.obj
 0001:000c8f00       ?_Lower_bound@std@@YAPAPAVSPBindEntry@@PAPAV2@0ABQAV2@U?$JArray_PredConverter@PAVSPBindEntry@@P6AHPBV1@0PAX@Z@@PAH@Z 004c9f00 f i sp_bind.obj
 0001:000c8f60       ?Release@SPCalendarIcon@@QAEXXZ 004c9f60 f   sp_calendar.obj
 0001:000c9020       ?Load@SPCalendarIcon@@QAEHPBG@Z 004ca020 f   sp_calendar.obj
 0001:000c93f0       ?Create@SPSurface@@QAE?AVSPCreateSurfaceResult@@AAVJWString@@_N11@Z 004ca3f0 f i sp_calendar.obj
 0001:000c9420       ?GetSurface@SPCalendarIcon@@QAEPAVSPSurface@@PAD@Z 004ca420 f   sp_calendar.obj
 0001:000c9470       ??0SPCalendarDesc@@QAE@XZ  004ca470 f   sp_calendar.obj
 0001:000c9660       ?Release@SPCalendarDesc@@QAEXXZ 004ca660 f   sp_calendar.obj
 0001:000c96e0       ?Init@SPCalendarDesc@@QAEXXZ 004ca6e0 f   sp_calendar.obj
 0001:000c9830       ?LoadDescript@SPCalendarDesc@@QAEHPBG@Z 004ca830 f   sp_calendar.obj
 0001:000ca500       ??4SPCalendarDesc@@QAEAAV0@AAV0@@Z 004cb500 f   sp_calendar.obj
 0001:000ca820       ?PlayTodaysEvent@SPCalendarCell@@QAEHXZ 004cb820 f   sp_calendar.obj
 0001:000cac20       ??0SPCalendar@@QAE@XZ      004cbc20 f   sp_calendar.obj
 0001:000caec0       ??1SPSchedule@@QAE@XZ      004cbec0 f i sp_calendar.obj
 0001:000caf30       ??1SPCalendarProperty@@QAE@XZ 004cbf30 f i sp_calendar.obj
 0001:000cafb0       ??1?$JPtrArray@PAVSPSysFuncEventCall@@@@QAE@XZ 004cbfb0 f i sp_calendar.obj
 0001:000cafb0       ??1?$JPtrArray@PAVJSocketManagerSessionCache@@@@QAE@XZ 004cbfb0 f i sp_calendar.obj
 0001:000cafb0       ??1?$JPtrArray@PAVSPLogData@@@@QAE@XZ 004cbfb0 f i sp_calendar.obj
 0001:000cafb0       ??1?$JPtrArray@PAVSPBalloonProp@@@@QAE@XZ 004cbfb0 f i sp_calendar.obj
 0001:000cafb0       ??1?$JPtrArray@PAUHWND__@@@@QAE@XZ 004cbfb0 f i sp_calendar.obj
 0001:000cafb0       ??1?$JPtrArray@PAVJString@@@@QAE@XZ 004cbfb0 f i sp_calendar.obj
 0001:000cafb0       ?Release@?$JArray@PAVSPProp@@@@QAEXXZ 004cbfb0 f i sp_calendar.obj
 0001:000cafb0       ?Release@?$JArray@VSPSerikoAnimationQueue@@@@QAEXXZ 004cbfb0 f i sp_calendar.obj
 0001:000cafb0       ??1?$JArray@UtagCTW_GHOSTTIMEDATA@@@@QAE@XZ 004cbfb0 f i sp_calendar.obj
 0001:000cafb0       ??1?$JPtrArray@PAVSPPlugin@@@@QAE@XZ 004cbfb0 f i sp_calendar.obj
 0001:000cafb0       ??1?$JArray@VCCharWndCodeManagerData@@@@QAE@XZ 004cbfb0 f i sp_calendar.obj
 0001:000cafb0       ??1?$JPtrArray@PAVSPBindGroup@@@@QAE@XZ 004cbfb0 f i sp_calendar.obj
 0001:000cafb0       ??1?$JArray@VSPSerikoAnimationQueue@@@@QAE@XZ 004cbfb0 f i sp_calendar.obj
 0001:000cafb0       ??1?$JArray@PAX@@QAE@XZ    004cbfb0 f i sp_calendar.obj
 0001:000cafb0       ??1?$JPtrArray@PAVSPGhostProp@@@@QAE@XZ 004cbfb0 f i sp_calendar.obj
 0001:000cafb0       ??1?$JPtrArray@PAVSPMultiFileEntry@@@@QAE@XZ 004cbfb0 f i sp_calendar.obj
 0001:000cafb0       ??1?$JPtrArray@PAVCCharBodyWnd@@@@QAE@XZ 004cbfb0 f i sp_calendar.obj
 0001:000cafb0       ??1?$JArray@H@@QAE@XZ      004cbfb0 f i sp_calendar.obj
 0001:000cafb0       ??1?$JArray@VJRect@@@@QAE@XZ 004cbfb0 f i sp_calendar.obj
 0001:000cafb0       ??1?$JPtrArray@PAVSPSSTPData@@@@QAE@XZ 004cbfb0 f i sp_calendar.obj
 0001:000cafb0       ??1?$JPtrArray@PAVSPLSPString@@@@QAE@XZ 004cbfb0 f i sp_calendar.obj
 0001:000cafb0       ??1?$JArray@VJSockAddr@@@@QAE@XZ 004cbfb0 f i sp_calendar.obj
 0001:000cafb0       ??1?$JPtrArray@PAU_TREEITEM@@@@QAE@XZ 004cbfb0 f i sp_calendar.obj
 0001:000cafb0       ??1?$JPtrArray@PAVSPSurfaceTestData@@@@QAE@XZ 004cbfb0 f i sp_calendar.obj
 0001:000cafb0       ??1?$JPtrArray@PBD@@QAE@XZ 004cbfb0 f i sp_calendar.obj
 0001:000cafb0       ??1?$JArray@K@@QAE@XZ      004cbfb0 f i sp_calendar.obj
 0001:000cafb0       ??1?$JArray@UtagSPControlAdjusterData@@@@QAE@XZ 004cbfb0 f i sp_calendar.obj
 0001:000cafb0       ??1?$JPtrArray@PAVSPBalloonFontProp@@@@QAE@XZ 004cbfb0 f i sp_calendar.obj
 0001:000cafb0       ??1?$JPtrArray@PBG@@QAE@XZ 004cbfb0 f i sp_calendar.obj
 0001:000cafb0       ??1?$JArray@VSPSerikoAnimationPlayPat@@@@QAE@XZ 004cbfb0 f i sp_calendar.obj
 0001:000cafb0       ??1?$JPtrArray@PAVSPBalloonImage@@@@QAE@XZ 004cbfb0 f i sp_calendar.obj
 0001:000cafb0       ??1?$JPtrArray@PAVSPGhostLoaderInfo@@@@QAE@XZ 004cbfb0 f i sp_calendar.obj
 0001:000cafb0       ?Release@?$JArray@UtagSPSurfaceRgnCache@@@@QAEXXZ 004cbfb0 f i sp_calendar.obj
 0001:000cafb0       ??1?$JPtrArray@PAVSPHeadlineRSSElement@@@@QAE@XZ 004cbfb0 f i sp_calendar.obj
 0001:000cafb0       ??1?$JPtrArray@PAVSPGhostRaiseTimerBlock@@@@QAE@XZ 004cbfb0 f i sp_calendar.obj
 0001:000cafb0       ??1?$JPtrArray@PAVJGIFImage@@@@QAE@XZ 004cbfb0 f i sp_calendar.obj
 0001:000cafb0       ??1?$JPtrArray@PAVSPBindProp@@@@QAE@XZ 004cbfb0 f i sp_calendar.obj
 0001:000cafb0       ??1?$JPtrArray@PAUHMENU__@@@@QAE@XZ 004cbfb0 f i sp_calendar.obj
 0001:000cafb0       ??1?$JPtrArray@PAVCGhostAIGraphInfo@@@@QAE@XZ 004cbfb0 f i sp_calendar.obj
 0001:000cafb0       ??1?$JPtrArray@PAVSPShellProp@@@@QAE@XZ 004cbfb0 f i sp_calendar.obj
 0001:000cafb0       ??1?$JPtrArray@PAVSPBalloonDesc@@@@QAE@XZ 004cbfb0 f i sp_calendar.obj
 0001:000cafb0       ??1?$JPtrArray@PAVSPSurfaceTable@@@@QAE@XZ 004cbfb0 f i sp_calendar.obj
 0001:000cafb0       ??1?$JPtrArray@PAVSPPopAccount@@@@QAE@XZ 004cbfb0 f i sp_calendar.obj
 0001:000cafb0       ??1?$JPtrArray@PAVSPProp@@@@QAE@XZ 004cbfb0 f i sp_calendar.obj
 0001:000cafb0       ??1?$JPtrArray@PAVSPCollisionProp@@@@QAE@XZ 004cbfb0 f i sp_calendar.obj
 0001:000cafb0       ??1SPSimpleEncode@@QAE@XZ  004cbfb0 f i sp_calendar.obj
 0001:000cafb0       ??1?$JArray@U_TASKDIALOG_BUTTON@@@@QAE@XZ 004cbfb0 f i sp_calendar.obj
 0001:000cafb0       ??1?$JArray@N@@QAE@XZ      004cbfb0 f i sp_calendar.obj
 0001:000cafb0       ??1?$JPtrArray@PAVSPAnimeSurfaceElement@@@@QAE@XZ 004cbfb0 f i sp_calendar.obj
 0001:000cafb0       ??1?$JPtrArray@PAVCGhostATSoundDesc@@@@QAE@XZ 004cbfb0 f i sp_calendar.obj
 0001:000cafb0       ??1?$JPtrArray@PAVSPOtherGhostProp@@@@QAE@XZ 004cbfb0 f i sp_calendar.obj
 0001:000cafb0       ??1?$JPtrArray@PAVJSurface@@@@QAE@XZ 004cbfb0 f i sp_calendar.obj
 0001:000cafb0       ??1?$JPtrArray@PAVSPHeadline@@@@QAE@XZ 004cbfb0 f i sp_calendar.obj
 0001:000cafb0       ??1?$JPtrArray@PAVSPScriptCategory@@@@QAE@XZ 004cbfb0 f i sp_calendar.obj
 0001:000cafb0       ??1?$JPtrArray@PAVSPTimingEntry@@@@QAE@XZ 004cbfb0 f i sp_calendar.obj
 0001:000cafb0       ??1?$JPtrArray@PAUHICON__@@@@QAE@XZ 004cbfb0 f i sp_calendar.obj
 0001:000cafb0       ??1?$JPtrArray@PAVSPScript@@@@QAE@XZ 004cbfb0 f i sp_calendar.obj
 0001:000cafb0       ??1?$JPtrArray@PAVSPCookieEntry@@@@QAE@XZ 004cbfb0 f i sp_calendar.obj
 0001:000cafb0       ??1?$JPtrArray@PAVSPMessengerUser@@@@QAE@XZ 004cbfb0 f i sp_calendar.obj
 0001:000cafb0       ??1?$JPtrArray@PAVSPTimeClientData@@@@QAE@XZ 004cbfb0 f i sp_calendar.obj
 0001:000cafb0       ??1?$JPtrArray@PAVSPDeviceInfo@@@@QAE@XZ 004cbfb0 f i sp_calendar.obj
 0001:000cafb0       ??1?$JPtrArray@PAVSPInitOnce@@@@QAE@XZ 004cbfb0 f i sp_calendar.obj
 0001:000cafb0       ?Release@?$JArray@VJRect@@@@QAEXXZ 004cbfb0 f i sp_calendar.obj
 0001:000cafb0       ??1JGXCodepageTable@@QAE@XZ 004cbfb0 f i sp_calendar.obj
 0001:000cafb0       ?Release@?$JArray@D@@QAEXXZ 004cbfb0 f i sp_calendar.obj
 0001:000cafb0       ??1?$JPtrArray@PAVCWnd@@@@QAE@XZ 004cbfb0 f i sp_calendar.obj
 0001:000cafb0       ?Release@?$JArray@VSPMonitorInfo@@@@QAEXXZ 004cbfb0 f i sp_calendar.obj
 0001:000cafb0       ??1?$JPtrArray@PAVSPSSTPServerSocket@@@@QAE@XZ 004cbfb0 f i sp_calendar.obj
 0001:000cafb0       ??1?$JPtrArray@PAVSPDlgTemplateItem@@@@QAE@XZ 004cbfb0 f i sp_calendar.obj
 0001:000cafb0       ??1?$JPtrArray@PBVXMLNode@tinyxml2@@@@QAE@XZ 004cbfb0 f i sp_calendar.obj
 0001:000cafb0       ??1?$JPtrArray@PAVSPCmdListener@@@@QAE@XZ 004cbfb0 f i sp_calendar.obj
 0001:000cafb0       ??1?$JArray@E@@QAE@XZ      004cbfb0 f i sp_calendar.obj
 0001:000cafb0       ?Release@?$JArray@VSPSerikoAnimationPlayPat@@@@QAEXXZ 004cbfb0 f i sp_calendar.obj
 0001:000cafb0       ?Release@?$JArray@H@@QAEXXZ 004cbfb0 f i sp_calendar.obj
 0001:000cafb0       ??1?$JArray@VSPSerikoRange@@@@QAE@XZ 004cbfb0 f i sp_calendar.obj
 0001:000cafb0       ??1?$JPtrArray@PAVCCharWndCode@@@@QAE@XZ 004cbfb0 f i sp_calendar.obj
 0001:000cafb0       ??1?$JPtrArray@PAVSPCompatibleWordEntry@@@@QAE@XZ 004cbfb0 f i sp_calendar.obj
 0001:000cafb0       ??1?$JPtrArray@PAVSPBalloonWnd@@@@QAE@XZ 004cbfb0 f i sp_calendar.obj
 0001:000cafb0       ??1?$JPtrArray@PAVSPOtherFINEServerProp@@@@QAE@XZ 004cbfb0 f i sp_calendar.obj
 0001:000cafb0       ??1?$JPtrArray@PAVSPUsageStatisticsEntry@@@@QAE@XZ 004cbfb0 f i sp_calendar.obj
 0001:000cafb0       ??1?$JPtrArray@PAVSPBindEntry@@@@QAE@XZ 004cbfb0 f i sp_calendar.obj
 0001:000cafb0       ?Release@?$JArray@PAX@@QAEXXZ 004cbfb0 f i sp_calendar.obj
 0001:000cafb0       ??1?$JArray@V?$SPSparsePtrArrayDefPair@PAVSPAnimeBase@@@@@@QAE@XZ 004cbfb0 f i sp_calendar.obj
 0001:000cafb0       ??1?$JArray@VSPMonitorInfo@@@@QAE@XZ 004cbfb0 f i sp_calendar.obj
 0001:000cafb0       ??1?$JPtrArray@PAVJWString@@@@QAE@XZ 004cbfb0 f i sp_calendar.obj
 0001:000cafb0       ??1?$JArray@UtagSPSurfaceRgnCache@@@@QAE@XZ 004cbfb0 f i sp_calendar.obj
 0001:000cafb0       ??1?$JPtrArray@PAVSPGhostMoveManagerInfo@@@@QAE@XZ 004cbfb0 f i sp_calendar.obj
 0001:000cafb0       ??1?$JPtrArray@PAVSPSurface@@@@QAE@XZ 004cbfb0 f i sp_calendar.obj
 0001:000cafb0       ??1?$JArray@V?$SPSparsePtrArrayDefPair@PAVSPBalloonDescHolder@@@@@@QAE@XZ 004cbfb0 f i sp_calendar.obj
 0001:000cafb0       ??1?$JPtrArray@PAVSPPopMessage@@@@QAE@XZ 004cbfb0 f i sp_calendar.obj
 0001:000cafb0       ??1?$JPtrArray@PAVSPSerikoTaskBase@@@@QAE@XZ 004cbfb0 f i sp_calendar.obj
 0001:000cafb0       ??1?$JArray@D@@QAE@XZ      004cbfb0 f i sp_calendar.obj
 0001:000cafb0       ??1?$JPtrArray@PAVSPCmdNotifier@@@@QAE@XZ 004cbfb0 f i sp_calendar.obj
 0001:000cafb0       ??1?$JArray@J@@QAE@XZ      004cbfb0 f i sp_calendar.obj
 0001:000cafb0       ??1?$JPtrArray@PAVSPLanguageProp@@@@QAE@XZ 004cbfb0 f i sp_calendar.obj
 0001:000cafb0       ??1?$JPtrArray@PAVSPScheduleEntry@@@@QAE@XZ 004cbfb0 f i sp_calendar.obj
 0001:000cafb0       ??1?$JArray@VCExplorerDialogData@@@@QAE@XZ 004cbfb0 f i sp_calendar.obj
 0001:000cafb0       ??1?$JArray@UtagSPMenuHackData@@@@QAE@XZ 004cbfb0 f i sp_calendar.obj
 0001:000cafb0       ??1?$JPtrArray@PAVSPMessengerLogData@@@@QAE@XZ 004cbfb0 f i sp_calendar.obj
 0001:000cafb0       ??1?$JArray@G@@QAE@XZ      004cbfb0 f i sp_calendar.obj
 0001:000cafb0       ??1?$JPtrArray@PAG@@QAE@XZ 004cbfb0 f i sp_calendar.obj
 0001:000cafb0       ??1?$JPtrArray@PAVSPGhost@@@@QAE@XZ 004cbfb0 f i sp_calendar.obj
 0001:000cafb0       ??1?$JArray@UtagSPSysFuncThreadInfo@@@@QAE@XZ 004cbfb0 f i sp_calendar.obj
 0001:000cafb0       ?Release@?$JArray@J@@QAEXXZ 004cbfb0 f i sp_calendar.obj
 0001:000cafb0       ??1?$JPtrArray@PAVSPMenuTemplateItem@@@@QAE@XZ 004cbfb0 f i sp_calendar.obj
 0001:000cafb0       ??1?$JPtrArray@PAVSPScriptQueueData@@@@QAE@XZ 004cbfb0 f i sp_calendar.obj
 0001:000cafb0       ??1?$JPtrArray@PAV?$JArray@J@@@@QAE@XZ 004cbfb0 f i sp_calendar.obj
 0001:000cafb0       ??1?$JPtrArray@PAVSPVanishData@@@@QAE@XZ 004cbfb0 f i sp_calendar.obj
 0001:000cafb0       ??1?$JArray@VJPoint@@@@QAE@XZ 004cbfb0 f i sp_calendar.obj
 0001:000cafb0       ??1?$JArray@UtagPOINT@@@@QAE@XZ 004cbfb0 f i sp_calendar.obj
 0001:000cafb0       ??1?$JPtrArray@PAVSPCalendarImage@@@@QAE@XZ 004cbfb0 f i sp_calendar.obj
 0001:000cafb0       ?Release@?$JArray@UtagPOINT@@@@QAEXXZ 004cbfb0 f i sp_calendar.obj
 0001:000cafb0       ?Release@?$JArray@G@@QAEXXZ 004cbfb0 f i sp_calendar.obj
 0001:000cafb0       ??1?$JPtrArray@PAVCInputWnd@@@@QAE@XZ 004cbfb0 f i sp_calendar.obj
 0001:000cafb0       ??1?$JPtrArray@PAUIBaseFilter@@@@QAE@XZ 004cbfb0 f i sp_calendar.obj
 0001:000cafb0       ??1?$JArray@VCSurfaceTestBaseList@@@@QAE@XZ 004cbfb0 f i sp_calendar.obj
 0001:000cafb0       ??1?$JPtrArray@PAVSPSpeechImplData@@@@QAE@XZ 004cbfb0 f i sp_calendar.obj
 0001:000cafb0       ??1?$JPtrArray@PAV?$JPtrArray@PAVSPRecommendProp@@@@@@QAE@XZ 004cbfb0 f i sp_calendar.obj
 0001:000cafb0       ??1?$JPtrArray@PAVSPSTMThreadDesc@@@@QAE@XZ 004cbfb0 f i sp_calendar.obj
 0001:000cafb0       ??1?$JPtrArray@PAVSPCalendarIconEntry@@@@QAE@XZ 004cbfb0 f i sp_calendar.obj
 0001:000cafb0       ??1?$JPtrArray@PAVSPAnimeScript@@@@QAE@XZ 004cbfb0 f i sp_calendar.obj
 0001:000cafb0       ??1?$JPtrArray@PAVSPURLTranslateData@@@@QAE@XZ 004cbfb0 f i sp_calendar.obj
 0001:000cafb0       ??1?$JPtrArray@PAVCThumbnailWnd@@@@QAE@XZ 004cbfb0 f i sp_calendar.obj
 0001:000cafb0       ?Release@?$JArray@VSPSerikoRange@@@@QAEXXZ 004cbfb0 f i sp_calendar.obj
 0001:000cafb0       ??1?$JPtrArray@PAD@@QAE@XZ 004cbfb0 f i sp_calendar.obj
 0001:000cafb0       ??1?$JPtrArray@PAVSPUpdateEntry@@@@QAE@XZ 004cbfb0 f i sp_calendar.obj
 0001:000cafb0       ??1?$JPtrArray@PAVSPGhostDlgInfo@@@@QAE@XZ 004cbfb0 f i sp_calendar.obj
 0001:000cafb0       ??1?$JPtrArray@PAE@@QAE@XZ 004cbfb0 f i sp_calendar.obj
 0001:000cafb0       ??1?$JPtrArray@PAVSPScriptEntry@@@@QAE@XZ 004cbfb0 f i sp_calendar.obj
 0001:000cafb0       ??1?$JPtrArray@PAVSPDataPathListData@@@@QAE@XZ 004cbfb0 f i sp_calendar.obj
 0001:000cafb0       ?Release@?$JArray@VJPoint@@@@QAEXXZ 004cbfb0 f i sp_calendar.obj
 0001:000cafb0       ??1?$JPtrArray@PAVSPSerikoAnimation@@@@QAE@XZ 004cbfb0 f i sp_calendar.obj
 0001:000cafb0       ??1?$JPtrArray@PAVSPCookieClient@@@@QAE@XZ 004cbfb0 f i sp_calendar.obj
 0001:000cafb0       ??1?$JPtrArray@PAVCSSPPropertyData@@@@QAE@XZ 004cbfb0 f i sp_calendar.obj
 0001:000cafb0       ??1?$JPtrArray@PAVSPMenuItem@@@@QAE@XZ 004cbfb0 f i sp_calendar.obj
 0001:000cafb0       ??1?$JPtrArray@PAVSPFolderListData@@@@QAE@XZ 004cbfb0 f i sp_calendar.obj
 0001:000cafb0       ??1?$JPtrArray@PAVSPScheduleSensorProp@@@@QAE@XZ 004cbfb0 f i sp_calendar.obj
 0001:000cafb0       ?Release@?$JArray@UtagSPControlAdjusterData@@@@QAEXXZ 004cbfb0 f i sp_calendar.obj
 0001:000cafb0       ?Release@?$JArray@K@@QAEXXZ 004cbfb0 f i sp_calendar.obj
 0001:000cafb0       ??1?$JPtrArray@PAVCPlaySSFScript@@@@QAE@XZ 004cbfb0 f i sp_calendar.obj
 0001:000cafb0       ??1?$JPtrArray@PAVSPBalloonString@@@@QAE@XZ 004cbfb0 f i sp_calendar.obj
 0001:000cafb0       ??1?$JPtrArray@PAVSPAnimePat@@@@QAE@XZ 004cbfb0 f i sp_calendar.obj
 0001:000cafb0       ??1?$JPtrArray@PAX@@QAE@XZ 004cbfb0 f i sp_calendar.obj
 0001:000cafb0       ??1?$JPtrArray@PAVSPSerikoToolTipsEntry@@@@QAE@XZ 004cbfb0 f i sp_calendar.obj
 0001:000cafb0       ?Release@?$JArray@V?$SPSparsePtrArrayDefPair@PAVSPAnimeBase@@@@@@QAEXXZ 004cbfb0 f i sp_calendar.obj
 0001:000cafb0       ??1?$JPtrArray@PAVSPSensorAPIData@@@@QAE@XZ 004cbfb0 f i sp_calendar.obj
 0001:000cafb0       ??1?$JPtrArray@PAVSPCalendarSkinProp@@@@QAE@XZ 004cbfb0 f i sp_calendar.obj
 0001:000cafb0       ??1?$JPtrArray@PAVSPRecommendProp@@@@QAE@XZ 004cbfb0 f i sp_calendar.obj
 0001:000cafb0       ??1?$JPtrArray@PAVSPSongEntry@@@@QAE@XZ 004cbfb0 f i sp_calendar.obj
 0001:000cafb0       ??1?$JPtrArray@PAVSPGhostRaiseBlock@@@@QAE@XZ 004cbfb0 f i sp_calendar.obj
 0001:000cafb0       ??1?$JPtrArray@PAVSPSerikoCursorEntry@@@@QAE@XZ 004cbfb0 f i sp_calendar.obj
 0001:000cafb0       ??1?$JPtrArray@PAVSPSysFunc_AddFontResourceInfo@@@@QAE@XZ 004cbfb0 f i sp_calendar.obj
 0001:000cafe0       ??0SPCalendarCell@@QAE@XZ  004cbfe0 f i sp_calendar.obj
 0001:000cb070       ??1SPCalendarCell@@QAE@XZ  004cc070 f i sp_calendar.obj
 0001:000cb0d0       ??1SPCalendar@@QAE@XZ      004cc0d0 f   sp_calendar.obj
 0001:000cb350       ??1SPCalendarDesc@@QAE@XZ  004cc350 f i sp_calendar.obj
 0001:000cb430       ?Release@SPCalendar@@QAEXXZ 004cc430 f   sp_calendar.obj
 0001:000cb440       ?ReleaseSurface@SPCalendar@@QAEXXZ 004cc440 f   sp_calendar.obj
 0001:000cb4d0       ?Init@SPCalendar@@QAEHXZ   004cc4d0 f   sp_calendar.obj
 0001:000cb8d0       ?SetMonth@SPCalendar@@QAEHHHH@Z 004cc8d0 f   sp_calendar.obj
 0001:000cb910       ?IsInMoveMonthRect@SPCalendar@@QAEHAAUtagPOINT@@H@Z 004cc910 f   sp_calendar.obj
 0001:000cb980       ?MoveMonth@SPCalendar@@QAEHH@Z 004cc980 f   sp_calendar.obj
 0001:000cba10       ?SetToday@SPCalendar@@QAEHXZ 004cca10 f   sp_calendar.obj
 0001:000cba40       ?InitCell@SPCalendar@@IAEXXZ 004cca40 f   sp_calendar.obj
 0001:000cbfe0       ?GetToday@SPCalendar@@IAEXXZ 004ccfe0 f   sp_calendar.obj
 0001:000cc030       ?CreateCalendar@SPCalendar@@QAEHXZ 004cd030 f   sp_calendar.obj
 0001:000cd220       ??0SPSurface@@QAE@XZ       004ce220 f i sp_calendar.obj
 0001:000cd290       ?DrawBackBuffer@SPCalendar@@QAEHXZ 004ce290 f   sp_calendar.obj
 0001:000cd570       ?DrawCell@SPCalendar@@IAEHHH@Z 004ce570 f   sp_calendar.obj
 0001:000cd770       ?DeleteCurrentCell@SPCalendar@@QAEXXZ 004ce770 f   sp_calendar.obj
 0001:000cd800       ?DeleteYear@SPCalendar@@QAEXH@Z 004ce800 f   sp_calendar.obj
 0001:000cd830       ?DeleteMonth@SPCalendar@@QAEXHH@Z 004ce830 f   sp_calendar.obj
 0001:000cd940       ?LoadSchedule@SPCalendar@@QAEHXZ 004ce940 f   sp_calendar.obj
 0001:000cdb60       ?SelectCell@SPCalendar@@QAEHHH@Z 004ceb60 f   sp_calendar.obj
 0001:000cdc60       ?MoveCell@SPCalendar@@QAEHHH@Z 004cec60 f   sp_calendar.obj
 0001:000cdcf0       ?GetCell@SPCalendar@@QAEPAVSPCalendarCell@@HH@Z 004cecf0 f   sp_calendar.obj
 0001:000cddd0       ?GetIconCell@SPCalendar@@QAEHPAVSPCalendarCell@@HH@Z 004cedd0 f   sp_calendar.obj
 0001:000cde80       ?Present@SPCalendar@@QAEHXZ 004cee80 f   sp_calendar.obj
 0001:000cdf90       ?UpdateCalendar@SPCalendar@@QAEXXZ 004cef90 f   sp_calendar.obj
 0001:000cdfb0       ?NotifyTodaySchedule@SPCalendar@@QAE_NPAVSPGhost@@@Z 004cefb0 f   sp_calendar.obj
 0001:000ce250       ?GetTodaySchedule@SPCalendar@@QAE_N_N@Z 004cf250 f   sp_calendar.obj
 0001:000ce440       ?CheckSchedule@SPCalendar@@QAEHPAVSPGhost@@HH@Z 004cf440 f   sp_calendar.obj
 0001:000ce770       ?PlayScheduleEntry@SPCalendar@@QAEHPAVSPScheduleEntry@@@Z 004cf770 f   sp_calendar.obj
 0001:000ce980       ?PlayTodaysSchedule@SPCalendar@@QAEHXZ 004cf980 f   sp_calendar.obj
 0001:000ceba0       ??0?$JPtrArray@PAVSPSurface@@@@QAE@J@Z 004cfba0 f i sp_calendar.obj
 0001:000cec00       ??1SPCalendarIconEntry@@QAE@XZ 004cfc00 f i sp_calendar.obj
 0001:000cec50       ?SetNum@?$JArray@VJRect@@@@QAEXK@Z 004cfc50 f i sp_calendar.obj
 0001:000ceca0       ??0SPCalendarProperty@@QAE@XZ 004cfca0 f   sp_calprop.obj
 0001:000ced40       ?Release@SPCalendarProperty@@QAEXXZ 004cfd40 f   sp_calprop.obj
 0001:000cede0       ?EnumSkins@SPCalendarProperty@@QAEHXZ 004cfde0 f   sp_calprop.obj
 0001:000cefd0       ??1SPFolderList@@QAE@XZ    004cffd0 f i sp_calprop.obj
 0001:000cf0c0       ?LoadSkinInfo@SPCalendarProperty@@IAEHPAVSPFolderListData@@@Z 004d00c0 f   sp_calprop.obj
 0001:000cf3c0       ?RefAdd@SPRefCount@@UAEKXZ 004d03c0 f i sp_calprop.obj
 0001:000cf3f0       ?RefRelease@SPRefCount@@UAEKXZ 004d03f0 f i sp_calprop.obj
 0001:000cf430       ??0SPProp@@QAE@XZ          004d0430 f i sp_calprop.obj
 0001:000cf630       ??1SPRefCount@@MAE@XZ      004d0630 f i sp_calprop.obj
 0001:000cf640       ??_GSPRefCount@@MAEPAXI@Z  004d0640 f i sp_calprop.obj
 0001:000cf640       ??_ESPRefCount@@MAEPAXI@Z  004d0640 f i sp_calprop.obj
 0001:000cf670       ??_ESPProp@@MAEPAXI@Z      004d0670 f i sp_calprop.obj
 0001:000cf670       ??_GSPProp@@MAEPAXI@Z      004d0670 f i sp_calprop.obj
 0001:000cf6a0       ??1SPProp@@MAE@XZ          004d06a0 f i sp_calprop.obj
 0001:000cf790       ?GetTypeString@SPCalendarSkinProp@@UAEPBGXZ 004d0790 f i sp_calprop.obj
 0001:000cf7a0       ??_GSPCalendarSkinProp@@MAEPAXI@Z 004d07a0 f i sp_calprop.obj
 0001:000cf7a0       ??_ESPCalendarSkinProp@@MAEPAXI@Z 004d07a0 f i sp_calprop.obj
 0001:000cf7d0       ??1SPCalendarSkinProp@@MAE@XZ 004d07d0 f i sp_calprop.obj
 0001:000cf8c0       ?EnumSensors@SPCalendarProperty@@QAEHXZ 004d08c0 f   sp_calprop.obj
 0001:000cfac0       ?LoadSensorInfo@SPCalendarProperty@@IAEHPAVSPFolderListData@@@Z 004d0ac0 f   sp_calprop.obj
 0001:000cfe80       ??_ESPScheduleSensorProp@@MAEPAXI@Z 004d0e80 f i sp_calprop.obj
 0001:000cfe80       ??_GSPScheduleSensorProp@@MAEPAXI@Z 004d0e80 f i sp_calprop.obj
 0001:000cfeb0       ??1SPScheduleSensorProp@@MAE@XZ 004d0eb0 f i sp_calprop.obj
 0001:000cffc0       ?SetSkin@SPCalendarProperty@@QAEHJ@Z 004d0fc0 f   sp_calprop.obj
 0001:000d0010       ?SetSkin@SPCalendarProperty@@QAEHPBG@Z 004d1010 f   sp_calprop.obj
 0001:000d0050       ?FindSkinIDFromPath@SPCalendarProperty@@QAEHPBG@Z 004d1050 f   sp_calprop.obj
 0001:000d0180       ?FindSkinIDFromRelativePath@SPCalendarProperty@@QAEHPBG@Z 004d1180 f   sp_calprop.obj
 0001:000d02a0       ??0?$JPtrArray@PAVJWString@@@@QAE@J@Z 004d12a0 f i sp_calprop.obj
 0001:000d0300       ?_Sort@std@@YAXPAPAVSPCalendarSkinProp@@0U?$JArray_PointerPred@PAVSPCalendarSkinProp@@@@0@Z 004d1300 f i sp_calprop.obj
 0001:000d0430       ?_Unguarded_insert@std@@YAXPAPAVSPScheduleSensorProp@@PAV2@U?$JArray_PointerPred@PAVSPScheduleSensorProp@@@@@Z 004d1430 f i sp_calprop.obj
 0001:000d0430       ?_Unguarded_insert@std@@YAXPAPAVSPCalendarSkinProp@@PAV2@U?$JArray_PointerPred@PAVSPCalendarSkinProp@@@@@Z 004d1430 f i sp_calprop.obj
 0001:000d0470       ?_Sort@std@@YAXPAPAVSPScheduleSensorProp@@0U?$JArray_PointerPred@PAVSPScheduleSensorProp@@@@0@Z 004d1470 f i sp_calprop.obj
 0001:000d05a0       ?_Insertion_sort_1@std@@YAXPAPAVSPScheduleSensorProp@@0U?$JArray_PointerPred@PAVSPScheduleSensorProp@@@@0@Z 004d15a0 f i sp_calprop.obj
 0001:000d05a0       ?_Insertion_sort_1@std@@YAXPAPAVSPShellProp@@0U?$JArray_PointerPred@PAVSPShellProp@@@@0@Z 004d15a0 f i sp_calprop.obj
 0001:000d05a0       ?_Insertion_sort_1@std@@YAXPAPAVSPCalendarSkinProp@@0U?$JArray_PointerPred@PAVSPCalendarSkinProp@@@@0@Z 004d15a0 f i sp_calprop.obj
 0001:000d0630       ??_ESPScheduleSensorProp@@O3AEPAXI@Z 004d1630 f i sp_calprop.obj
 0001:000d0640       ??_ESPProp@@O3AEPAXI@Z     004d1640 f i sp_calprop.obj
 0001:000d0650       ??_ESPCalendarSkinProp@@O3AEPAXI@Z 004d1650 f i sp_calprop.obj
 0001:000d0660       ?SPGetCharcodeReference@@YAGPAG@Z 004d1660 f   sp_char.obj
 0001:000d06c0       ?GetSPCharsetDetect@@YAAAVSPCharsetDetect@@XZ 004d16c0 f   sp_charsetdetect.obj
 0001:000d0750       ??0SPCharsetDetect@@AAE@XZ 004d1750 f   sp_charsetdetect.obj
 0001:000d07f0       ??_GSPCharsetDetect@@UAEPAXI@Z 004d17f0 f i sp_charsetdetect.obj
 0001:000d07f0       ??_ESPCharsetDetect@@UAEPAXI@Z 004d17f0 f i sp_charsetdetect.obj
 0001:000d0820       ??1SPCharsetDetect@@UAE@XZ 004d1820 f   sp_charsetdetect.obj
 0001:000d08a0       ?DetectInputCodepageAPI@SPCharsetDetect@@QAEHPBDJPBH@Z 004d18a0 f   sp_charsetdetect.obj
 0001:000d0960       ?DetectCodePage@SPCharsetDetect@@QAEHAAVJMappedStream@@_N@Z 004d1960 f   sp_charsetdetect.obj
 0001:000d0980       ?DetectCodePage@SPCharsetDetect@@QAEHAAVJTokenStream@@_N@Z 004d1980 f   sp_charsetdetect.obj
 0001:000d09a0       ?DetectCodePage@SPCharsetDetect@@QAEHPBD_N@Z 004d19a0 f   sp_charsetdetect.obj
 0001:000d0e50       ??1?$_com_ptr_t_ssp@V?$_com_IIID_ssp@UIMFVideoDisplayControl@@$1?_GUID_a490b1e4_ab84_4d31_a1b2_181e03b1077a@@3U__s_GUID@@A@@@@QAE@XZ 004d1e50 f i sp_charsetdetect.obj
 0001:000d0e50       ??1?$_com_ptr_t_ssp@V?$_com_IIID_ssp@UIGraphBuilder@@$1?_GUID_56a868a9_0ad4_11ce_b03a_0020af0ba770@@3U__s_GUID@@A@@@@QAE@XZ 004d1e50 f i sp_charsetdetect.obj
 0001:000d0e50       ??1?$_com_ptr_t_ssp@V?$_com_IIID_ssp@UISensorManager@@$1?_GUID_bd77db67_45a8_42dc_8d00_6dcf15f8377a@@3U__s_GUID@@A@@@@QAE@XZ 004d1e50 f i sp_charsetdetect.obj
 0001:000d0e50       ??1?$_com_ptr_t_ssp@V?$_com_IIID_ssp@UISpVoice@@$1?_GUID_6c44df74_72b9_4992_a1ec_ef996e0422d4@@3U__s_GUID@@A@@@@QAE@XZ 004d1e50 f i sp_charsetdetect.obj
 0001:000d0e50       ??1?$_com_ptr_t_ssp@V?$_com_IIID_ssp@UISpRecoGrammar@@$1?_GUID_2177db29_7f45_47d0_8554_067e91c80502@@3U__s_GUID@@A@@@@QAE@XZ 004d1e50 f i sp_charsetdetect.obj
 0001:000d0e50       ?_Release@?$_com_ptr_t@V?$_com_IIID@UIShellLinkW@@$1?_GUID_000214f9_0000_0000_c000_000000000046@@3U__s_GUID@@A@@@@AAEXXZ 004d1e50 f i sp_charsetdetect.obj
 0001:000d0e50       ??1?$_com_ptr_t_ssp@V?$_com_IIID_ssp@UIBasicAudio@@$1?_GUID_56a868b3_0ad4_11ce_b03a_0020af0ba770@@3U__s_GUID@@A@@@@QAE@XZ 004d1e50 f i sp_charsetdetect.obj
 0001:000d0e50       ??1?$_com_ptr_t_ssp@V?$_com_IIID_ssp@UIVirtualDesktopManager@@$1?_GUID_a5cd92ff_29be_454c_8d04_d82879fb3f1b@@3U__s_GUID@@A@@@@QAE@XZ 004d1e50 f i sp_charsetdetect.obj
 0001:000d0e50       ??1?$_com_ptr_t_ssp@V?$_com_IIID_ssp@UIObjectArray@@$1?_GUID_92ca9dcd_5622_4bba_a805_5e9f541bd8c9@@3U__s_GUID@@A@@@@QAE@XZ 004d1e50 f i sp_charsetdetect.obj
 0001:000d0e50       ??1?$_com_ptr_t_ssp@V?$_com_IIID_ssp@UIFileSaveDialog@@$1?_GUID_84bccd23_5fde_4cdb_aea4_af64b83d78ab@@3U__s_GUID@@A@@@@QAE@XZ 004d1e50 f i sp_charsetdetect.obj
 0001:000d0e50       ??1?$_com_ptr_t_ssp@V?$_com_IIID_ssp@UIMediaEventEx@@$1?_GUID_56a868c0_0ad4_11ce_b03a_0020af0ba770@@3U__s_GUID@@A@@@@QAE@XZ 004d1e50 f i sp_charsetdetect.obj
 0001:000d0e50       ??1?$_com_ptr_t@V?$_com_IIID@UIShellLinkW@@$1?_GUID_000214f9_0000_0000_c000_000000000046@@3U__s_GUID@@A@@@@QAE@XZ 004d1e50 f i sp_charsetdetect.obj
 0001:000d0e50       ??1?$_com_ptr_t_ssp@V?$_com_IIID_ssp@UISpRecoContext@@$1?_GUID_f740a62f_7c15_489e_8234_940a33d9272d@@3U__s_GUID@@A@@@@QAE@XZ 004d1e50 f i sp_charsetdetect.obj
 0001:000d0e50       ??1?$_com_ptr_t_ssp@V?$_com_IIID_ssp@UIVirtualDesktopManagerInternal@@$1?_GUID_f31574d6_b682_4cdc_bd56_1827860abec6@@3U__s_GUID@@A@@@@QAE@XZ 004d1e50 f i sp_charsetdetect.obj
 0001:000d0e50       ??1?$_com_ptr_t_ssp@V?$_com_IIID_ssp@UINetworkListManager@@$1?_GUID_dcb00000_570f_4a9b_8d69_199fdba5723b@@3U__s_GUID@@A@@@@QAE@XZ 004d1e50 f i sp_charsetdetect.obj
 0001:000d0e50       ??1?$_com_ptr_t_ssp@V?$_com_IIID_ssp@UIUpdateSearcher@@$1?_GUID_8f45abf1_f9ae_4b95_a933_f0f66e5056ea@@3U__s_GUID@@A@@@@QAE@XZ 004d1e50 f i sp_charsetdetect.obj
 0001:000d0e50       ??1?$_com_ptr_t_ssp@V?$_com_IIID_ssp@UIUISettings3@@$1?_GUID_03021be4_5254_4781_8194_5168f7d06d7b@@3U__s_GUID@@A@@@@QAE@XZ 004d1e50 f i sp_charsetdetect.obj
 0001:000d0e50       ??1?$_com_ptr_t_ssp@V?$_com_IIID_ssp@UIVirtualDesktopManagerInternalEx@@$1?_GUID_b2f925b9_5a0f_4d2e_9f4d_2b1507593c10@@3U__s_GUID@@A@@@@QAE@XZ 004d1e50 f i sp_charsetdetect.obj
 0001:000d0e50       ??1?$_com_ptr_t_ssp@V?$_com_IIID_ssp@UIEventSystem@@$1?_GUID_4e14fb9f_2e22_11d1_9964_00c04fbbb345@@3U__s_GUID@@A@@@@QAE@XZ 004d1e50 f i sp_charsetdetect.obj
 0001:000d0e50       ??1?$_com_ptr_t_ssp@V?$_com_IIID_ssp@UIUpdateHistoryEntryCollection@@$1?_GUID_a7f04f3c_a290_435b_aadf_a116c3357a5c@@3U__s_GUID@@A@@@@QAE@XZ 004d1e50 f i sp_charsetdetect.obj
 0001:000d0e50       ??1?$_com_ptr_t_ssp@V?$_com_IIID_ssp@UIUIViewSettingsInterop@@$1?_GUID_3694dbf9_8f68_44be_8ff5_195c98ede8a6@@3U__s_GUID@@A@@@@QAE@XZ 004d1e50 f i sp_charsetdetect.obj
 0001:000d0e50       ??1?$_com_ptr_t_ssp@V?$_com_IIID_ssp@UIUIViewSettings@@$1?_GUID_c63657f6_8850_470d_88f8_455e16ea2c26@@3U__s_GUID@@A@@@@QAE@XZ 004d1e50 f i sp_charsetdetect.obj
 0001:000d0e50       ??1?$_com_ptr_t_ssp@V?$_com_IIID_ssp@UIObjectCollection@@$1?_GUID_5632b1a4_e38a_400a_928a_d4cd63230295@@3U__s_GUID@@A@@@@QAE@XZ 004d1e50 f i sp_charsetdetect.obj
 0001:000d0e50       ??1?$_com_ptr_t_ssp@V?$_com_IIID_ssp@UIFilterGraph2@@$1?_GUID_36b73882_c2c8_11cf_8b46_00805f6cef60@@3U__s_GUID@@A@@@@QAE@XZ 004d1e50 f i sp_charsetdetect.obj
 0001:000d0e50       ??1?$_com_ptr_t_ssp@V?$_com_IIID_ssp@UIMFGetService@@$1?_GUID_fa993888_4383_415a_a930_dd472a8cf6f7@@3U__s_GUID@@A@@@@QAE@XZ 004d1e50 f i sp_charsetdetect.obj
 0001:000d0e50       ??1?$_com_ptr_t_ssp@V?$_com_IIID_ssp@UIVirtualDesktopPinnedApps@@$1?_GUID_4ce81583_1e4c_4632_a621_07a53543148f@@3U__s_GUID@@A@@@@QAE@XZ 004d1e50 f i sp_charsetdetect.obj
 0001:000d0e50       ??1?$_com_ptr_t_ssp@V?$_com_IIID_ssp@UISpObjectToken@@$1?_GUID_14056589_e16c_11d2_bb90_00c04f8ee6c0@@3U__s_GUID@@A@@@@QAE@XZ 004d1e50 f i sp_charsetdetect.obj
 0001:000d0e50       ?_Release@?$_com_ptr_t@V?$_com_IIID@UIUnknown@@$1?_GUID_00000000_0000_0000_c000_000000000046@@3U__s_GUID@@A@@@@AAEXXZ 004d1e50 f i sp_charsetdetect.obj
 0001:000d0e50       ??1?$_com_ptr_t_ssp@V?$_com_IIID_ssp@UIEnumSpObjectTokens@@$1?_GUID_06b64f9e_7fda_11d2_b4f2_00c04f797396@@3U__s_GUID@@A@@@@QAE@XZ 004d1e50 f i sp_charsetdetect.obj
 0001:000d0e50       ??1?$_com_ptr_t_ssp@V?$_com_IIID_ssp@UILocation@@$1?_GUID_ab2ece69_56d9_4f28_b525_de1b0ee44237@@3U__s_GUID@@A@@@@QAE@XZ 004d1e50 f i sp_charsetdetect.obj
 0001:000d0e50       ??1?$_com_ptr_t_ssp@V?$_com_IIID_ssp@UIMediaControl@@$1?_GUID_56a868b1_0ad4_11ce_b03a_0020af0ba770@@3U__s_GUID@@A@@@@QAE@XZ 004d1e50 f i sp_charsetdetect.obj
 0001:000d0e50       ??1?$_com_ptr_t_ssp@V?$_com_IIID_ssp@UIDropTargetHelper@@$1?_GUID_4657278b_411b_11d2_839a_00c04fd918d0@@3U__s_GUID@@A@@@@QAE@XZ 004d1e50 f i sp_charsetdetect.obj
 0001:000d0e50       ??1?$_com_ptr_t_ssp@V?$_com_IIID_ssp@UIMultiLanguage2@@$1?_GUID_dccfc164_2b38_11d2_b7ec_00c04f8f5d9a@@3U__s_GUID@@A@@@@QAE@XZ 004d1e50 f i sp_charsetdetect.obj
 0001:000d0e50       ??1?$_com_ptr_t_ssp@V?$_com_IIID_ssp@UIFileSourceFilter@@$1?_GUID_56a868a6_0ad4_11ce_b03a_0020af0ba770@@3U__s_GUID@@A@@@@QAE@XZ 004d1e50 f i sp_charsetdetect.obj
 0001:000d0e50       ??1?$_com_ptr_t_ssp@V?$_com_IIID_ssp@UIEventSubscription@@$1?_GUID_4a6b0e15_2e38_11d1_9965_00c04fbbb345@@3U__s_GUID@@A@@@@QAE@XZ 004d1e50 f i sp_charsetdetect.obj
 0001:000d0e50       ??1?$_com_ptr_t_ssp@V?$_com_IIID_ssp@UISpRecognizer@@$1?_GUID_c2b5f241_daa0_4507_9e16_5a1eaa2b7a5c@@3U__s_GUID@@A@@@@QAE@XZ 004d1e50 f i sp_charsetdetect.obj
 0001:000d0e50       ??1?$_com_ptr_t_ssp@V?$_com_IIID_ssp@UIFileOpenDialog@@$1?_GUID_d57c7288_d4ad_4768_be02_9d969532d960@@3U__s_GUID@@A@@@@QAE@XZ 004d1e50 f i sp_charsetdetect.obj
 0001:000d0e50       ??1?$_com_ptr_t@V?$_com_IIID@UIConnectionPointContainer@@$1?_GUID_b196b284_bab4_101a_b69c_00aa00341d07@@3U__s_GUID@@A@@@@QAE@XZ 004d1e50 f i sp_charsetdetect.obj
 0001:000d0e50       ??1?$_com_ptr_t_ssp@V?$_com_IIID_ssp@UIPropertyStore@@$1?_GUID_886d8eeb_8cf2_4446_8d02_cdba1dbdcf99@@3U__s_GUID@@A@@@@QAE@XZ 004d1e50 f i sp_charsetdetect.obj
 0001:000d0e50       ??1?$_com_ptr_t_ssp@V?$_com_IIID_ssp@UIUpdateHistoryEntry@@$1?_GUID_be56a644_af0e_4e0e_a311_c1d8e695cbff@@3U__s_GUID@@A@@@@QAE@XZ 004d1e50 f i sp_charsetdetect.obj
 0001:000d0e50       ??1?$_com_ptr_t_ssp@V?$_com_IIID_ssp@UIVirtualDesktopNotificationService@@$1?_GUID_0cd45e71_d927_4f15_8b0a_8fef525337bf@@3U__s_GUID@@A@@@@QAE@XZ 004d1e50 f i sp_charsetdetect.obj
 0001:000d0e50       ??1?$_com_ptr_t_ssp@V?$_com_IIID_ssp@UIVideoWindow@@$1?_GUID_56a868b4_0ad4_11ce_b03a_0020af0ba770@@3U__s_GUID@@A@@@@QAE@XZ 004d1e50 f i sp_charsetdetect.obj
 0001:000d0e50       ??1?$_com_ptr_t_ssp@V?$_com_IIID_ssp@UISensor@@$1?_GUID_5fa08f80_2657_458e_af75_46f73fa6ac5c@@3U__s_GUID@@A@@@@QAE@XZ 004d1e50 f i sp_charsetdetect.obj
 0001:000d0e50       ??1?$_com_ptr_t_ssp@V?$_com_IIID_ssp@UIQuietHoursSettings@@$1?_GUID_6bff4732_81ec_4ffb_ae67_b6c1bc29631f@@3U__s_GUID@@A@@@@QAE@XZ 004d1e50 f i sp_charsetdetect.obj
 0001:000d0e50       ??1?$_com_ptr_t_ssp@V?$_com_IIID_ssp@UISpObjectTokenCategory@@$1?_GUID_2d3d3845_39af_4850_bbf9_40b49780011d@@3U__s_GUID@@A@@@@QAE@XZ 004d1e50 f i sp_charsetdetect.obj
 0001:000d0e50       ??1?$_com_ptr_t_ssp@V?$_com_IIID_ssp@UIBaseFilter@@$1?_GUID_56a86895_0ad4_11ce_b03a_0020af0ba770@@3U__s_GUID@@A@@@@QAE@XZ 004d1e50 f i sp_charsetdetect.obj
 0001:000d0e50       ??1?$_com_ptr_t_ssp@V?$_com_IIID_ssp@UIPortableDeviceValues@@$1?_GUID_6848f6f2_3155_4f86_b6f5_263eeeab3143@@3U__s_GUID@@A@@@@QAE@XZ 004d1e50 f i sp_charsetdetect.obj
 0001:000d0e50       ??1?$_com_ptr_t_ssp@V?$_com_IIID_ssp@UIMediaSeeking@@$1?_GUID_36b73880_c2c8_11cf_8b46_00805f6cef60@@3U__s_GUID@@A@@@@QAE@XZ 004d1e50 f i sp_charsetdetect.obj
 0001:000d0e50       ??1?$_com_ptr_t_ssp@V?$_com_IIID_ssp@UICustomDestinationList@@$1?_GUID_6332debf_87b5_4670_90c0_5e57b408a49e@@3U__s_GUID@@A@@@@QAE@XZ 004d1e50 f i sp_charsetdetect.obj
 0001:000d0e50       ??1?$_com_ptr_t_ssp@V?$_com_IIID_ssp@UIUpdateSession@@$1?_GUID_816858a4_260d_4260_933a_2585f1abc76b@@3U__s_GUID@@A@@@@QAE@XZ 004d1e50 f i sp_charsetdetect.obj
 0001:000d0e50       ??1?$_com_ptr_t_ssp@V?$_com_IIID_ssp@UISensorCollection@@$1?_GUID_23571e11_e545_4dd8_a337_b89bf44b10df@@3U__s_GUID@@A@@@@QAE@XZ 004d1e50 f i sp_charsetdetect.obj
 0001:000d0e50       ??1?$_com_ptr_t@V?$_com_IIID@UIUnknown@@$1?_GUID_00000000_0000_0000_c000_000000000046@@3U__s_GUID@@A@@@@QAE@XZ 004d1e50 f i sp_charsetdetect.obj
 0001:000d0e50       ??1?$_com_ptr_t_ssp@V?$_com_IIID_ssp@UIInspectable@@$1?_GUID_af86e2e0_b12d_4c6a_9c5a_d7aa65101e90@@3U__s_GUID@@A@@@@QAE@XZ 004d1e50 f i sp_charsetdetect.obj
 0001:000d0e60       ?Notify@SPCmdNotifier@@QAEKKPAPAXKPAVSPCmdListener@@@Z 004d1e60 f   sp_cmdlistener.obj
 0001:000d0eb0       ?NotifyOne@SPCmdNotifier@@QAE_NKPAPAXK@Z 004d1eb0 f   sp_cmdlistener.obj
 0001:000d0f00       ?RequestOne@SPCmdNotifier@@QAE_NAAVJWString@@KPAPAXK@Z 004d1f00 f   sp_cmdlistener.obj
 0001:000d1060       ?Add@SPCmdNotifier@@QAE_NPAVSPCmdListener@@_N1@Z 004d2060 f   sp_cmdlistener.obj
 0001:000d1210       ?Delete@SPCmdNotifier@@QAE_NPAVSPCmdListener@@_N@Z 004d2210 f   sp_cmdlistener.obj
 0001:000d13c0       ?Search@SPCmdNotifier@@QAEJPAVSPCmdListener@@@Z 004d23c0 f   sp_cmdlistener.obj
 0001:000d13f0       ?Release@SPCmdNotifier@@QAEXXZ 004d23f0 f   sp_cmdlistener.obj
 0001:000d1430       ?DeleteAll@SPCmdNotifier@@QAE_NXZ 004d2430 f   sp_cmdlistener.obj
 0001:000d1500       ?SPCNotify@SPCmdListener@@MAE_NKPAPAXK@Z 004d2500 f   sp_cmdlistener.obj
 0001:000d1510       ?SPCRequest@SPCmdListener@@MAE_NAAVJWString@@KPAPAXK@Z 004d2510 f   sp_cmdlistener.obj
 0001:000d1630       ?SPCDeleteFromNotify@SPCmdListener@@IAEX_N@Z 004d2630 f   sp_cmdlistener.obj
 0001:000d1660       ?SPCAddNotifier@SPCmdListener@@IAEXPAVSPCmdNotifier@@@Z 004d2660 f   sp_cmdlistener.obj
 0001:000d1770       ?SPCDeleteNotifier@SPCmdListener@@IAEXPAVSPCmdNotifier@@@Z 004d2770 f   sp_cmdlistener.obj
 0001:000d1810       ?IsTerminateCommand@SPCmdListener@@KA_NK@Z 004d2810 f   sp_cmdlistener.obj
 0001:000d1840       ?Set@SPColor@@QAEXHHH@Z    004d2840 f   sp_color.obj
 0001:000d1860       ?Set@SPColor@@QAEXPBG00@Z  004d2860 f   sp_color.obj
 0001:000d1910       ?Set@SPColor@@QAE_NPBG@Z   004d2910 f   sp_color.obj
 0001:000d1a80       ?Set@SPColor@@QAE_NPBQBGJ@Z 004d2a80 f   sp_color.obj
 0001:000d1ac0       ?Set@SPColor@@QAE_NPBG0@Z  004d2ac0 f   sp_color.obj
 0001:000d1af0       ?Set@SPColor@@QAE_NPBGH@Z  004d2af0 f   sp_color.obj
 0001:000d1ba0       ?Set@SPCommunicateData@@QAEXPAXPAVSPGhost@@PBG@Z 004d2ba0 f   sp_communicatedata.obj
 0001:000d1d90       ?Set@SPCommunicateData@@QAEXAAV?$JArray@PAX@@AAV?$JPtrArray@PAVSPGhost@@@@PBG@Z 004d2d90 f   sp_communicatedata.obj
 0001:000d1f40       ?Send@SPCommunicateData@@QAEXPAVSPGhost@@@Z 004d2f40 f   sp_communicatedata.obj
 0001:000d2110       ?GetSPCompatibleWord@@YAAAVSPCompatibleWord@@XZ 004d3110 f   sp_compatibleword.obj
 0001:000d21a0       ??0SPCompatibleWord@@AAE@XZ 004d31a0 f   sp_compatibleword.obj
 0001:000d21f0       ??_ESPCompatibleWord@@UAEPAXI@Z 004d31f0 f i sp_compatibleword.obj
 0001:000d21f0       ??_GSPCompatibleWord@@UAEPAXI@Z 004d31f0 f i sp_compatibleword.obj
 0001:000d2220       ??1SPCompatibleWord@@UAE@XZ 004d3220 f   sp_compatibleword.obj
 0001:000d2330       ?Load@SPCompatibleWord@@QAE_NPBG@Z 004d3330 f   sp_compatibleword.obj
 0001:000d2580       ??1SPCompatibleWordEntry@@QAE@XZ 004d3580 f i sp_compatibleword.obj
 0001:000d2620       ?Get@SPCompatibleWord@@QAEPBGPBG@Z 004d3620 f   sp_compatibleword.obj
 0001:000d26a0       ?FindEntry@SPCompatibleWord@@AAEPAVSPCompatibleWordEntry@@PBG@Z 004d36a0 f   sp_compatibleword.obj
 0001:000d26f0       ?Release@SPCookieClient@@QAEXXZ 004d36f0 f   sp_cookie.obj
 0001:000d2760       ?GetValue@SPCookieClient@@QAEPAGPAG@Z 004d3760 f   sp_cookie.obj
 0001:000d27b0       ?SetValue@SPCookieClient@@QAEHPAG0@Z 004d37b0 f   sp_cookie.obj
 0001:000d29d0       ?Release@SPCookie@@QAEXXZ  004d39d0 f   sp_cookie.obj
 0001:000d2a40       ??1SPCookieClient@@QAE@XZ  004d3a40 f i sp_cookie.obj
 0001:000d2ab0       ?GetClient@SPCookie@@QAEPAVSPCookieClient@@PAGABVJSockAddr@@@Z 004d3ab0 f   sp_cookie.obj
 0001:000d2b10       ?AddClient@SPCookie@@QAEPAVSPCookieClient@@PAGABVJSockAddr@@@Z 004d3b10 f   sp_cookie.obj
 0001:000d2ce0       ?Load@SPCookie@@QAEHPBG@Z  004d3ce0 f   sp_cookie.obj
 0001:000d3090       ?Save@SPCookie@@QAEHXZ     004d4090 f   sp_cookie.obj
 0001:000d3380       ??1SPCookieEntry@@QAE@XZ   004d4380 f i sp_cookie.obj
 0001:000d33d0       ?Register@SPControlAdjuster@@QAEAAUtagSPControlAdjusterData@@HI@Z 004d43d0 f   sp_ctrladjuster.obj
 0001:000d3550       ?UpdateHWND@SPControlAdjuster@@QAEXH@Z 004d4550 f   sp_ctrladjuster.obj
 0001:000d35a0       ?Release@SPControlAdjuster@@QAEXXZ 004d45a0 f   sp_ctrladjuster.obj
 0001:000d35d0       ?Init@SPControlAdjuster@@QAEXPAUHWND__@@@Z 004d45d0 f   sp_ctrladjuster.obj
 0001:000d3610       ?OnSize@SPControlAdjuster@@QAEXXZ 004d4610 f   sp_ctrladjuster.obj
 0001:000d36f0       ?Size@?$JArray@UtagSPControlAdjusterData@@@@QBEKXZ 004d46f0 f i sp_ctrladjuster.obj
 0001:000d3710       ?SetNumNoPurge@?$JArray@UtagSPControlAdjusterData@@@@QAEXK_N@Z 004d4710 f i sp_ctrladjuster.obj
 0001:000d3780       ?GetSPCursor@@YAAAVSPCursor@@XZ 004d4780 f   sp_cursor.obj
 0001:000d3810       ??0SPCursor@@AAE@XZ        004d4810 f   sp_cursor.obj
 0001:000d3880       ??_GSPCursor@@UAEPAXI@Z    004d4880 f i sp_cursor.obj
 0001:000d3880       ??_ESPCursor@@UAEPAXI@Z    004d4880 f i sp_cursor.obj
 0001:000d38b0       ??1SPCursor@@UAE@XZ        004d48b0 f   sp_cursor.obj
 0001:000d3910       ?SetCursor@SPCursor@@QAEXPAX@Z 004d4910 f   sp_cursor.obj
 0001:000d3950       ?SetWaitCursor@SPCursor@@QAEXPAX@Z 004d4950 f   sp_cursor.obj
 0001:000d3990       ?BeginWait@SPCursor@@QAEXXZ 004d4990 f   sp_cursor.obj
 0001:000d39d0       ?EndWait@SPCursor@@QAEXXZ  004d49d0 f   sp_cursor.obj
 0001:000d3a10       ??0SPWaitCursor@@QAE@XZ    004d4a10 f   sp_cursor.obj
 0001:000d3a30       ??1SPWaitCursor@@QAE@XZ    004d4a30 f   sp_cursor.obj
 0001:000d3a80       ?GetSPDataPathList@@YAAAVSPDataPathList@@XZ 004d4a80 f   sp_datapathlist.obj
 0001:000d3b10       ?GetSPDataPathTitle@@YAPAGW4SPDataPathListID@@@Z 004d4b10 f   sp_datapathlist.obj
 0001:000d3b30       ?GetSPDataPathListID@@YAPAGW4SPDataPathListID@@@Z 004d4b30 f   sp_datapathlist.obj
 0001:000d3b50       ?GetAbsolutePath@SPDataPathListData@@QAEXAAVJWString@@@Z 004d4b50 f   sp_datapathlist.obj
 0001:000d3b90       ?SetPath@SPDataPathListData@@QAEXPBG@Z 004d4b90 f   sp_datapathlist.obj
 0001:000d3c70       ?ProcessPath@SPDataPathListData@@SAXAAVJWString@@@Z 004d4c70 f   sp_datapathlist.obj
 0001:000d3de0       ?GetGhostListPath@SPDataPathListData@@AAEXAAVJWString@@@Z 004d4de0 f   sp_datapathlist.obj
 0001:000d3e20       ?OpenXML@SPDataPathListData@@AAE_NAAVXMLDocument@tinyxml2@@AAH@Z 004d4e20 f   sp_datapathlist.obj
 0001:000d4010       ?OpenXMLForSave@SPDataPathListData@@AAEXAAVXMLDocument@tinyxml2@@AAH@Z 004d5010 f   sp_datapathlist.obj
 0001:000d40e0       ?SetGroupFlag@SPDataPathListData@@QAEXK@Z 004d50e0 f   sp_datapathlist.obj
 0001:000d4240       ?SetGroupName@SPDataPathListData@@QAEXPBG@Z 004d5240 f   sp_datapathlist.obj
 0001:000d43e0       ?LoadXML@SPDataPathListData@@AAEXAAVJWString@@@Z 004d53e0 f   sp_datapathlist.obj
 0001:000d44f0       ?GetGroupNameFromPath@SPDataPathListData@@AAEXAAVJWString@@@Z 004d54f0 f   sp_datapathlist.obj
 0001:000d45b0       ?CheckPathExist@SPDataPathListData@@QAEXXZ 004d55b0 f   sp_datapathlist.obj
 0001:000d46b0       ??0SPDataPathList@@AAE@XZ  004d56b0 f   sp_datapathlist.obj
 0001:000d4740       ??_ESPDataPathList@@UAEPAXI@Z 004d5740 f i sp_datapathlist.obj
 0001:000d4740       ??_GSPDataPathList@@UAEPAXI@Z 004d5740 f i sp_datapathlist.obj
 0001:000d4770       ??_F?$JPtrArray@PAVSPDataPathListData@@@@QAEXXZ 004d5770 f i sp_datapathlist.obj
 0001:000d4780       ??1SPDataPathList@@UAE@XZ  004d5780 f   sp_datapathlist.obj
 0001:000d4800       ?GetGroupFlagFromText@SPDataPathList@@SAKPBD@Z 004d5800 f   sp_datapathlist.obj
 0001:000d4870       ?GetTextFromGroupFlag@SPDataPathList@@SAPBDK@Z 004d5870 f   sp_datapathlist.obj
 0001:000d4960       ?Release@SPDataPathList@@QAEXXZ 004d5960 f   sp_datapathlist.obj
 0001:000d4a00       ??4SPDataPathList@@QAEAAV0@AAV0@@Z 004d5a00 f   sp_datapathlist.obj
 0001:000d4c30       ?Set@SPDataPathList@@QAEXW4SPDataPathListID@@HW4SPDataPathListStatus@@PBG@Z 004d5c30 f   sp_datapathlist.obj
 0001:000d4ec0       ??1SPDataPathListData@@QAE@XZ 004d5ec0 f i sp_datapathlist.obj
 0001:000d4f10       ?Swap@SPDataPathList@@QAEHW4SPDataPathListID@@KK@Z 004d5f10 f   sp_datapathlist.obj
 0001:000d4fa0       ?GetToFolderList@SPDataPathList@@QAEHW4SPDataPathListID@@AAVSPFolderList@@@Z 004d5fa0 f   sp_datapathlist.obj
 0001:000d50e0       ?GetW@SPDataPathList@@QAE?AW4SPDataPathListStatus@@W4SPDataPathListID@@KAAVJWString@@@Z 004d60e0 f   sp_datapathlist.obj
 0001:000d5110       ?GetRealW@SPDataPathList@@QAE?AW4SPDataPathListStatus@@W4SPDataPathListID@@KAAVJWString@@@Z 004d6110 f   sp_datapathlist.obj
 0001:000d5140       ?GetStatus@SPDataPathList@@QAE?AW4SPDataPathListStatus@@W4SPDataPathListID@@K@Z 004d6140 f   sp_datapathlist.obj
 0001:000d5160       ?GetGroupName@SPDataPathList@@QBEPBGW4SPDataPathListID@@K@Z 004d6160 f   sp_datapathlist.obj
 0001:000d5180       ?SetGroupName@SPDataPathList@@QAEXW4SPDataPathListID@@KPBG@Z 004d6180 f   sp_datapathlist.obj
 0001:000d51b0       ?GetGroupFlag@SPDataPathList@@QBEKW4SPDataPathListID@@K@Z 004d61b0 f   sp_datapathlist.obj
 0001:000d51d0       ?SetGroupFlag@SPDataPathList@@QAEXW4SPDataPathListID@@KK@Z 004d61d0 f   sp_datapathlist.obj
 0001:000d5200       ?GetNum@SPDataPathList@@QAEKW4SPDataPathListID@@@Z 004d6200 f   sp_datapathlist.obj
 0001:000d5220       ?GetEnableNum@SPDataPathList@@QAEKW4SPDataPathListID@@@Z 004d6220 f   sp_datapathlist.obj
 0001:000d5260       ?GetFirstForInstallW@SPDataPathList@@QAEHW4SPDataPathListID@@AAVJWString@@PAV3@@Z 004d6260 f   sp_datapathlist.obj
 0001:000d53d0       ?ShowSelectDialogW@SPDataPathList@@QAEHW4SPDataPathListID@@AAVJWString@@PBGPAV3@@Z 004d63d0 f   sp_datapathlist.obj
 0001:000d5b80       ?ShowSelectDialogReset@SPDataPathList@@QAEXXZ 004d6b80 f   sp_datapathlist.obj
 0001:000d5ba0       ?GetTableW@SPDataPathList@@QAEPAPAGW4SPDataPathListID@@AAK@Z 004d6ba0 f   sp_datapathlist.obj
 0001:000d5cb0       ?Add@SPDataPathList@@QAEHW4SPDataPathListID@@PBG@Z 004d6cb0 f   sp_datapathlist.obj
 0001:000d5cd0       ?Delete@SPDataPathList@@QAEXW4SPDataPathListID@@K@Z 004d6cd0 f   sp_datapathlist.obj
 0001:000d5db0       ?Clear@SPDataPathList@@QAEXW4SPDataPathListID@@@Z 004d6db0 f   sp_datapathlist.obj
 0001:000d5e60       ?FindW@SPDataPathList@@QAEHW4SPDataPathListID@@PBG@Z 004d6e60 f   sp_datapathlist.obj
 0001:000d5f40       ?FindExtraPath@SPDataPathList@@AAEHW4SPDataPathListID@@PAVJWString@@AAV?$JArray@K@@@Z 004d6f40 f   sp_datapathlist.obj
 0001:000d6210       ?CheckPathExist@SPDataPathList@@QAEXW4SPDataPathListID@@@Z 004d7210 f   sp_datapathlist.obj
 0001:000d6250       ?Load@SPDataPathList@@QAEXAAVSPSettings@@@Z 004d7250 f   sp_datapathlist.obj
 0001:000d6580       ?Save@SPDataPathList@@QAEXAAVSPSettings@@@Z 004d7580 f   sp_datapathlist.obj
 0001:000d67b0       ?CheckPathIsOKW@SPDataPathList@@QAEHPBG@Z 004d77b0 f   sp_datapathlist.obj
 0001:000d68e0       ??0?$JPtrArray@PAVSPDataPathListData@@@@QAE@J@Z 004d78e0 f i sp_datapathlist.obj
 0001:000d6940       ?SetNum@?$JArray@J@@QAEXK@Z 004d7940 f i sp_datapathlist.obj
 0001:000d6940       ?SetNum@?$JArray@K@@QAEXK@Z 004d7940 f i sp_datapathlist.obj
 0001:000d6940       ?SetNum@?$JArray@PAVSPProp@@@@QAEXK@Z 004d7940 f i sp_datapathlist.obj
 0001:000d6940       ?SetNum@?$JArray@PAX@@QAEXK@Z 004d7940 f i sp_datapathlist.obj
 0001:000d6940       ?SetNum@?$JArray@H@@QAEXK@Z 004d7940 f i sp_datapathlist.obj
 0001:000d6990       __purecall                 004d7990 f   sp_debugger.obj
 0001:000d69a0       ?GetEip@@YAKXZ             004d79a0 f   sp_debugger.obj
 0001:000d69b0       ?trace_and_exit@@YAXXZ     004d79b0 f   sp_debugger.obj
 0001:000d6a50       ?sig_trace_and_exit@@YAXH@Z 004d7a50 f   sp_debugger.obj
 0001:000d6ac0       ?SPSEDefaultFilter@@YGJPAU_EXCEPTION_POINTERS@@@Z 004d7ac0 f   sp_debugger.obj
 0001:000d7300       ?WriteEnvironment@@YAHPAU_iobuf@@@Z 004d8300 f   sp_debugger.obj
 0001:000d7cb0       ?SPGetExceptionReasonTextA@@YAPADK@Z 004d8cb0 f   sp_debugger.obj
 0001:000d7d00       ?SPGetExceptionReasonTextW@@YAPAGK@Z 004d8d00 f   sp_debugger.obj
 0001:000d8470       ?SPCalcCodeStartPos@@YAPAXPAXAAHPAPAXPAKK@Z 004d9470 f   sp_debugger.obj
 0001:000d8960       ??0SPDecoder@@QAE@XZ       004d9960 f   sp_decode.obj
 0001:000d8a20       ??1SPDecoder@@QAE@XZ       004d9a20 f   sp_decode.obj
 0001:000d8ab0       ?MakeTempName@SPDecoder@@AAEXG@Z 004d9ab0 f   sp_decode.obj
 0001:000d8b30       ?SearchFileName@SPDecoder@@QAE?AW4SPDecoderType@@PBGGPAVJWString@@@Z 004d9b30 f   sp_decode.obj
 0001:000d8d40       ?DecodeWithSearch@SPDecoder@@QAEPBGPBGGHPAVJWString@@@Z 004d9d40 f   sp_decode.obj
 0001:000d8e50       ?Decode@SPDecoder@@QAEPBGPBGH@Z 004d9e50 f   sp_decode.obj
 0001:000d8f70       ?Decode_D@SPDecoder@@AAEHPBG0HH@Z 004d9f70 f   sp_decode.obj
 0001:000d9230       ?Decode_F@SPDecoder@@AAEHPBG0H@Z 004da230 f   sp_decode.obj
 0001:000d9600       ?Decode_G@SPDecoder@@AAEHPBG0H@Z 004da600 f   sp_decode.obj
 0001:000d9a70       ?GetSPDefaultCharset@@YAPAVSPDefaultCharset@@XZ 004daa70 f   sp_defaultcharset.obj
 0001:000d9ae0       ??0SPDefaultCharset@@AAE@XZ 004daae0 f   sp_defaultcharset.obj
 0001:000d9b10       ??_ESPDefaultCharset@@UAEPAXI@Z 004dab10 f i sp_defaultcharset.obj
 0001:000d9b10       ??_GSPDefaultCharset@@UAEPAXI@Z 004dab10 f i sp_defaultcharset.obj
 0001:000d9b40       ??1SPDefaultCharset@@UAE@XZ 004dab40 f i sp_defaultcharset.obj
 0001:000d9b50       ?Init@SPDefaultCharset@@QAEXPAVSPSettings@@@Z 004dab50 f   sp_defaultcharset.obj
 0001:000d9c40       ?Set@SPDefaultCharset@@QAEXPBD0@Z 004dac40 f   sp_defaultcharset.obj
 0001:000d9d50       ?Get@SPDefaultCharset@@QAEPBDPBD@Z 004dad50 f   sp_defaultcharset.obj
 0001:000d9d70       ?GetDefine@SPDefaultCharset@@QAEH_N@Z 004dad70 f   sp_defaultcharset.obj
 0001:000d9d90       ?GetReadme@SPDefaultCharset@@QAEH_N@Z 004dad90 f   sp_defaultcharset.obj
 0001:000d9db0       ?GetScript@SPDefaultCharset@@QAEH_N@Z 004dadb0 f   sp_defaultcharset.obj
 0001:000d9dd0       ?GetFile@SPDefaultCharset@@QAEH_N@Z 004dadd0 f   sp_defaultcharset.obj
 0001:000d9df0       ?Load@SPDeleteTxt@@QAEHPBG@Z 004dadf0 f   sp_deletetxt.obj
 0001:000d9fc0       ?Find@SPDeleteTxt@@QAEHPBG@Z 004dafc0 f   sp_deletetxt.obj
 0001:000da0b0       ?Execute@SPDeleteTxt@@QAEHPBG_NPAVSPCmdNotifier@@@Z 004db0b0 f   sp_deletetxt.obj
 0001:000da340       ?ProcessPath@SPDeleteTxt@@CAHAAVJWString@@@Z 004db340 f   sp_deletetxt.obj
 0001:000da3b0       ?Copy@SPDIBStretchCopy32@@SAXPAVJSurface@@0IIII_N1@Z 004db3b0 f   sp_dibstretchcopy.obj
 0001:000da580       ?SPDictationEnumAdapterFunc@@YA_NPBGPAX@Z 004db580 f   sp_dicspimpl.obj
 0001:000da650       ??0SPDictationImpl@@QAE@PAUHWND__@@@Z 004db650 f   sp_dicspimpl.obj
 0001:000dac70       ??1SPDictationImpl@@QAE@XZ 004dbc70 f   sp_dicspimpl.obj
 0001:000dad60       ?ReloadDictationConfig@SPDictationImpl@@QAEXXZ 004dbd60 f   sp_dicspimpl.obj
 0001:000dadc0       ?IsActive@SPDictationImpl@@QAE_NXZ 004dbdc0 f   sp_dicspimpl.obj
 0001:000dadd0       ?SetListenModeControlEnable@SPDictationImpl@@QAEX_N@Z 004dbdd0 f   sp_dicspimpl.obj
 0001:000dae70       ?PauseResume@SPDictationImpl@@QAEX_N@Z 004dbe70 f   sp_dicspimpl.obj
 0001:000daf20       ?SelectGhost@SPDictationImpl@@QAEXPAVSPGhost@@JPBG@Z 004dbf20 f   sp_dicspimpl.obj
 0001:000db040       ?VoiceRecEvent@SPDictationImpl@@QAE_NPBG@Z 004dc040 f   sp_dicspimpl.obj
 0001:000db150       ?RecoEvent@SPDictationImpl@@QAEJIJ@Z 004dc150 f   sp_dicspimpl.obj
 0001:000db6c0       ?UpdateStateHelper@SPDictationImpl@@QAE_NJ@Z 004dc6c0 f   sp_dicspimpl.obj
 0001:000db8e0       ?UpdateState@SPDictationImpl@@QAEXIJ@Z 004dc8e0 f   sp_dicspimpl.obj
 0001:000db950       ?SetListenMode@SPDictationImpl@@QAEXJ@Z 004dc950 f   sp_dicspimpl.obj
 0001:000dbe00       ?UpdateResultModeList@SPDictationImpl@@QAEXXZ 004dce00 f   sp_dicspimpl.obj
 0001:000dc4c0       ?GetSPSpeechImpl@@YAAAVSPSpeechImpl@@XZ 004dd4c0 f   sp_dicspimpl.obj
 0001:000dc550       ??0SPSpeechImpl@@AAE@XZ    004dd550 f   sp_dicspimpl.obj
 0001:000dc670       ??_GSPSpeechImpl@@UAEPAXI@Z 004dd670 f i sp_dicspimpl.obj
 0001:000dc670       ??_ESPSpeechImpl@@UAEPAXI@Z 004dd670 f i sp_dicspimpl.obj
 0001:000dc6a0       ??1SPSpeechImpl@@UAE@XZ    004dd6a0 f   sp_dicspimpl.obj
 0001:000dc7f0       ?Start@SPSpeechImpl@@UAEHJ@Z 004dd7f0 f   sp_dicspimpl.obj
 0001:000dc810       ?Exit@SPSpeechImpl@@UAEHXZ 004dd810 f   sp_dicspimpl.obj
 0001:000dc860       ?InitInstance@SPSpeechImpl@@UAEHXZ 004dd860 f   sp_dicspimpl.obj
 0001:000dc8f0       ?LoadConfig@SPSpeechImpl@@AAEXXZ 004dd8f0 f   sp_dicspimpl.obj
 0001:000dca10       ?ExitInstance@SPSpeechImpl@@UAEXH@Z 004dda10 f   sp_dicspimpl.obj
 0001:000dca80       ?ClearQueue@SPSpeechImpl@@QAEXXZ 004dda80 f   sp_dicspimpl.obj
 0001:000dcb70       ?SetEnable@SPSpeechImpl@@QAEX_N@Z 004ddb70 f   sp_dicspimpl.obj
 0001:000dcba0       ?Loop@SPSpeechImpl@@UAEHXZ 004ddba0 f   sp_dicspimpl.obj
 0001:000dcc70       ?Add@SPSpeechImpl@@QAEXW4SPSpeechImplType@@KHPBG_N@Z 004ddc70 f   sp_dicspimpl.obj
 0001:000dce00       ?ProcessEvent@SPSpeechImpl@@QAE?AVSPSpeechImplProcessResult@@_N@Z 004dde00 f   sp_dicspimpl.obj
 0001:000dd7a0       ??1?$SPCacheObj@VSPSpeechImplData@@VJDummyLockSection@@VJDummyLock@@@@QAE@XZ 004de7a0 f i sp_dicspimpl.obj
 0001:000dd870       ??_ESPSpeechImplData@@QAEPAXI@Z 004de870 f i sp_dicspimpl.obj
 0001:000dd8d0       ??0SPSpeechImplData@@QAE@XZ 004de8d0 f i sp_dicspimpl.obj
 0001:000dd970       ??1SPDictationEnumAdapter@@QAE@XZ 004de970 f i sp_dicspimpl.obj
 0001:000dd970       ??1SPSpeechImplData@@QAE@XZ 004de970 f i sp_dicspimpl.obj
 0001:000dd980       ??_ESPSpeechImpl@@W7AEPAXI@Z 004de980 f i sp_dicspimpl.obj
 0001:000dd990       ?GetDicSpManager@@YAAAVSPDicSpManager@@XZ 004de990 f   sp_dicspmanager.obj
 0001:000dda50       ??_GSPDicSpManager@@UAEPAXI@Z 004dea50 f i sp_dicspmanager.obj
 0001:000dda50       ??_ESPDicSpManager@@UAEPAXI@Z 004dea50 f i sp_dicspmanager.obj
 0001:000dda80       ??1SPDicSpManager@@UAE@XZ  004dea80 f i sp_dicspmanager.obj
 0001:000ddb00       ?InitRecog@SPDicSpManager@@QAEXXZ 004deb00 f   sp_dicspmanager.obj
 0001:000ddb80       ?InitVoice@SPDicSpManager@@QAEXXZ 004deb80 f   sp_dicspmanager.obj
 0001:000ddc00       ?ReleaseRecog@SPDicSpManager@@QAEXXZ 004dec00 f   sp_dicspmanager.obj
 0001:000ddc30       ?ReleaseVoice@SPDicSpManager@@QAEXXZ 004dec30 f   sp_dicspmanager.obj
 0001:000ddc70       ?GetRecognizer@SPDicSpManager@@QAEPAUISpRecognizer@@XZ 004dec70 f   sp_dicspmanager.obj
 0001:000ddc80       ?GetVoice@SPDicSpManager@@QAEPAUISpVoice@@K@Z 004dec80 f   sp_dicspmanager.obj
 0001:000ddcb0       ?IsRecogActive@SPDicSpManager@@QAE_NXZ 004decb0 f   sp_dicspmanager.obj
 0001:000ddcc0       ?IsVoiceActive@SPDicSpManager@@QAE_NXZ 004decc0 f   sp_dicspmanager.obj
 0001:000ddcd0       ?Pause@SPDicSpManager@@QAEXXZ 004decd0 f   sp_dicspmanager.obj
 0001:000ddd00       ?Resume@SPDicSpManager@@QAEXXZ 004ded00 f   sp_dicspmanager.obj
 0001:000ddd30       ?GetTokenList@SPDicSpManager@@QAEXW4tagSPDicSpType@@AAVSPStaticStringArrayW@@1@Z 004ded30 f   sp_dicspmanager.obj
 0001:000de0e0       ?GetToken@SPDicSpManager@@AAE_NAAV?$_com_ptr_t_ssp@V?$_com_IIID_ssp@UISpObjectToken@@$1?_GUID_14056589_e16c_11d2_bb90_00c04f8ee6c0@@3U__s_GUID@@A@@@@W4tagSPDicSpType@@PBG_N@Z 004df0e0 f   sp_dicspmanager.obj
 0001:000de3b0       ?SetToken@SPDicSpManager@@QAEXW4tagSPDicSpType@@PBD@Z 004df3b0 f   sp_dicspmanager.obj
 0001:000de730       ?TokenIsUISupported@SPDicSpManager@@QAE_NW4tagSPDicSpType@@PBG1@Z 004df730 f   sp_dicspmanager.obj
 0001:000de820       ?TokenDisplayUI@SPDicSpManager@@QAEXW4tagSPDicSpType@@PBG1PAUHWND__@@@Z 004df820 f   sp_dicspmanager.obj
 0001:000de8f0       ?GetInterfacePointer@SPDicSpManager@@AAEPAUIUnknown@@W4tagSPDicSpType@@@Z 004df8f0 f   sp_dicspmanager.obj
 0001:000de910       ??0?$_com_ptr_t_ssp@V?$_com_IIID_ssp@UISpVoice@@$1?_GUID_6c44df74_72b9_4992_a1ec_ef996e0422d4@@3U__s_GUID@@A@@@@QAE@XZ 004df910 f i sp_dicspmanager.obj
 0001:000de920       ?GetSPDigest@@YAAAVSPDigest@@W4SPDigest_Type@@@Z 004df920 f   sp_digest.obj
 0001:000de9d0       ??0SPDigestImpl@@QAE@W4SPDigest_Type@@@Z 004df9d0 f i sp_digest.obj
 0001:000dea20       ?Update@SPDigestImpl@@UAEXPBD@Z 004dfa20 f i sp_digest.obj
 0001:000dea50       ?Update@SPDigestImpl@@UAEXPBXK@Z 004dfa50 f i sp_digest.obj
 0001:000deab0       ?GetDigest@SPDigestImpl@@UAEPBEXZ 004dfab0 f i sp_digest.obj
 0001:000dec90       ?GetDigestStr@SPDigestImpl@@UAEPBDXZ 004dfc90 f i sp_digest.obj
 0001:000deca0       ?GetDigestBase64Str@SPDigestImpl@@UAEPBDXZ 004dfca0 f i sp_digest.obj
 0001:000decb0       ?GetDigestLength@SPDigestImpl@@UAE?BKXZ 004dfcb0 f i sp_digest.obj
 0001:000decc0       ??_GSPDigestImpl@@UAEPAXI@Z 004dfcc0 f i sp_digest.obj
 0001:000decc0       ??_ESPDigestImpl@@UAEPAXI@Z 004dfcc0 f i sp_digest.obj
 0001:000decf0       ??1SPDigestImpl@@UAE@XZ    004dfcf0 f i sp_digest.obj
 0001:000ded30       ??_GSPDigest@@UAEPAXI@Z    004dfd30 f i sp_digest.obj
 0001:000ded30       ??_ESPDigest@@UAEPAXI@Z    004dfd30 f i sp_digest.obj
 0001:000ded80       ?GetStrDigest@SPDigest@@SAXW4SPDigest_Type@@AAVJString@@PBDI@Z 004dfd80 f   sp_digest.obj
 0001:000dedc0       ?GetStrDigest@SPDigest@@SAXW4SPDigest_Type@@PADPBDI@Z 004dfdc0 f   sp_digest.obj
 0001:000dee10       ?GetBase64StrDigest@SPDigest@@SAXW4SPDigest_Type@@PADPBDI@Z 004dfe10 f   sp_digest.obj
 0001:000dee60       ?Get0ByteDigestStr@SPDigest@@SAPBDW4SPDigest_Type@@@Z 004dfe60 f   sp_digest.obj
 0001:000def60       ?GetFileDigestInternal@SPDigest@@CA_NW4SPDigest_Type@@PADPBGPAK@Z 004dff60 f   sp_digest.obj
 0001:000df0c0       ?GetFileDigest@SPDigest@@SA_NW4SPDigest_Type@@PADPBGPAK@Z 004e00c0 f   sp_digest.obj
 0001:000df0e0       ?GetHMAC@SPDigest@@SAXPADPBD11@Z 004e00e0 f   sp_digest.obj
 0001:000df1c0       ?Create@SPDlgTemplate@@QAEXAAV?$JArray@G@@@Z 004e01c0 f   sp_dlgtemplate.obj
 0001:000df390       ?Read@SPDlgTemplate@@QAEXPAXK@Z 004e0390 f   sp_dlgtemplate.obj
 0001:000df3e0       ?ReadDialog@SPDlgTemplate@@QAEXI@Z 004e03e0 f   sp_dlgtemplate.obj
 0001:000df420       ?ReadTmpl@SPDlgTemplate@@AAEXPBGK@Z 004e0420 f   sp_dlgtemplate.obj
 0001:000df8e0       ?ReadTmplEx@SPDlgTemplate@@AAEXPBGK@Z 004e08e0 f   sp_dlgtemplate.obj
 0001:000dfd20       ?Clear@SPDlgTemplate@@QAEXXZ 004e0d20 f   sp_dlgtemplate.obj
 0001:000dff30       ??1SPDlgTemplateItem@@QAE@XZ 004e0f30 f i sp_dlgtemplate.obj
 0001:000dffb0       ?Add@SPDlgTemplate@@QAEPAVSPDlgTemplateItem@@XZ 004e0fb0 f   sp_dlgtemplate.obj
 0001:000e0160       ?ConvertToChild@SPDlgTemplate@@QAEXXZ 004e1160 f   sp_dlgtemplate.obj
 0001:000e0180       ?ConvertToPopup@SPDlgTemplate@@QAEXXZ 004e1180 f   sp_dlgtemplate.obj
 0001:000e01a0       ?ConvertComboBox@SPDlgTemplate@@QAEXXZ 004e11a0 f   sp_dlgtemplate.obj
 0001:000e0210       ?ConvertRadioButton@SPDlgTemplate@@QAEXXZ 004e1210 f   sp_dlgtemplate.obj
 0001:000e02c0       ?ConvertCheckBoxTo3State@SPDlgTemplate@@QAEXK@Z 004e12c0 f   sp_dlgtemplate.obj
 0001:000e0350       ?FindID@SPDlgTemplate@@QAEJK@Z 004e1350 f   sp_dlgtemplate.obj
 0001:000e0390       ?GetID@SPDlgTemplate@@QAEPBVSPDlgTemplateItem@@K@Z 004e1390 f   sp_dlgtemplate.obj
 0001:000e03c0       ?GetIDText@SPDlgTemplate@@QAEPBGK@Z 004e13c0 f   sp_dlgtemplate.obj
 0001:000e03e0       ?SetShellFontReal@SPDlgTemplate@@AAEXXZ 004e13e0 f   sp_dlgtemplate.obj
 0001:000e0500       ?SetItemText@SPDlgTemplate@@QAE_NKPBG@Z 004e1500 f   sp_dlgtemplate.obj
 0001:000e0550       ?SPDLT_ClassTextToID@@YAGPBG@Z 004e1550 f   sp_dlgtemplate.obj
 0001:000e05f0       ?WriteToArray@SPDlgTemplate@@AAEXAAV?$JArray@G@@@Z 004e15f0 f   sp_dlgtemplate.obj
 0001:000e0a50       ?ReadTmpl@SPDlgTemplateItem@@AAEPBGPBGK@Z 004e1a50 f   sp_dlgtemplate.obj
 0001:000e0d40       ?ReadTmplEx@SPDlgTemplateItem@@AAEPBGPBGK@Z 004e1d40 f   sp_dlgtemplate.obj
 0001:000e1020       ?WriteToArray@SPDlgTemplateItem@@AAEXAAV?$JArray@G@@@Z 004e2020 f   sp_dlgtemplate.obj
 0001:000e1370       ?Clear@SPDlgTemplateItem@@QAEXXZ 004e2370 f   sp_dlgtemplate.obj
 0001:000e1490       ?SetResourceID@SPDlgTemplateItem@@QAEXG@Z 004e2490 f   sp_dlgtemplate.obj
 0001:000e14d0       ?Add@?$JArray@G@@QAEXPBGJ@Z 004e24d0 f i sp_dlgtemplate.obj
 0001:000e1610       ??0SPEnumString@@QAE@KPAPAG@Z 004e2610 f   sp_enumstring.obj
 0001:000e16e0       ??_GSPEnumString@@UAEPAXI@Z 004e26e0 f i sp_enumstring.obj
 0001:000e16e0       ??_ESPEnumString@@UAEPAXI@Z 004e26e0 f i sp_enumstring.obj
 0001:000e1710       ??1SPEnumString@@UAE@XZ    004e2710 f   sp_enumstring.obj
 0001:000e17e0       ?Next@SPEnumString@@UAGJKPAPAGPAK@Z 004e27e0 f   sp_enumstring.obj
 0001:000e1900       ?Skip@SPEnumString@@UAGJK@Z 004e2900 f   sp_enumstring.obj
 0001:000e1940       ?Reset@SPEnumString@@UAGJXZ 004e2940 f   sp_enumstring.obj
 0001:000e1960       ?Clone@SPEnumString@@UAGJPAPAUIEnumString@@@Z 004e2960 f   sp_enumstring.obj
 0001:000e1a10       ??1?$SPComObjectBase@UIEnumString@@@@UAE@XZ 004e2a10 f i sp_enumstring.obj
 0001:000e1a30       ?QueryInterface@?$SPComObjectBase@UIEnumString@@@@UAGJABU_GUID@@PAPAX@Z 004e2a30 f i sp_enumstring.obj
 0001:000e1af0       ??_G?$SPComObjectBase@UIEnumString@@@@UAEPAXI@Z 004e2af0 f i sp_enumstring.obj
 0001:000e1af0       ??_E?$SPComObjectBase@UIEnumString@@@@UAEPAXI@Z 004e2af0 f i sp_enumstring.obj
 0001:000e1b20       ?Release@SPEventObject@@QAEXXZ 004e2b20 f   sp_eventobj.obj
 0001:000e1b40       ?Create@SPEventObject@@QAE_N_N0@Z 004e2b40 f   sp_eventobj.obj
 0001:000e1bb0       ?Wait@SPEventObject@@QAE_NJ@Z 004e2bb0 f   sp_eventobj.obj
 0001:000e1c00       ?WaitPump@SPEventObject@@QAE_NJ@Z 004e2c00 f   sp_eventobj.obj
 0001:000e1c50       ?Pulse@SPEventObject@@QAEXXZ 004e2c50 f   sp_eventobj.obj
 0001:000e1c60       ?Activate@SPEventObject@@QAEXXZ 004e2c60 f   sp_eventobj.obj
 0001:000e1c70       ?DeActivate@SPEventObject@@QAEXXZ 004e2c70 f   sp_eventobj.obj
 0001:000e1c80       ?SetThru@SPEventObject@@QAEX_N@Z 004e2c80 f   sp_eventobj.obj
 0001:000e1ce0       ?Init@SPFileDialog@@AAEXXZ 004e2ce0 f   sp_filedialog.obj
 0001:000e1d30       ??0SPFileDialog@@QAE@XZ    004e2d30 f   sp_filedialog.obj
 0001:000e1e10       ??1SPFileDialog@@QAE@XZ    004e2e10 f   sp_filedialog.obj
 0001:000e1e30       ?SetOpenFile@SPFileDialog@@QAEXPBG00_N@Z 004e2e30 f   sp_filedialog.obj
 0001:000e1ed0       ?SetSaveFile@SPFileDialog@@QAEXPBG0000_N@Z 004e2ed0 f   sp_filedialog.obj
 0001:000e1f80       ?DoModal@SPFileDialog@@QAEHPAUHWND__@@@Z 004e2f80 f   sp_filedialog.obj
 0001:000e1fc0       ?Get@SPFileTimeOperation@@QAEHPBG@Z 004e2fc0 f   sp_filetime.obj
 0001:000e2030       ?Set@SPFileTimeOperation@@QAEHPBGI@Z 004e3030 f   sp_filetime.obj
 0001:000e2110       ??0SPFindFile@@QAE@XZ      004e3110 f   sp_findfile.obj
 0001:000e21e0       ?Close@SPFindFile@@QAEXXZ  004e31e0 f   sp_findfile.obj
 0001:000e2210       ?First@SPFindFile@@QAE_NPBD@Z 004e3210 f   sp_findfile.obj
 0001:000e2500       ??_ESPFindFileHelper@@UAEPAXI@Z 004e3500 f i sp_findfile.obj
 0001:000e2500       ??_GSPFindFileHelper@@UAEPAXI@Z 004e3500 f i sp_findfile.obj
 0001:000e2530       ??1SPFindFileHelper@@UAE@XZ 004e3530 f i sp_findfile.obj
 0001:000e2540       ?Next@SPFindFile@@QAE_NXZ  004e3540 f   sp_findfile.obj
 0001:000e2600       ??0SPFindFileW@@QAE@XZ     004e3600 f   sp_findfile.obj
 0001:000e26e0       ?Close@SPFindFileW@@QAEXXZ 004e36e0 f   sp_findfile.obj
 0001:000e2730       ??1?$CRegexpT@G@@QAE@XZ    004e3730 f i sp_findfile.obj
 0001:000e2890       ?First@SPFindFileW@@QAE_NPBG0@Z 004e3890 f   sp_findfile.obj
 0001:000e2d10       ??1?$CBufferT@H@@UAE@XZ    004e3d10 f i sp_findfile.obj
 0001:000e2d10       ??1?$MatchResultT@$0A@@@QAE@XZ 004e3d10 f i sp_findfile.obj
 0001:000e2d10       ??1?$CSortedBufferT@H@@UAE@XZ 004e3d10 f i sp_findfile.obj
 0001:000e2d40       ?Next@SPFindFileW@@QAE_NXZ 004e3d40 f   sp_findfile.obj
 0001:000e2e30       ?NextInternal@SPFindFileW@@AAE_NXZ 004e3e30 f   sp_findfile.obj
 0001:000e2ee0       ?IsDir@SPFindFileW@@QAE_NXZ 004e3ee0 f   sp_findfile.obj
 0001:000e2ef0       ?FullPath@SPFindFileW@@QAEXAAVJWString@@@Z 004e3ef0 f   sp_findfile.obj
 0001:000e2fc0       ??1?$CBufferT@PAVElxInterface@@@@UAE@XZ 004e3fc0 f i sp_findfile.obj
 0001:000e2ff0       ??1?$CBufferT@PAV?$CListElxT@$0A@@@@@UAE@XZ 004e3ff0 f i sp_findfile.obj
 0001:000e3020       ??1?$CBufferT@PAV?$CDelegateElxT@G@@@@UAE@XZ 004e4020 f i sp_findfile.obj
 0001:000e3050       ??1?$CBufferT@PAV?$CBackrefElxT@G@@@@UAE@XZ 004e4050 f i sp_findfile.obj
 0001:000e3080       ??1?$CBufferT@PAV?$CConditionElxT@G@@@@UAE@XZ 004e4080 f i sp_findfile.obj
 0001:000e30b0       ??1?$CBufferRefT@G@@UAE@XZ 004e40b0 f i sp_findfile.obj
 0001:000e30c0       ??1?$CBuilderT@G@@QAE@XZ   004e40c0 f i sp_findfile.obj
 0001:000e3220       ?Match@?$CRegexpT@G@@QBE?AV?$MatchResultT@$0A@@@PBGHPAVCContext@@@Z 004e4220 f i sp_findfile.obj
 0001:000e3290       ??_G?$CBufferRefT@H@@UAEPAXI@Z 004e4290 f i sp_findfile.obj
 0001:000e3290       ??_E?$CBufferRefT@H@@UAEPAXI@Z 004e4290 f i sp_findfile.obj
 0001:000e32c0       ??_E?$CBufferT@H@@UAEPAXI@Z 004e42c0 f i sp_findfile.obj
 0001:000e32c0       ??_E?$CSortedBufferT@H@@UAEPAXI@Z 004e42c0 f i sp_findfile.obj
 0001:000e32c0       ??_G?$CBufferT@H@@UAEPAXI@Z 004e42c0 f i sp_findfile.obj
 0001:000e32c0       ??_G?$CSortedBufferT@H@@UAEPAXI@Z 004e42c0 f i sp_findfile.obj
 0001:000e32f0       ??_G?$CBufferRefT@PAVElxInterface@@@@UAEPAXI@Z 004e42f0 f i sp_findfile.obj
 0001:000e32f0       ??_E?$CBufferRefT@PAVElxInterface@@@@UAEPAXI@Z 004e42f0 f i sp_findfile.obj
 0001:000e3320       ??_G?$CBufferT@PAVElxInterface@@@@UAEPAXI@Z 004e4320 f i sp_findfile.obj
 0001:000e3320       ??_E?$CBufferT@PAVElxInterface@@@@UAEPAXI@Z 004e4320 f i sp_findfile.obj
 0001:000e3350       ??_G?$CBufferRefT@PAV?$CListElxT@$0A@@@@@UAEPAXI@Z 004e4350 f i sp_findfile.obj
 0001:000e3350       ??_E?$CBufferRefT@PAV?$CListElxT@$0A@@@@@UAEPAXI@Z 004e4350 f i sp_findfile.obj
 0001:000e3380       ??_G?$CBufferT@PAV?$CListElxT@$0A@@@@@UAEPAXI@Z 004e4380 f i sp_findfile.obj
 0001:000e3380       ??_E?$CBufferT@PAV?$CListElxT@$0A@@@@@UAEPAXI@Z 004e4380 f i sp_findfile.obj
 0001:000e33b0       ??_E?$CBufferRefT@PAV?$CDelegateElxT@G@@@@UAEPAXI@Z 004e43b0 f i sp_findfile.obj
 0001:000e33b0       ??_G?$CBufferRefT@PAV?$CDelegateElxT@G@@@@UAEPAXI@Z 004e43b0 f i sp_findfile.obj
 0001:000e33e0       ??_G?$CBufferT@PAV?$CDelegateElxT@G@@@@UAEPAXI@Z 004e43e0 f i sp_findfile.obj
 0001:000e33e0       ??_E?$CBufferT@PAV?$CDelegateElxT@G@@@@UAEPAXI@Z 004e43e0 f i sp_findfile.obj
 0001:000e3410       ??_G?$CBufferRefT@PAV?$CBackrefElxT@G@@@@UAEPAXI@Z 004e4410 f i sp_findfile.obj
 0001:000e3410       ??_E?$CBufferRefT@PAV?$CBackrefElxT@G@@@@UAEPAXI@Z 004e4410 f i sp_findfile.obj
 0001:000e3440       ??_G?$CBufferT@PAV?$CBackrefElxT@G@@@@UAEPAXI@Z 004e4440 f i sp_findfile.obj
 0001:000e3440       ??_E?$CBufferT@PAV?$CBackrefElxT@G@@@@UAEPAXI@Z 004e4440 f i sp_findfile.obj
 0001:000e3470       ??_E?$CBufferRefT@PAV?$CConditionElxT@G@@@@UAEPAXI@Z 004e4470 f i sp_findfile.obj
 0001:000e3470       ??_G?$CBufferRefT@PAV?$CConditionElxT@G@@@@UAEPAXI@Z 004e4470 f i sp_findfile.obj
 0001:000e34a0       ??_E?$CBufferT@PAV?$CConditionElxT@G@@@@UAEPAXI@Z 004e44a0 f i sp_findfile.obj
 0001:000e34a0       ??_G?$CBufferT@PAV?$CConditionElxT@G@@@@UAEPAXI@Z 004e44a0 f i sp_findfile.obj
 0001:000e34d0       ??_E?$CBufferRefT@G@@UAEPAXI@Z 004e44d0 f i sp_findfile.obj
 0001:000e34d0       ??_G?$CBufferRefT@G@@UAEPAXI@Z 004e44d0 f i sp_findfile.obj
 0001:000e3500       ??0?$CBuilderT@G@@QAE@XZ   004e4500 f i sp_findfile.obj
 0001:000e3640       ?Clear@?$CBuilderT@G@@QAEXXZ 004e4640 f i sp_findfile.obj
 0001:000e36d0       ?Compile@?$CRegexpT@G@@QAEXPBGHH@Z 004e46d0 f i sp_findfile.obj
 0001:000e37c0       ?Match@?$CRegexpT@G@@QBE?AV?$MatchResultT@$0A@@@PBGHHPAVCContext@@@Z 004e47c0 f i sp_findfile.obj
 0001:000e3940       ??0CContext@@QAE@XZ        004e4940 f i sp_findfile.obj
 0001:000e3970       ??1CContext@@QAE@XZ        004e4970 f i sp_findfile.obj
 0001:000e39d0       ??0CHART_INFO@?$CBuilderT@G@@QAE@GHHH@Z 004e49d0 f i sp_findfile.obj
 0001:000e3a00       ?Build@?$CBuilderT@G@@QAEPAVElxInterface@@ABV?$CBufferRefT@G@@H@Z 004e4a00 f i sp_findfile.obj
 0001:000e40b0       ?Match@?$CRegexpT@G@@QBE?AV?$MatchResultT@$0A@@@PAVCContext@@@Z 004e50b0 f i sp_findfile.obj
 0001:000e4380       ?SetMaxLength@?$CBufferT@H@@QAEXH@Z 004e5380 f i sp_findfile.obj
 0001:000e4380       ?SetMaxLength@?$CBufferT@PAV?$CDelegateElxT@G@@@@QAEXH@Z 004e5380 f i sp_findfile.obj
 0001:000e4380       ?SetMaxLength@?$CBufferT@PAV?$CListElxT@$0A@@@@@QAEXH@Z 004e5380 f i sp_findfile.obj
 0001:000e4380       ?SetMaxLength@?$CBufferT@PAV?$CBackrefElxT@G@@@@QAEXH@Z 004e5380 f i sp_findfile.obj
 0001:000e4380       ?SetMaxLength@?$CBufferT@PAV?$CConditionElxT@G@@@@QAEXH@Z 004e5380 f i sp_findfile.obj
 0001:000e43e0       ??0?$MatchResultT@$0A@@@QAE@PAVCContext@@H@Z 004e53e0 f i sp_findfile.obj
 0001:000e4500       ??0?$CBufferT@H@@QAE@XZ    004e5500 f i sp_findfile.obj
 0001:000e4520       ?SetMaxLength@?$CBufferT@PAVElxInterface@@@@QAEXH@Z 004e5520 f i sp_findfile.obj
 0001:000e4580       ?BuildAlternative@?$CBuilderT@G@@IAEPAVElxInterface@@H@Z 004e5580 f i sp_findfile.obj
 0001:000e4900       ??1?$CBoundaryElxT@G@@UAE@XZ 004e5900 f i sp_findfile.obj
 0001:000e4900       ??1?$CGreedyElxT@$0A@@@UAE@XZ 004e5900 f i sp_findfile.obj
 0001:000e4900       ??1ElxInterface@@UAE@XZ    004e5900 f i sp_findfile.obj
 0001:000e4900       ??1?$CAssertElxT@$0A@@@UAE@XZ 004e5900 f i sp_findfile.obj
 0001:000e4900       ??1?$CGlobalElxT@$0A@@@UAE@XZ 004e5900 f i sp_findfile.obj
 0001:000e4900       ??1?$CReluctantElxT@$0A@@@UAE@XZ 004e5900 f i sp_findfile.obj
 0001:000e4900       ??1?$CRepeatElxT@$0A@@@UAE@XZ 004e5900 f i sp_findfile.obj
 0001:000e4900       ??1?$CPossessiveElxT@$0A@@@UAE@XZ 004e5900 f i sp_findfile.obj
 0001:000e4900       ??1?$CIndependentElxT@$0A@@@UAE@XZ 004e5900 f i sp_findfile.obj
 0001:000e4900       ??1?$CPosixElxT@G@@UAE@XZ  004e5900 f i sp_findfile.obj
 0001:000e4900       ??1?$CEmptyElxT@$0A@@@UAE@XZ 004e5900 f i sp_findfile.obj
 0001:000e4910       ??_EElxInterface@@UAEPAXI@Z 004e5910 f i sp_findfile.obj
 0001:000e4910       ??_GElxInterface@@UAEPAXI@Z 004e5910 f i sp_findfile.obj
 0001:000e4940       ??0?$CBufferT@PAVElxInterface@@@@QAE@XZ 004e5940 f i sp_findfile.obj
 0001:000e4960       ??0?$CBufferRefT@PAV?$CListElxT@$0A@@@@@QAE@PBQAV?$CListElxT@$0A@@@H@Z 004e5960 f i sp_findfile.obj
 0001:000e4980       ??0?$CBufferRefT@PAV?$CConditionElxT@G@@@@QAE@PBQAV?$CConditionElxT@G@@H@Z 004e5980 f i sp_findfile.obj
 0001:000e49a0       ??0?$CBufferRefT@H@@QAE@PBHH@Z 004e59a0 f i sp_findfile.obj
 0001:000e49c0       ??8CHART_INFO@?$CBuilderT@G@@QAEHABU01@@Z 004e59c0 f i sp_findfile.obj
 0001:000e49f0       ?GetNext2@?$CBuilderT@G@@IAEHXZ 004e59f0 f i sp_findfile.obj
 0001:000e5510       ?BuildList@?$CBuilderT@G@@IAEPAVElxInterface@@AAH@Z 004e6510 f i sp_findfile.obj
 0001:000e5750       ?Match@?$CListElxT@$0A@@@UBEHPAVCContext@@@Z 004e6750 f i sp_findfile.obj
 0001:000e5800       ?MatchNext@?$CListElxT@$0A@@@UBEHPAVCContext@@@Z 004e6800 f i sp_findfile.obj
 0001:000e58d0       ?GetStockElx@?$CBuilderT@G@@IAEPAVElxInterface@@H@Z 004e68d0 f i sp_findfile.obj
 0001:000e66b0       ??1?$CBufferT@G@@UAE@XZ    004e76b0 f i sp_findfile.obj
 0001:000e66e0       ??_E?$CBufferT@G@@UAEPAXI@Z 004e76e0 f i sp_findfile.obj
 0001:000e66e0       ??_G?$CBufferT@G@@UAEPAXI@Z 004e76e0 f i sp_findfile.obj
 0001:000e6710       ?nCompareNoCase@?$CBufferRefT@G@@QBEHPBG@Z 004e7710 f i sp_findfile.obj
 0001:000e6790       ?Push@?$CBufferT@H@@QAEXH@Z 004e7790 f i sp_findfile.obj
 0001:000e6790       ?Push@?$CBufferT@PAV?$CConditionElxT@G@@@@QAEXPAV?$CConditionElxT@G@@@Z 004e7790 f i sp_findfile.obj
 0001:000e6790       ?Push@?$CBufferT@PAVElxInterface@@@@QAEXPAVElxInterface@@@Z 004e7790 f i sp_findfile.obj
 0001:000e6790       ?Push@?$CBufferT@PAV?$CDelegateElxT@G@@@@QAEXPAV?$CDelegateElxT@G@@@Z 004e7790 f i sp_findfile.obj
 0001:000e67f0       ?Match@?$CAlternativeElxT@$0A@@@UBEHPAVCContext@@@Z 004e77f0 f i sp_findfile.obj
 0001:000e6890       ?MatchNext@?$CAlternativeElxT@$0A@@@UBEHPAVCContext@@@Z 004e7890 f i sp_findfile.obj
 0001:000e6960       ??_G?$CListElxT@$0A@@@UAEPAXI@Z 004e7960 f i sp_findfile.obj
 0001:000e6960       ??_E?$CListElxT@$0A@@@UAEPAXI@Z 004e7960 f i sp_findfile.obj
 0001:000e6960       ??_E?$CAlternativeElxT@$0A@@@UAEPAXI@Z 004e7960 f i sp_findfile.obj
 0001:000e6960       ??_G?$CAlternativeElxT@$0A@@@UAEPAXI@Z 004e7960 f i sp_findfile.obj
 0001:000e6990       ??1?$CListElxT@$0A@@@UAE@XZ 004e7990 f i sp_findfile.obj
 0001:000e6990       ??1?$CAlternativeElxT@$0A@@@UAE@XZ 004e7990 f i sp_findfile.obj
 0001:000e69c0       ?BuildRepeat@?$CBuilderT@G@@IAEPAVElxInterface@@AAH@Z 004e79c0 f i sp_findfile.obj
 0001:000e7320       ?MoveNext@?$CBuilderT@G@@IAEXXZ 004e8320 f i sp_findfile.obj
 0001:000e73a0       ??1?$CBufferT@D@@UAE@XZ    004e83a0 f i sp_findfile.obj
 0001:000e73d0       ??_G?$CBufferRefT@D@@UAEPAXI@Z 004e83d0 f i sp_findfile.obj
 0001:000e73d0       ??_E?$CBufferRefT@D@@UAEPAXI@Z 004e83d0 f i sp_findfile.obj
 0001:000e7400       ??_E?$CBufferT@D@@UAEPAXI@Z 004e8400 f i sp_findfile.obj
 0001:000e7400       ??_G?$CBufferT@D@@UAEPAXI@Z 004e8400 f i sp_findfile.obj
 0001:000e7430       ??0?$CListElxT@$0A@@@QAE@H@Z 004e8430 f i sp_findfile.obj
 0001:000e7460       ?Match@?$CEmptyElxT@$0A@@@UBEHPAVCContext@@@Z 004e8460 f i sp_findfile.obj
 0001:000e7470       ?Match@?$CRangeElxT@G@@UBEHPAVCContext@@@Z 004e8470 f i sp_findfile.obj
 0001:000e7560       ?MatchNext@?$CRangeElxT@G@@UBEHPAVCContext@@@Z 004e8560 f i sp_findfile.obj
 0001:000e7580       ??0?$CRangeElxT@G@@QAE@HH@Z 004e8580 f i sp_findfile.obj
 0001:000e75d0       ?Push@?$CBufferT@G@@QAEXG@Z 004e85d0 f i sp_findfile.obj
 0001:000e7620       ??_E?$CGlobalElxT@$0A@@@UAEPAXI@Z 004e8620 f i sp_findfile.obj
 0001:000e7620       ??_G?$CAssertElxT@$0A@@@UAEPAXI@Z 004e8620 f i sp_findfile.obj
 0001:000e7620       ??_E?$CPosixElxT@G@@UAEPAXI@Z 004e8620 f i sp_findfile.obj
 0001:000e7620       ??_G?$CIndependentElxT@$0A@@@UAEPAXI@Z 004e8620 f i sp_findfile.obj
 0001:000e7620       ??_E?$CReluctantElxT@$0A@@@UAEPAXI@Z 004e8620 f i sp_findfile.obj
 0001:000e7620       ??_G?$CRepeatElxT@$0A@@@UAEPAXI@Z 004e8620 f i sp_findfile.obj
 0001:000e7620       ??_E?$CRepeatElxT@$0A@@@UAEPAXI@Z 004e8620 f i sp_findfile.obj
 0001:000e7620       ??_G?$CReluctantElxT@$0A@@@UAEPAXI@Z 004e8620 f i sp_findfile.obj
 0001:000e7620       ??_E?$CAssertElxT@$0A@@@UAEPAXI@Z 004e8620 f i sp_findfile.obj
 0001:000e7620       ??_E?$CPossessiveElxT@$0A@@@UAEPAXI@Z 004e8620 f i sp_findfile.obj
 0001:000e7620       ??_E?$CGreedyElxT@$0A@@@UAEPAXI@Z 004e8620 f i sp_findfile.obj
 0001:000e7620       ??_E?$CEmptyElxT@$0A@@@UAEPAXI@Z 004e8620 f i sp_findfile.obj
 0001:000e7620       ??_G?$CEmptyElxT@$0A@@@UAEPAXI@Z 004e8620 f i sp_findfile.obj
 0001:000e7620       ??_E?$CIndependentElxT@$0A@@@UAEPAXI@Z 004e8620 f i sp_findfile.obj
 0001:000e7620       ??_G?$CPosixElxT@G@@UAEPAXI@Z 004e8620 f i sp_findfile.obj
 0001:000e7620       ??_G?$CGlobalElxT@$0A@@@UAEPAXI@Z 004e8620 f i sp_findfile.obj
 0001:000e7620       ??_G?$CBoundaryElxT@G@@UAEPAXI@Z 004e8620 f i sp_findfile.obj
 0001:000e7620       ??_E?$CBoundaryElxT@G@@UAEPAXI@Z 004e8620 f i sp_findfile.obj
 0001:000e7620       ??_G?$CGreedyElxT@$0A@@@UAEPAXI@Z 004e8620 f i sp_findfile.obj
 0001:000e7620       ??_G?$CPossessiveElxT@$0A@@@UAEPAXI@Z 004e8620 f i sp_findfile.obj
 0001:000e7650       ??_E?$CRangeElxT@G@@UAEPAXI@Z 004e8650 f i sp_findfile.obj
 0001:000e7650       ??_G?$CRangeElxT@G@@UAEPAXI@Z 004e8650 f i sp_findfile.obj
 0001:000e7680       ??1?$CRangeElxT@G@@UAE@XZ  004e8680 f i sp_findfile.obj
 0001:000e76f0       ??0?$CRepeatElxT@$0A@@@QAE@PAVElxInterface@@H@Z 004e86f0 f i sp_findfile.obj
 0001:000e7710       ?Match@?$CRepeatElxT@$0A@@@UBEHPAVCContext@@@Z 004e8710 f i sp_findfile.obj
 0001:000e7770       ?MatchNext@?$CRepeatElxT@$0A@@@UBEHPAVCContext@@@Z 004e8770 f i sp_findfile.obj
 0001:000e77f0       ??0?$CReluctantElxT@$0A@@@QAE@PAVElxInterface@@HH@Z 004e87f0 f i sp_findfile.obj
 0001:000e7820       ?Match@?$CReluctantElxT@$0A@@@UBEHPAVCContext@@@Z 004e8820 f i sp_findfile.obj
 0001:000e78d0       ?MatchNext@?$CReluctantElxT@$0A@@@UBEHPAVCContext@@@Z 004e88d0 f i sp_findfile.obj
 0001:000e7aa0       ?Pop@?$CBufferT@H@@QAEHAAH@Z 004e8aa0 f i sp_findfile.obj
 0001:000e7ad0       ??0?$CGreedyElxT@$0A@@@QAE@PAVElxInterface@@HH@Z 004e8ad0 f i sp_findfile.obj
 0001:000e7b00       ?Match@?$CGreedyElxT@$0A@@@UBEHPAVCContext@@@Z 004e8b00 f i sp_findfile.obj
 0001:000e7c40       ??0CContextShot@@QAE@PAVCContext@@@Z 004e8c40 f i sp_findfile.obj
 0001:000e7c60       ?Restore@CContextShot@@QAEXPAVCContext@@@Z 004e8c60 f i sp_findfile.obj
 0001:000e7d20       ?MatchNext@?$CGreedyElxT@$0A@@@UBEHPAVCContext@@@Z 004e8d20 f i sp_findfile.obj
 0001:000e7e90       ??0?$CPossessiveElxT@$0A@@@QAE@PAVElxInterface@@HH@Z 004e8e90 f i sp_findfile.obj
 0001:000e7ec0       ?Match@?$CPossessiveElxT@$0A@@@UBEHPAVCContext@@@Z 004e8ec0 f i sp_findfile.obj
 0001:000e8080       ?MatchNext@?$CPossessiveElxT@$0A@@@UBEHPAVCContext@@@Z 004e9080 f i sp_findfile.obj
 0001:000e8080       ?MatchNext@?$CIndependentElxT@$0A@@@UBEHPAVCContext@@@Z 004e9080 f i sp_findfile.obj
 0001:000e8110       ??0?$CBufferT@G@@QAE@XZ    004e9110 f i sp_findfile.obj
 0001:000e8130       ?BuildCharset@?$CBuilderT@G@@IAEPAVElxInterface@@AAH@Z 004e9130 f i sp_findfile.obj
 0001:000e9190       __isblank                  004ea190 f i sp_findfile.obj
 0001:000e91b0       ??0?$CEmptyElxT@$0A@@@QAE@XZ 004ea1b0 f i sp_findfile.obj
 0001:000e91c0       ?BuildRecursive@?$CBuilderT@G@@IAEPAVElxInterface@@AAH@Z 004ea1c0 f i sp_findfile.obj
 0001:000eb150       ?Prepare@?$CBufferT@PAVElxInterface@@@@QAEXHH@Z 004ec150 f i sp_findfile.obj
 0001:000eb1f0       ?Match@?$CBracketElxT@G@@UBEHPAVCContext@@@Z 004ec1f0 f i sp_findfile.obj
 0001:000eb5d0       ?MatchNext@?$CBracketElxT@G@@UBEHPAVCContext@@@Z 004ec5d0 f i sp_findfile.obj
 0001:000eb6f0       ?Match@?$CDelegateElxT@G@@UBEHPAVCContext@@@Z 004ec6f0 f i sp_findfile.obj
 0001:000eb730       ?MatchNext@?$CDelegateElxT@G@@UBEHPAVCContext@@@Z 004ec730 f i sp_findfile.obj
 0001:000eb750       ?Match@?$CConditionElxT@G@@UBEHPAVCContext@@@Z 004ec750 f i sp_findfile.obj
 0001:000eb930       ?MatchNext@?$CConditionElxT@G@@UBEHPAVCContext@@@Z 004ec930 f i sp_findfile.obj
 0001:000eba90       ??0?$CAlternativeElxT@$0A@@@QAE@XZ 004eca90 f i sp_findfile.obj
 0001:000ebab0       ??A?$CBufferRefT@G@@QBEGH@Z 004ecab0 f i sp_findfile.obj
 0001:000ebad0       ?ReadDec@?$CBuilderT@G@@KAHAAPADAAI@Z 004ecad0 f i sp_findfile.obj
 0001:000ebb80       ??0?$CBufferT@D@@QAE@XZ    004ecb80 f i sp_findfile.obj
 0001:000ebba0       ?BuildBoundary@?$CBuilderT@G@@IAEPAVElxInterface@@AAH@Z 004ecba0 f i sp_findfile.obj
 0001:000ebe90       ?BuildBackref@?$CBuilderT@G@@IAEPAVElxInterface@@AAH@Z 004ece90 f i sp_findfile.obj
 0001:000ec3c0       ?Match@?$CBackrefElxT@G@@UBEHPAVCContext@@@Z 004ed3c0 f i sp_findfile.obj
 0001:000ec6d0       ?MatchNext@?$CBackrefElxT@G@@UBEHPAVCContext@@@Z 004ed6d0 f i sp_findfile.obj
 0001:000ec700       ??0?$CStringElxT@G@@QAE@PBGHHH@Z 004ed700 f i sp_findfile.obj
 0001:000ec780       ?Match@?$CStringElxT@G@@UBEHPAVCContext@@@Z 004ed780 f i sp_findfile.obj
 0001:000ec990       ?MatchNext@?$CStringElxT@G@@UBEHPAVCContext@@@Z 004ed990 f i sp_findfile.obj
 0001:000ec9c0       ?Append@?$CBufferT@D@@QAEXPBDHH@Z 004ed9c0 f i sp_findfile.obj
 0001:000eca60       ??0?$CBufferRefT@D@@QAE@PBDH@Z 004eda60 f i sp_findfile.obj
 0001:000eca80       ?MatchNextVart@?$CGreedyElxT@$0A@@@IBEHPAVCContext@@@Z 004eda80 f i sp_findfile.obj
 0001:000ecdc0       ??_E?$CStringElxT@G@@UAEPAXI@Z 004eddc0 f i sp_findfile.obj
 0001:000ecdc0       ??_G?$CStringElxT@G@@UAEPAXI@Z 004eddc0 f i sp_findfile.obj
 0001:000ecdf0       ??1?$CStringElxT@G@@UAE@XZ 004eddf0 f i sp_findfile.obj
 0001:000ece20       ?Match@?$CPosixElxT@G@@UBEHPAVCContext@@@Z 004ede20 f i sp_findfile.obj
 0001:000eceb0       ?MatchNext@?$CPosixElxT@G@@UBEHPAVCContext@@@Z 004edeb0 f i sp_findfile.obj
 0001:000eced0       ?IsContainChar@?$CRangeElxT@G@@QBEHG@Z 004eded0 f i sp_findfile.obj
 0001:000ecf30       ?Append@?$CBufferT@G@@QAEXPBGHH@Z 004edf30 f i sp_findfile.obj
 0001:000ecfd0       ?Match@?$CAssertElxT@$0A@@@UBEHPAVCContext@@@Z 004edfd0 f i sp_findfile.obj
 0001:000ed110       ?MatchNext@?$CAssertElxT@$0A@@@UBEHPAVCContext@@@Z 004ee110 f i sp_findfile.obj
 0001:000ed180       ??0?$CBracketElxT@G@@QAE@HH@Z 004ee180 f i sp_findfile.obj
 0001:000ed1d0       ?Match@?$CIndependentElxT@$0A@@@UBEHPAVCContext@@@Z 004ee1d0 f i sp_findfile.obj
 0001:000ed2e0       ??0?$CDelegateElxT@G@@QAE@H@Z 004ee2e0 f i sp_findfile.obj
 0001:000ed310       ?Match@?$CBoundaryElxT@G@@UBEHPAVCContext@@@Z 004ee310 f i sp_findfile.obj
 0001:000ed5c0       ?Match@?$CGlobalElxT@$0A@@@UBEHPAVCContext@@@Z 004ee5c0 f i sp_findfile.obj
 0001:000ed5e0       ??0?$CBackrefElxT@G@@QAE@HHH@Z 004ee5e0 f i sp_findfile.obj
 0001:000ed620       ?Push@?$CBufferT@H@@QAEXABV?$CBufferRefT@H@@@Z 004ee620 f i sp_findfile.obj
 0001:000ed6f0       ?FindAs@?$CSortedBufferT@H@@QAEHABHP6AHPBX1@Z@Z 004ee6f0 f i sp_findfile.obj
 0001:000ed730       ??_E?$CBracketElxT@G@@UAEPAXI@Z 004ee730 f i sp_findfile.obj
 0001:000ed730       ??_G?$CBracketElxT@G@@UAEPAXI@Z 004ee730 f i sp_findfile.obj
 0001:000ed760       ??_G?$CDelegateElxT@G@@UAEPAXI@Z 004ee760 f i sp_findfile.obj
 0001:000ed760       ??_E?$CDelegateElxT@G@@UAEPAXI@Z 004ee760 f i sp_findfile.obj
 0001:000ed790       ??_G?$CConditionElxT@G@@UAEPAXI@Z 004ee790 f i sp_findfile.obj
 0001:000ed790       ??_E?$CConditionElxT@G@@UAEPAXI@Z 004ee790 f i sp_findfile.obj
 0001:000ed7c0       ??_G?$CBackrefElxT@G@@UAEPAXI@Z 004ee7c0 f i sp_findfile.obj
 0001:000ed7c0       ??_E?$CBackrefElxT@G@@UAEPAXI@Z 004ee7c0 f i sp_findfile.obj
 0001:000ed7f0       ??1?$CBracketElxT@G@@UAE@XZ 004ee7f0 f i sp_findfile.obj
 0001:000ed840       ??1?$CDelegateElxT@G@@UAE@XZ 004ee840 f i sp_findfile.obj
 0001:000ed870       ??1?$CConditionElxT@G@@UAE@XZ 004ee870 f i sp_findfile.obj
 0001:000ed8a0       ??1?$CBackrefElxT@G@@UAE@XZ 004ee8a0 f i sp_findfile.obj
 0001:000ed8d0       ?Insert@?$CBufferT@H@@QAEXHPBHH@Z 004ee8d0 f i sp_findfile.obj
 0001:000ed980       ?Detach@?$CBufferT@G@@QAEPAGXZ 004ee980 f i sp_findfile.obj
 0001:000ed990       ?compareT@?$CSortedBufferT@H@@KAHPBX0@Z 004ee990 f i sp_findfile.obj
 0001:000ed9c0       ?Append@?$CBufferT@H@@QAEXPBHHH@Z 004ee9c0 f i sp_findfile.obj
 0001:000eda60       ?SetW@SPFolderDialog@@QAEXPBG0@Z 004eea60 f   sp_folderdialog.obj
 0001:000edc90       ?BrowseCallbackProcA@SPFolderDialog@@CGHPAUHWND__@@IJJ@Z 004eec90 f   sp_folderdialog.obj
 0001:000edcd0       ?BrowseCallbackProcW@SPFolderDialog@@CGHPAUHWND__@@IJJ@Z 004eecd0 f   sp_folderdialog.obj
 0001:000edd10       ?DoModal@SPFolderDialog@@QAEHPAUHWND__@@@Z 004eed10 f   sp_folderdialog.obj
 0001:000ee0a0       ?GetUnresolvePath@SPFolderListData@@QAEPBGXZ 004ef0a0 f   sp_folderlist.obj
 0001:000ee0b0       ?SetSPProp@SPFolderListData@@QAEXPAVSPProp@@@Z 004ef0b0 f   sp_folderlist.obj
 0001:000ee120       ?Release@SPFolderList@@QAEXXZ 004ef120 f   sp_folderlist.obj
 0001:000ee2a0       ??1SPFolderListData@@QAE@XZ 004ef2a0 f i sp_folderlist.obj
 0001:000ee300       ?AddFromFolder@SPFolderList@@QAEXPBG0KI@Z 004ef300 f   sp_folderlist.obj
 0001:000eeaa0       ?MakeList@SPFolderList@@QAEKXZ 004efaa0 f   sp_folderlist.obj
 0001:000eec30       ??ASPFolderList@@QAEPAVSPFolderListData@@K@Z 004efc30 f   sp_folderlist.obj
 0001:000eec50       ?FindPath@SPFolderList@@QAEHPBG@Z 004efc50 f   sp_folderlist.obj
 0001:000eed70       ?CalcHash@?$JHash@G@@AAEKPBG@Z 004efd70 f i sp_folderlist.obj
 0001:000eee00       ?Get@?$JHashData@G@@QAEPAXPBGH@Z 004efe00 f i sp_folderlist.obj
 0001:000eee80       ?Set@?$JHashData@G@@QAEXPBGPAXH@Z 004efe80 f i sp_folderlist.obj
 0001:000eefb0       ?GetIndex@?$JHashData@G@@AAEHPBGH@Z 004effb0 f i sp_folderlist.obj
 0001:000ef030       ?GetSPFontTable@@YAAAVSPFontTable@@XZ 004f0030 f   sp_fonttable.obj
 0001:000ef0c0       ??0SPFontTable@@AAE@XZ     004f00c0 f   sp_fonttable.obj
 0001:000ef220       ??_GSPFontTable@@UAEPAXI@Z 004f0220 f i sp_fonttable.obj
 0001:000ef220       ??_ESPFontTable@@UAEPAXI@Z 004f0220 f i sp_fonttable.obj
 0001:000ef250       ??1SPFontTable@@UAE@XZ     004f0250 f   sp_fonttable.obj
 0001:000ef330       ?UpdateFontFamily@SPFontTable@@QAEX_N@Z 004f0330 f   sp_fonttable.obj
 0001:000ef560       ?Alloc@JWString@@QAEXK@Z   004f0560 f i sp_fonttable.obj
 0001:000ef7d0       ??1SPFontTableEnumInfo@@QAE@XZ 004f07d0 f i sp_fonttable.obj
 0001:000ef820       ?GetFontFamilyArray@SPFontTable@@QAEAAVSPStaticStringArrayW@@XZ 004f0820 f   sp_fonttable.obj
 0001:000ef830       ?IsFontInstalled@SPFontTable@@QAE_NQBG@Z 004f0830 f   sp_fonttable.obj
 0001:000ef880       ?IsFontInstalledDeep@SPFontTable@@AAE_NQBG@Z 004f0880 f   sp_fonttable.obj
 0001:000ef9e0       ?GetDefaultFontW@SPFontTable@@QAEPBGXZ 004f09e0 f   sp_fonttable.obj
 0001:000efa30       ?GetSPGDIPlus@@YAAAVSPGDIPlus@@XZ 004f0a30 f   sp_gdiplus.obj
 0001:000efae0       ??_GSPGDIPlus@@UAEPAXI@Z   004f0ae0 f i sp_gdiplus.obj
 0001:000efae0       ??_ESPGDIPlus@@UAEPAXI@Z   004f0ae0 f i sp_gdiplus.obj
 0001:000efb10       ??1SPGDIPlus@@UAE@XZ       004f0b10 f i sp_gdiplus.obj
 0001:000efb20       ?Init@SPGDIPlus@@QAEXXZ    004f0b20 f   sp_gdiplus.obj
 0001:000efb80       ?StretchBlt@SPGDIPlus@@QAE_NPAXJJPAVJSurface@@JJAAUtagXFORM@@_N@Z 004f0b80 f   sp_gdiplus.obj
 0001:000efbc0       ?StretchBlt@SPGDIPlus@@QAE_NPAXJJJJPAVJSurface@@JJJJAAUtagXFORM@@_N@Z 004f0bc0 f   sp_gdiplus.obj
 0001:000efd30       ??1Matrix@Gdiplus@@QAE@XZ  004f0d30 f i sp_gdiplus.obj
 0001:000efd40       ??1Graphics@Gdiplus@@QAE@XZ 004f0d40 f i sp_gdiplus.obj
 0001:000efdd0       ?GetThumbnail@SPRecommendProp@@QAEPBGPAVSPGhost@@@Z 004f0dd0 f   sp_ghost.obj
 0001:000effe0       ?VarGet@SPShellProp@@UAE_NPAVSPGhost@@PAGAAVJWString@@PAVSPVarSystemNode@@@Z 004f0fe0 f   sp_ghost.obj
 0001:000f0150       ?VarSet@SPShellProp@@UAE_NPAVSPGhost@@PAG1PAVSPVarSystemNode@@@Z 004f1150 f   sp_ghost.obj
 0001:000f01d0       ?ReadDescript@SPShellProp@@UAEHXZ 004f11d0 f   sp_ghost.obj
 0001:000f0570       ??0SPGhostBase@@QAE@XZ     004f1570 f   sp_ghost.obj
 0001:000f0660       ??_GSPGhostBase@@UAEPAXI@Z 004f1660 f i sp_ghost.obj
 0001:000f0660       ??_ESPGhostBase@@UAEPAXI@Z 004f1660 f i sp_ghost.obj
 0001:000f0690       ??1SPGhostBase@@UAE@XZ     004f1690 f   sp_ghost.obj
 0001:000f0740       ?FindShellIDFromPath@SPGhostBase@@QAEJPBG@Z 004f1740 f   sp_ghost.obj
 0001:000f0760       ?FindShellIDFromName@SPGhostBase@@QAEJPBG@Z 004f1760 f   sp_ghost.obj
 0001:000f07b0       ?EnumShells@SPGhostBase@@UAEK_N@Z 004f17b0 f   sp_ghost.obj
 0001:000f0ab0       ?LoadShellInfo@SPGhostBase@@QAEHPAVSPFolderListData@@@Z 004f1ab0 f   sp_ghost.obj
 0001:000f0dc0       ?GetTypeString@SPShellProp@@UAEPBGXZ 004f1dc0 f i sp_ghost.obj
 0001:000f0dd0       ??_ESPShellProp@@MAEPAXI@Z 004f1dd0 f i sp_ghost.obj
 0001:000f0dd0       ??_GSPShellProp@@MAEPAXI@Z 004f1dd0 f i sp_ghost.obj
 0001:000f0e00       ??1SPShellProp@@MAE@XZ     004f1e00 f i sp_ghost.obj
 0001:000f0f20       ?EnumSurfaceSetAsShell@SPGhostBase@@QAEHXZ 004f1f20 f   sp_ghost.obj
 0001:000f1440       ??0SPGhost@@QAE@XZ         004f2440 f   sp_ghost.obj
 0001:000f2020       ??_ESPGhost@@MAEPAXI@Z     004f3020 f i sp_ghost.obj
 0001:000f2020       ??_GSPGhost@@MAEPAXI@Z     004f3020 f i sp_ghost.obj
 0001:000f2050       ??1SPGhost@@MAE@XZ         004f3050 f   sp_ghost.obj
 0001:000f27b0       ?UnloadCompatibleData@SPGhost@@AAEXXZ 004f37b0 f   sp_ghost.obj
 0001:000f28e0       ??1SPTiming@@QAE@XZ        004f38e0 f i sp_ghost.obj
 0001:000f2940       ??1SPScript@@QAE@XZ        004f3940 f i sp_ghost.obj
 0001:000f29c0       ??1SPSong@@QAE@XZ          004f39c0 f i sp_ghost.obj
 0001:000f2a20       ??1SPNews@@QAE@XZ          004f3a20 f i sp_ghost.obj
 0001:000f2ad0       ?ReleaseRecommendations@SPGhost@@AAEXH@Z 004f3ad0 f   sp_ghost.obj
 0001:000f2bd0       ?DeleteSelf@SPGhost@@QAEXXZ 004f3bd0 f   sp_ghost.obj
 0001:000f2bf0       ?Release@SPGhost@@QAEXXZ   004f3bf0 f   sp_ghost.obj
 0001:000f2d20       ?LoadUnloadCommand@SPGhost@@QAEHI@Z 004f3d20 f   sp_ghost.obj
 0001:000f2db0       ?LoadUnloadCommandFromMainThread@SPGhost@@QAEHI@Z 004f3db0 f   sp_ghost.obj
 0001:000f2e30       ?ReloadShiori@SPGhost@@QAEHXZ 004f3e30 f   sp_ghost.obj
 0001:000f2e50       ?LoadUnloadShiori@SPGhost@@QAEH_N@Z 004f3e50 f   sp_ghost.obj
 0001:000f2e80       ?ReloadMakoto@SPGhost@@QAEHXZ 004f3e80 f   sp_ghost.obj
 0001:000f2eb0       ?LoadUnloadMakoto@SPGhost@@QAEH_N@Z 004f3eb0 f   sp_ghost.obj
 0001:000f2f00       ?GetRecommendations@SPGhost@@QAEPAV?$JPtrArray@PAVSPRecommendProp@@@@H@Z 004f3f00 f   sp_ghost.obj
 0001:000f2f30       ?GetRecommendationsNum@SPGhost@@QAEKH@Z 004f3f30 f   sp_ghost.obj
 0001:000f2f50       ?AddRecommendations@SPGhost@@QAEPAV?$JPtrArray@PAVSPRecommendProp@@@@H@Z 004f3f50 f   sp_ghost.obj
 0001:000f3050       ?EnumRecommendations@SPGhost@@QAEHH@Z 004f4050 f   sp_ghost.obj
 0001:000f3400       ??0SPRecommendProp@@QAE@XZ 004f4400 f i sp_ghost.obj
 0001:000f3550       ?CheckRecommendationsNew@SPGhost@@AAEHHPAV?$JPtrArray@PAVSPRecommendProp@@@@PAG1@Z 004f4550 f   sp_ghost.obj
 0001:000f3830       ?EnumRecommendationsNew@SPGhost@@QAEHH@Z 004f4830 f   sp_ghost.obj
 0001:000f3970       ?FindWithTypeAndName@SPGhost@@QAE?AVSPTypeAndName@@PBG@Z 004f4970 f   sp_ghost.obj
 0001:000f3ad0       ?FindLastInstalledIndex@SPGhost@@QAEJI@Z 004f4ad0 f   sp_ghost.obj
 0001:000f3bf0       ?GetPropPtr@SPGhost@@QAEPAVSPProp@@IH@Z 004f4bf0 f   sp_ghost.obj
 0001:000f3cd0       ?SetTrayIconName@SPGhost@@QAEHPAG@Z 004f4cd0 f   sp_ghost.obj
 0001:000f3f40       ?SetTrayBalloon@SPGhost@@QAEHPAG@Z 004f4f40 f   sp_ghost.obj
 0001:000f41b0       ?SetTrayBalloonDeveloperMessage@SPGhost@@QAEHPBG@Z 004f51b0 f   sp_ghost.obj
 0001:000f4330       ?EnumChoiceText@SPGhost@@QAE_NP6A_NPBGPAX@Z1@Z 004f5330 f   sp_ghost.obj
 0001:000f4380       ?FindChoiceAndFireEventFromString@SPGhost@@QAE_NPBGJ@Z 004f5380 f   sp_ghost.obj
 0001:000f4430       ?IsChoiceTextExist@SPGhost@@QAE_NXZ 004f5430 f   sp_ghost.obj
 0001:000f4470       ?UpdateChoiceTextExistState@SPGhost@@AAEXXZ 004f5470 f   sp_ghost.obj
 0001:000f44b0       ?LoadGhost@SPGhost@@QAEHJH@Z 004f54b0 f   sp_ghost.obj
 0001:000f53a0       ?ReloadGhost@SPGhost@@QAE_NXZ 004f63a0 f   sp_ghost.obj
 0001:000f53f0       ?ReloadShellWait@SPGhost@@QAE_NXZ 004f63f0 f   sp_ghost.obj
 0001:000f5450       ?ReloadShell@SPGhost@@QAE_NXZ 004f6450 f   sp_ghost.obj
 0001:000f5490       ?ReloadBalloonWait@SPGhost@@QAE_NXZ 004f6490 f   sp_ghost.obj
 0001:000f54d0       ?ReloadBalloon@SPGhost@@QAE_NXZ 004f64d0 f   sp_ghost.obj
 0001:000f5510       ?ReloadDescript@SPGhost@@QAE_NPBG@Z 004f6510 f   sp_ghost.obj
 0001:000f5550       ?TextToTypeFlag@SPGhost@@SAIPBG@Z 004f6550 f   sp_ghost.obj
 0001:000f5600       ?ModuleUnload@SPGhost@@QAEXH@Z 004f6600 f   sp_ghost.obj
 0001:000f5660       ?ModuleUnloadDirectly@SPGhost@@QAEXXZ 004f6660 f   sp_ghost.obj
 0001:000f5690       ?LoadAfterModuleUnload@SPGhost@@QAEXXZ 004f6690 f   sp_ghost.obj
 0001:000f56c0       ?LoadShell@SPGhost@@QAEHPBGH@Z 004f66c0 f   sp_ghost.obj
 0001:000f5a60       ?GetBalloonIDFromSetting@SPGhost@@QAEJXZ 004f6a60 f   sp_ghost.obj
 0001:000f5c00       ?LoadGhostCore@SPGhost@@QAEXH@Z 004f6c00 f   sp_ghost.obj
 0001:000f5da0       ?LoadMakotoGhost@SPGhost@@QAEHXZ 004f6da0 f   sp_ghost.obj
 0001:000f5ed0       ?LoadMakotoShell@SPGhost@@QAEHXZ 004f6ed0 f   sp_ghost.obj
 0001:000f6000       ?NotifyInitialEvents@SPGhost@@QAEX_N0@Z 004f7000 f   sp_ghost.obj
 0001:000f6230       ?LoadShiori@SPGhost@@QAEH_N@Z 004f7230 f   sp_ghost.obj
 0001:000f64f0       ?UnloadShiori@SPGhost@@QAEH_N@Z 004f74f0 f   sp_ghost.obj
 0001:000f65b0       ?UnloadMakotoGhost@SPGhost@@QAEXXZ 004f75b0 f   sp_ghost.obj
 0001:000f6600       ?UnloadMakotoShell@SPGhost@@QAEXXZ 004f7600 f   sp_ghost.obj
 0001:000f6650       ?LoadPiro@SPGhost@@QAEHXZ  004f7650 f   sp_ghost.obj
 0001:000f6880       ?SetLastUpdateExecTime@SPGhost@@QAEXXZ 004f7880 f   sp_ghost.obj
 0001:000f68b0       ?SetCompatibleMode@SPGhost@@QAEHHH@Z 004f78b0 f   sp_ghost.obj
 0001:000f6f60       ?LoadShellChange@SPGhost@@QAEHJH@Z 004f7f60 f   sp_ghost.obj
 0001:000f7000       ?GetShellIDFromSetting@SPGhost@@AAEJXZ 004f8000 f   sp_ghost.obj
 0001:000f70e0       ?GetDefaultShellID@SPGhost@@AAEJXZ 004f80e0 f   sp_ghost.obj
 0001:000f7120       ?SaveShellSetting@SPGhost@@AAEX_N@Z 004f8120 f   sp_ghost.obj
 0001:000f71c0       ?GetODMFromShiori@SPGhost@@QAEHH@Z 004f81c0 f   sp_ghost.obj
 0001:000f7b70       ?LoadDescript@SPGhost@@QAE_NPBG@Z 004f8b70 f   sp_ghost.obj
 0001:000f81a0       ?LoadDescriptOverride@SPGhost@@QAEHPBGH@Z 004f91a0 f   sp_ghost.obj
 0001:000f86b0       ?FindInstallAccept@SPGhost@@QAEHPBG@Z 004f96b0 f   sp_ghost.obj
 0001:000f8720       ?FindInstallAcceptReal@SPGhost@@AAEHPBG@Z 004f9720 f   sp_ghost.obj
 0001:000f87b0       ?GetBalloonCursor@SPGhost@@QAEPAX_N@Z 004f97b0 f   sp_ghost.obj
 0001:000f8800       ?GetEditCursor@SPGhost@@QAEPAX_N@Z 004f9800 f   sp_ghost.obj
 0001:000f8850       ?GetWaitCursor@SPGhost@@QAEPAX_N0@Z 004f9850 f   sp_ghost.obj
 0001:000f88a0       ?GetGhostCursor@SPGhost@@QAEPAX_N@Z 004f98a0 f   sp_ghost.obj
 0001:000f88e0       ?GetFMOString@SPGhost@@QAE_NAAVJString@@H_NAAVJWString@@0@Z 004f98e0 f   sp_ghost.obj
 0001:000f8e40       ??YJString@@QAEAAV0@ABV0@@Z 004f9e40 f i sp_ghost.obj
 0001:000f8e60       ?LoadBalloon@SPGhost@@QAEHJ@Z 004f9e60 f   sp_ghost.obj
 0001:000f9070       ?DecodeEntity@SPGhost@@SAXAAVJWString@@@Z 004fa070 f   sp_ghost.obj
 0001:000f9260       ?NormalizeUnicodeStringC@SPGhost@@QAEXAAVJWString@@@Z 004fa260 f   sp_ghost.obj
 0001:000f9290       ?MoveCharWindow@SPGhost@@QAEXJAAVSPGhostMoveInfo@@_N@Z 004fa290 f   sp_ghost.obj
 0001:000f92b0       ?ParseParameters@SPGhost@@SAHAAVJWString@@IAAV?$JArray@G@@AAJ@Z 004fa2b0 f   sp_ghost.obj
 0001:000f95f0       ?ParametersToArray@SPGhost@@SAXPAGAAV?$JPtrArray@PAG@@@Z 004fa5f0 f   sp_ghost.obj
 0001:000f9790       ?ParseBracket@SPGhost@@SAHAAVJWString@@IAAV?$JArray@G@@@Z 004fa790 f   sp_ghost.obj
 0001:000f9a10       ?ShowHideCharBalloon@SPGhost@@AAEXJ@Z 004faa10 f   sp_ghost.obj
 0001:000f9a50       ?ScanScriptToShowBalloon@SPGhost@@AAEHPBG_N@Z 004faa50 f   sp_ghost.obj
 0001:000f9d80       ?DecodeProcClearState@SPGhost@@AAEXXZ 004fad80 f   sp_ghost.obj
 0001:000f9dc0       ?MoveCharAwayClose@SPGhost@@AAEXHHH@Z 004fadc0 f   sp_ghost.obj
 0001:000fa160       ??1SPGhostMoveInfo@@QAE@XZ 004fb160 f i sp_ghost.obj
 0001:000fa1f0       ?Execute_HTTP_RSS_Get_Thread@SPGhost@@QAE_NPAXPCH@Z 004fb1f0 f   sp_ghost.obj
 0001:000faf30       ?Execute_HTTP_RSS_Get@SPGhost@@QAEX_NPBG0@Z 004fbf30 f   sp_ghost.obj
 0001:000fbcd0       ??0SPCmdNotifier@@QAE@XZ   004fccd0 f i sp_ghost.obj
 0001:000fbd50       ??1SPGhost_HTTP_RSS_Info@@QAE@XZ 004fcd50 f i sp_ghost.obj
 0001:000fbe80       ?ExecutePingThread@SPGhost@@QAEXPAXPCH@Z 004fce80 f   sp_ghost.obj
 0001:000fc900       ?ExecutePing@SPGhost@@QAEXPBG@Z 004fd900 f   sp_ghost.obj
 0001:000fcdb0       ??1SPGhost_PingInfo@@QAE@XZ 004fddb0 f i sp_ghost.obj
 0001:000fd200       ?ExecuteNSLookup@SPGhost@@QAEXPBG@Z 004fe200 f   sp_ghost.obj
 0001:000fd410       ??1SPGhost_NSLookupInfo@@QAE@XZ 004fe410 f i sp_ghost.obj
 0001:000fd460       ?ExecuteNSLookupThread@SPGhost@@QAEXPAXPCH@Z 004fe460 f   sp_ghost.obj
 0001:000fd780       ?DecodeProcAnimeExec@SPGhost@@AAEKAAVJWString@@KAAV?$JArray@J@@AAH@Z 004fe780 f   sp_ghost.obj
 0001:000fd970       ?DecodeProc@SPGhost@@AAEHAAVJWString@@PAVSPScriptQueueData@@@Z 004fe970 f   sp_ghost.obj
 0001:001009b0       ?Length@JWString@@QBEKXZ   005019b0 f i sp_ghost.obj
 0001:001009c0       ??AJWString@@QAEAAGK@Z     005019c0 f i sp_ghost.obj
 0001:001009d0       ?Clear@JWString@@QAEXXZ    005019d0 f i sp_ghost.obj
 0001:00100af0       ?SetAutoScroll@SPBalloonWnd@@QAEXH@Z 00501af0 f i sp_ghost.obj
 0001:00100b00       ?DecodeVoiceCommand@SPGhost@@AAEXPBG@Z 00501b00 f   sp_ghost.obj
 0001:00100ba0       ?GetGhostIDFromTag@SPGhost@@QAEJPAG_N@Z 00501ba0 f   sp_ghost.obj
 0001:00100cf0       ?GetGhostIDFromTagStatic@SPGhost@@SAJPAGJ@Z 00501cf0 f   sp_ghost.obj
 0001:00100ed0       ?ExecuteChange@SPGhost@@QAEHPAG0_N@Z 00501ed0 f   sp_ghost.obj
 0001:001014e0       ?PlayScriptValueNotify@SPGhost@@QAEHKPBG@Z 005024e0 f   sp_ghost.obj
 0001:00101610       ?ExecuteExclamationTagValueNotify@SPGhost@@AAE_N_NKPAGJ@Z 00502610 f   sp_ghost.obj
 0001:00101f90       ?ExecuteExclamationTag@SPGhost@@AAEXPAGJJAAVJWString@@AAJJ@Z 00502f90 f   sp_ghost.obj
 0001:00105b60       ?Buffer@JString@@QAEPADXZ  00506b60 f i sp_ghost.obj
 0001:00105b60       ?Handle@SPEventObject@@QAEPAXXZ 00506b60 f i sp_ghost.obj
 0001:00105b60       ?Buffer@?$JArray@G@@QAEPAGXZ 00506b60 f i sp_ghost.obj
 0001:00105ce0       ??1SPGhostRaiseTimerBlock@@QAE@XZ 00506ce0 f   sp_ghost.obj
 0001:00105d60       ?SetTimer@SPGhostRaiseTimerBlock@@QAE_NJ@Z 00506d60 f   sp_ghost.obj
 0001:00105df0       ?ExecuteRaiseTimer@SPGhost@@QAEXPAVSPGhostRaiseTimerBlock@@@Z 00506df0 f   sp_ghost.obj
 0001:001060d0       ?ExecuteRaise@SPGhost@@QAEXPBGPAGJ_N@Z 005070d0 f   sp_ghost.obj
 0001:00106680       ?ExecuteRaiseReal@SPGhost@@QAEXPBGPAGJ_N@Z 00507680 f   sp_ghost.obj
 0001:001075e0       ?TranslateParam@SPGhost@@AAE_NAAVJWString@@@Z 005085e0 f   sp_ghost.obj
 0001:00107690       ?TranslateParamReal@SPGhost@@AAEXAAVJWString@@@Z 00508690 f   sp_ghost.obj
 0001:001084e0       ?GetIconName@SPGhost@@QAE_NAAVJWString@@@Z 005094e0 f   sp_ghost.obj
 0001:001086d0       ?GetIconMinimizeName@SPGhost@@QAE_NAAVJWString@@@Z 005096d0 f   sp_ghost.obj
 0001:001088e0       ?UpdateMe@SPGhost@@QAE_NPBG_N1PCHK@Z 005098e0 f   sp_ghost.obj
 0001:00108b30       ??_GSPUpdateParam@@UAEPAXI@Z 00509b30 f i sp_ghost.obj
 0001:00108b30       ??_ESPUpdateParam@@UAEPAXI@Z 00509b30 f i sp_ghost.obj
 0001:00108b60       ??1SPUpdateParam@@UAE@XZ   00509b60 f i sp_ghost.obj
 0001:00109550       ??0SPUpdateFlags@@QAE@ABV0@@Z 0050a550 f i sp_ghost.obj
 0001:00109590       ?UpdateOther@SPGhost@@QAE_NPBG_N1PCH@Z 0050a590 f   sp_ghost.obj
 0001:00109f10       ?WaitAndExitUpdateThread@SPGhost@@QAEXXZ 0050af10 f   sp_ghost.obj
 0001:00109f80       ?IsUpdatable@SPGhost@@QAE_NXZ 0050af80 f   sp_ghost.obj
 0001:0010a0e0       ?GetUpdateURL@SPGhost@@QAE?AW4SPHttp_Type@@PAVJString@@0@Z 0050b0e0 f   sp_ghost.obj
 0001:0010a390       ?GetUpdateOtherURL@SPGhost@@QAE_NPAVSPProp@@AAVJString@@@Z 0050b390 f   sp_ghost.obj
 0001:0010a5a0       ?IsShowHiddenElements@SPGhost@@QBE_NXZ 0050b5a0 f   sp_ghost.obj
 0001:0010a5d0       ?AddStatusText@SPGhost@@QAEXAAVJWString@@@Z 0050b5d0 f   sp_ghost.obj
 0001:0010a9a0       ?ExecuteCommonDialogThread@SPGhost@@AAEXPAXPCH@Z 0050b9a0 f   sp_ghost.obj
 0001:0010b560       ?ExecuteCommonDialog@SPGhost@@AAEXPBG0@Z 0050c560 f   sp_ghost.obj
 0001:0010b9e0       ?CheckString@SPGhost@@CAKPBG0@Z 0050c9e0 f   sp_ghost.obj
 0001:0010ba20       ?Exit@SPGhost@@UAEHXZ      0050ca20 f   sp_ghost.obj
 0001:0010bae0       ?MakeVarPath@SPGhost@@AAE_NAAVJWString@@@Z 0050cae0 f   sp_ghost.obj
 0001:0010bb70       ?SetPriority@SPGhost@@QAEXXZ 0050cb70 f   sp_ghost.obj
 0001:0010bb90       ?SetPriorityAnimation@SPSerikoAnimation@@QAEXXZ 0050cb90 f   sp_ghost.obj
 0001:0010bb90       ?SetPriorityScript@SPGhost@@QAEXXZ 0050cb90 f   sp_ghost.obj
 0001:0010bbc0       ?Loop@SPGhost@@UAEHXZ      0050cbc0 f   sp_ghost.obj
 0001:0010c390       ?TranslateScript@SPGhost@@QAEXAAVJWString@@PBG1111@Z 0050d390 f   sp_ghost.obj
 0001:0010c490       ?IsExecuteJumpString@SPGhost@@SAHPAG@Z 0050d490 f   sp_ghost.obj
 0001:0010c540       ?ExecuteJump@SPGhost@@QAEHPAG@Z 0050d540 f   sp_ghost.obj
 0001:0010c570       ?ExecuteJumpFromBalloonStr@SPGhost@@QAEHPAVSPBalloonString@@@Z 0050d570 f   sp_ghost.obj
 0001:0010c690       ?ExecuteJumpExec@SPGhost@@AAEHPAGH@Z 0050d690 f   sp_ghost.obj
 0001:0010c8b0       ??0SPShioriEventResult@@QAE@PBG@Z 0050d8b0 f i sp_ghost.obj
 0001:0010c8e0       ?PlayEntry@SPGhost@@QAEHPAGKKK@Z 0050d8e0 f   sp_ghost.obj
 0001:0010c940       ?PlayEntry2@SPGhost@@QAEHPAG0KK@Z 0050d940 f   sp_ghost.obj
 0001:0010ca90       ?PlayEntryJump@SPGhost@@QAEHPAG0J@Z 0050da90 f   sp_ghost.obj
 0001:0010cb70       ?PlayScript@SPGhost@@QAEHPBGK@Z 0050db70 f   sp_ghost.obj
 0001:0010cbe0       ?PlayScript@SPGhost@@QAEHVSPShioriEventResult@@K@Z 0050dbe0 f   sp_ghost.obj
 0001:0010cc90       ?PlayScriptWithMsg@SPGhost@@QAEHPBGKKK@Z 0050dc90 f   sp_ghost.obj
 0001:0010cd00       ?PlayScriptWithMsg@SPGhost@@QAEHVSPShioriEventResult@@KKK@Z 0050dd00 f   sp_ghost.obj
 0001:0010cdb0       ?PlayScriptWithListener@SPGhost@@QAEHVSPShioriEventResult@@KPAVSPCmdListener@@PBG@Z 0050ddb0 f   sp_ghost.obj
 0001:0010ce60       ?PlayScriptInternal@SPGhost@@QAEHVSPShioriEventResult@@KKKKPAVSPCmdListener@@PBG@Z 0050de60 f   sp_ghost.obj
 0001:0010d460       ?PlaySSTPScript@SPGhost@@QAEHPAGPAVSPSSTPData@@H@Z 0050e460 f   sp_ghost.obj
 0001:0010db80       ?BreakScriptNoEvent@SPGhost@@QAEXXZ 0050eb80 f   sp_ghost.obj
 0001:0010dbb0       ?BreakScript@SPGhost@@QAEXHHH@Z 0050ebb0 f   sp_ghost.obj
 0001:0010dda0       ?PlayAITalk@SPGhost@@QAEHXZ 0050eda0 f   sp_ghost.obj
 0001:0010de10       ?GetAITalkOrNewsCompatible@SPGhost@@QAEPBGXZ 0050ee10 f   sp_ghost.obj
 0001:0010dea0       ?ExecuteHeadline@SPGhost@@QAE_NPBG@Z 0050eea0 f   sp_ghost.obj
 0001:0010dfb0       ?PlayTiming@SPGhost@@QAEHJJJJJ@Z 0050efb0 f   sp_ghost.obj
 0001:0010e000       ?CommunicateResponse@SPGhost@@QAEHPAGPAVSPSSTPData@@PAVSPStaticStringArrayW@@@Z 0050f000 f   sp_ghost.obj
 0001:0010e070       ?CommunicateSSTP@SPGhost@@QAEHPAVSPSSTPData@@@Z 0050f070 f   sp_ghost.obj
 0001:0010e200       ?BalloonCloseWithCheck@SPGhost@@QAEX_N@Z 0050f200 f   sp_ghost.obj
 0001:0010e230       ?BalloonClose@SPGhost@@QAE_N_N0@Z 0050f230 f   sp_ghost.obj
 0001:0010e300       ?BalloonCloseEvent@SPGhost@@QAEX_N@Z 0050f300 f   sp_ghost.obj
 0001:0010e3b0       ?IsBalloonVisible@SPGhost@@QAE_NXZ 0050f3b0 f   sp_ghost.obj
 0001:0010e3f0       ?ClearBalloons@SPGhost@@QAE_NH@Z 0050f3f0 f   sp_ghost.obj
 0001:0010e490       ?HideBalloons@SPGhost@@QAE_NXZ 0050f490 f   sp_ghost.obj
 0001:0010e500       ?UpdateBalloons@SPGhost@@QAEXXZ 0050f500 f   sp_ghost.obj
 0001:0010e530       ?UpdateBalloonChar@SPGhost@@QAEXJ@Z 0050f530 f   sp_ghost.obj
 0001:0010e560       ?LockBalloonChar@SPGhost@@QAEXHH@Z 0050f560 f   sp_ghost.obj
 0001:0010e580       ?UnlockBalloonAll@SPGhost@@QAEXXZ 0050f580 f   sp_ghost.obj
 0001:0010e5c0       ?SetCharBalloonTempAlpha@SPGhost@@QAEXJH@Z 0050f5c0 f   sp_ghost.obj
 0001:0010e5e0       ?GetCharBalloonAlphaCalc@SPGhost@@QAEHJ@Z 0050f5e0 f   sp_ghost.obj
 0001:0010e650       ?CloseInputBox@SPGhost@@QAEXIPAG@Z 0050f650 f   sp_ghost.obj
 0001:0010e690       ?ShowInputBoxFromTag@SPGhost@@QAEXIPAGH@Z 0050f690 f   sp_ghost.obj
 0001:0010e700       ?ShowInputBox@SPGhost@@QAEXIPAG0I@Z 0050f700 f   sp_ghost.obj
 0001:0010e780       ?MakeIDAndNotify@SPGhost@@QAEXK@Z 0050f780 f   sp_ghost.obj
 0001:0010e8b0       ?ExitGhost@SPGhost@@QAEX_N@Z 0050f8b0 f   sp_ghost.obj
 0001:0010e8f0       ?LockAllBalloonUpdate@SPGhost@@AAEX_N@Z 0050f8f0 f   sp_ghost.obj
 0001:0010e940       ?ProcessLazyCommandExec@SPGhost@@AAEXXZ 0050f940 f   sp_ghost.obj
 0001:0010e980       ?CalcMessageWait@SPGhost@@AAEHH@Z 0050f980 f   sp_ghost.obj
 0001:0010e9d0       ?DispMessage@SPGhost@@AAEXHAAVJWString@@@Z 0050f9d0 f   sp_ghost.obj
 0001:0010ebc0       ?DispMessageSync@SPGhost@@AAEXAAVJWString@@@Z 0050fbc0 f   sp_ghost.obj
 0001:0010ee20       ?InitInstance@SPGhost@@UAEHXZ 0050fe20 f   sp_ghost.obj
 0001:0010ee50       ?ExitInstance@SPGhost@@UAEXH@Z 0050fe50 f   sp_ghost.obj
 0001:0010ef30       ?ClearSettings@SPGhost@@QAEX_N@Z 0050ff30 f   sp_ghost.obj
 0001:0010f020       ?LockSettings@SPGhost@@QAEX_N@Z 00510020 f   sp_ghost.obj
 0001:0010f040       ?SaveWndPos@SPGhost@@QAEXXZ 00510040 f   sp_ghost.obj
 0001:0010f170       ?GetWord@SPGhost@@QAEPBGPBG@Z 00510170 f   sp_ghost.obj
 0001:0010f290       ?GetScript@SPGhost@@QAEPAGPAGH@Z 00510290 f   sp_ghost.obj
 0001:0010f4b0       ?Wait@SPGhost@@AAEXH@Z     005104b0 f   sp_ghost.obj
 0001:0010f5b0       ?WaitAbsolute@SPGhost@@AAEXPAGHH@Z 005105b0 f   sp_ghost.obj
 0001:0010f670       ?ResetWait@SPGhost@@AAEXXZ 00510670 f   sp_ghost.obj
 0001:0010f6a0       ?WaitSound@SPGhost@@AAEXXZ 005106a0 f   sp_ghost.obj
 0001:0010f6e0       ?WaitTillScriptPlaying@SPGhost@@QAEXXZ 005106e0 f   sp_ghost.obj
 0001:0010f7c0       ?NotifyHwnd@SPGhost@@QAEXK@Z 005107c0 f   sp_ghost.obj
 0001:0010fa30       ?NotifyFolder@SPGhost@@QAEXK@Z 00510a30 f   sp_ghost.obj
 0001:0010fb40       ?NotifyCmdListener@SPGhost@@QAEHKPAPAXH@Z 00510b40 f   sp_ghost.obj
 0001:0010fb60       ?RequestCmdListener@SPGhost@@QAEHAAVJWString@@KPAPAXH@Z 00510b60 f   sp_ghost.obj
 0001:0010fb90       ?NotifyPiro@SPGhost@@AAEHH@Z 00510b90 f   sp_ghost.obj
 0001:0010fc70       ?TestNewSpecificationStatic@SPGhost@@QAE_NXZ 00510c70 f   sp_ghost.obj
 0001:0010fe90       ?TestNewSpecificationDynamic@SPGhost@@QAE_NXZ 00510e90 f   sp_ghost.obj
 0001:0010ff60       ?TestCompatibleModeStatic@SPGhost@@QAE_NXZ 00510f60 f   sp_ghost.obj
 0001:0010ffa0       ?CheckNewSpecification@SPGhost@@QAE_NXZ 00510fa0 f   sp_ghost.obj
 0001:00110090       ?OnMouseEvent@SPGhost@@QAEHPAGH0HABUtagPOINT@@0HK@Z 00511090 f   sp_ghost.obj
 0001:00110410       ?OnNotifyTabletMode@SPGhost@@QAEH_N@Z 00511410 f   sp_ghost.obj
 0001:001104d0       ?OnNotifyDarkTheme@SPGhost@@QAEH_N@Z 005114d0 f   sp_ghost.obj
 0001:00110590       ?OnDisplayChange@SPGhost@@QAEHH@Z 00511590 f   sp_ghost.obj
 0001:00110810       ?OnLanguageChange@SPGhost@@QAEHH@Z 00511810 f   sp_ghost.obj
 0001:00110a40       ?OnFileDrop@SPGhost@@QAEHHPBG@Z 00511a40 f   sp_ghost.obj
 0001:00110b70       ?NotifyTimeChangeEvent@SPGhost@@QAE_NPAGKK_N@Z 00511b70 f   sp_ghost.obj
 0001:00110cf0       ?OnTimeChange@SPGhost@@QAE_N_NKK0@Z 00511cf0 f   sp_ghost.obj
 0001:00110e20       ?OnNotifyEventThread@SPGhost@@QAE_NPAGPAPAGHKKK_N@Z 00511e20 f   sp_ghost.obj
 0001:00110ec0       ?OnNotifyEventThread@SPGhost@@QAE_NAAVSPShioriEvent@@KKK@Z 00511ec0 f   sp_ghost.obj
 0001:00110f60       ?OnNotifyEventThreadAllOther@SPGhost@@QAE_NAAVSPShioriEvent@@KKK@Z 00511f60 f   sp_ghost.obj
 0001:00111000       ?OnNotifyEvent@SPGhost@@QAE_NPAGPAPAGHKKK_N@Z 00512000 f   sp_ghost.obj
 0001:001110a0       ?OnNotifyEvent@SPGhost@@QAE_NAAVSPShioriEvent@@KKK@Z 005120a0 f   sp_ghost.obj
 0001:001112f0       ?OnNotifyEventAllOther@SPGhost@@QAE_NAAVSPShioriEvent@@KKK@Z 005122f0 f   sp_ghost.obj
 0001:00111320       ?GetStringBool@SPGhost@@QAE?AVSPGhostBoolResult@@PAGH@Z 00512320 f   sp_ghost.obj
 0001:00111390       ?GetString@SPGhost@@QAEPAGAAVSPShioriEvent@@_N@Z 00512390 f   sp_ghost.obj
 0001:001113b0       ?GetString@SPGhost@@QAEPAGPAG_N@Z 005123b0 f   sp_ghost.obj
 0001:00111430       ?GetStringThread@SPGhost@@QAEPAGAAVSPShioriEvent@@_N@Z 00512430 f   sp_ghost.obj
 0001:001114c0       ?PushSurfaceStatus@SPGhost@@QAEXXZ 005124c0 f   sp_ghost.obj
 0001:001114d0       ?HideSurfaceFromPushStatus@SPGhost@@QAEXXZ 005124d0 f   sp_ghost.obj
 0001:001114e0       ?PopSurfaceStatus@SPGhost@@QAEX_N@Z 005124e0 f   sp_ghost.obj
 0001:00111500       ?OnSurfaceRestore@SPGhost@@QAEHXZ 00512500 f   sp_ghost.obj
 0001:001116a0       ?SetSurfaceChar@SPGhost@@QAEHPBJKPAGHH@Z 005126a0 f   sp_ghost.obj
 0001:00111700       ?OnSurfaceChange@SPGhost@@QAEXHJJ@Z 00512700 f   sp_ghost.obj
 0001:001119d0       ?OnNotifyOtherGhost@SPGhost@@QAEHXZ 005129d0 f   sp_ghost.obj
 0001:001119e0       ?TalkBootMessage@SPGhost@@QAEXPAPAGK@Z 005129e0 f   sp_ghost.obj
 0001:00112620       ?GetChangeVanishScript@SPGhost@@QAE?AVSPShioriEventResult@@PAG0PAPAGH@Z 00513620 f   sp_ghost.obj
 0001:00112790       ?OnTeach@SPGhost@@QAEHPAG@Z 00513790 f   sp_ghost.obj
 0001:001127f0       ?GetUserNameA@SPGhost@@QAEPBGXZ 005137f0 f   sp_ghost.obj
 0001:00112830       ?GetGroupFlag@SPGhost@@QAEKXZ 00513830 f   sp_ghost.obj
 0001:00112850       ?SetGroupFlagOverride@SPGhost@@QAEXK@Z 00513850 f   sp_ghost.obj
 0001:00112880       ?SaveBindInfo@SPGhost@@QAEXXZ 00513880 f   sp_ghost.obj
 0001:001129b0       ?LoadBindInfo@SPGhost@@QAEXXZ 005139b0 f   sp_ghost.obj
 0001:00112a20       ?EnumShells@SPGhost@@UAEK_N@Z 00513a20 f   sp_ghost.obj
 0001:00112a90       ?GetInstalledShellList@SPGhost@@QAEXAAV?$JPtrArray@PAVSPShellProp@@@@_N@Z 00513a90 f   sp_ghost.obj
 0001:00112be0       ?GetCurrentShellProp@SPGhost@@QAEPAVSPShellProp@@XZ 00513be0 f   sp_ghost.obj
 0001:00112bf0       ?GetCurrentBalloonProp@SPGhost@@QAEPAVSPBalloonProp@@XZ 00513bf0 f   sp_ghost.obj
 0001:00112c10       ?GetGhostProp@SPGhost@@QAEPAVSPGhostProp@@XZ 00513c10 f   sp_ghost.obj
 0001:00112c30       ?SetCurrentShellIndex@SPGhost@@QAE_NJPAVSPShellProp@@@Z 00513c30 f   sp_ghost.obj
 0001:00112ca0       ?SetCurrentGhostIndex@SPGhost@@QAE_NJPAVSPGhostProp@@@Z 00513ca0 f   sp_ghost.obj
 0001:00112d80       ?SetCurrentBalloonIndex@SPGhost@@QAEXJPAVSPBalloonProp@@@Z 00513d80 f   sp_ghost.obj
 0001:00112dc0       ?CompareHash@SPGhost@@QBE_NPBE@Z 00513dc0 f   sp_ghost.obj
 0001:00112df0       ?AddCharBalloon@SPGhost@@QAEPAVSPBalloonWnd@@J@Z 00513df0 f   sp_ghost.obj
 0001:00112ef0       ?DeleteBalloons@SPGhost@@QAEXH@Z 00513ef0 f   sp_ghost.obj
 0001:00112fb0       ?PrepareToTalk@SPGhost@@AAE_NJ_N@Z 00513fb0 f   sp_ghost.obj
 0001:00113020       ?StartBalloonTest@SPGhost@@QAEX_N@Z 00514020 f   sp_ghost.obj
 0001:001130d0       ?EndBalloonTest@SPGhost@@QAEXXZ 005140d0 f   sp_ghost.obj
 0001:00113140       ?SetWaitingChoice@SPGhost@@QAEX_N@Z 00514140 f   sp_ghost.obj
 0001:00113170       ?SetWaitingXTag@SPGhost@@QAEX_N@Z 00514170 f   sp_ghost.obj
 0001:001131a0       ?ResetWaitingAll@SPGhost@@QAEXXZ 005141a0 f   sp_ghost.obj
 0001:001131c0       ?SendChoiceStateChange@SPGhost@@AAEXXZ 005141c0 f   sp_ghost.obj
 0001:001131e0       ?GetCharBalloon@SPGhost@@QAEPAVSPBalloonWnd@@J@Z 005141e0 f   sp_ghost.obj
 0001:00113210       ?GetCharBalloonHwnd@SPGhost@@QAEPAUHWND__@@J@Z 00514210 f   sp_ghost.obj
 0001:00113230       ?GetCharNum@SPGhost@@QAEKXZ 00514230 f   sp_ghost.obj
 0001:00113240       ?GetMainHwnd@SPGhost@@QAEPAUHWND__@@XZ 00514240 f   sp_ghost.obj
 0001:00113250       ?GetCharHwnd@SPGhost@@QAEPAUHWND__@@J@Z 00514250 f   sp_ghost.obj
 0001:00113270       ?GetGhostWindowVirtualDesktopGUID@SPGhost@@QAE_NAAU_GUID@@@Z 00514270 f   sp_ghost.obj
 0001:00113290       ?UpdateBalloonSelection@SPGhost@@QAEXXZ 00514290 f   sp_ghost.obj
 0001:00113330       ?ResetAllBalloonPos@SPGhost@@QAEXXZ 00514330 f   sp_ghost.obj
 0001:00113380       ?ResetAllBalloonFont@SPGhost@@QAEXXZ 00514380 f   sp_ghost.obj
 0001:001133b0       ?IsNoInterrupt@SPGhost@@QAE_NXZ 005143b0 f   sp_ghost.obj
 0001:001133d0       ?IsUpdating@SPGhost@@QAE_NXZ 005143d0 f   sp_ghost.obj
 0001:001133f0       ?IsBlockDND@SPGhost@@QAE_NXZ 005143f0 f   sp_ghost.obj
 0001:00113400       ?IsBalloonShouldVisible@SPGhost@@QAE_NXZ 00514400 f   sp_ghost.obj
 0001:00113410       ?AddNoInterruptFlag@SPGhost@@QAEXW4SPGhost_NoInterruput_ExecSource@@K@Z 00514410 f   sp_ghost.obj
 0001:00113430       ?RemoveNoInterruptFlag@SPGhost@@QAEXW4SPGhost_NoInterruput_ExecSource@@K@Z 00514430 f   sp_ghost.obj
 0001:00113460       ?UpdateNoInterruptFlag@SPGhost@@AAEXXZ 00514460 f   sp_ghost.obj
 0001:00113490       ?ResetNoInterruptFlag@SPGhost@@QAEXXZ 00514490 f   sp_ghost.obj
 0001:001134b0       ?IsLocked@SPGhost@@QAEPBGXZ 005144b0 f   sp_ghost.obj
 0001:001134f0       ?IsMatch@SPGhost@@QAEHPBG00@Z 005144f0 f   sp_ghost.obj
 0001:001135b0       ?SetWallPaper@SPGhost@@QAEHPAG0@Z 005145b0 f   sp_ghost.obj
 0001:00113a60       ?MakeFullPath@SPGhost@@QAEXAAVJWString@@PAG@Z 00514a60 f   sp_ghost.obj
 0001:00113fa0       ?FindGhostFileFromRelPath@SPGhost@@QAEHAAVJWString@@PBG@Z 00514fa0 f   sp_ghost.obj
 0001:00114190       ?IsBalloonMoveable@SPGhost@@QAE_NJ@Z 00515190 f   sp_ghost.obj
 0001:001141e0       ?LoadSettings@SPGhost@@AAEXXZ 005151e0 f   sp_ghost.obj
 0001:001143a0       ?ReloadSettings@SPGhost@@QAEXXZ 005153a0 f   sp_ghost.obj
 0001:001146c0       ?IsShellProfile@SPGhost@@SA_NPBD@Z 005156c0 f   sp_ghost.obj
 0001:00114700       ?ResetSettings@SPGhost@@QAEXXZ 00515700 f   sp_ghost.obj
 0001:001147c0       ?SuspendGhost@SPGhost@@QAEXXZ 005157c0 f   sp_ghost.obj
 0001:001147e0       ?ResumeGhost@SPGhost@@QAEXXZ 005157e0 f   sp_ghost.obj
 0001:00114810       ?VarGet@SPGhost@@UAE_NPAV1@PAGAAVJWString@@PAVSPVarSystemNode@@@Z 00515810 f   sp_ghost.obj
 0001:001150e0       ??1SPPropListNode@@UAE@XZ  005160e0 f i sp_ghost.obj
 0001:00115130       ??_ESPPropListNode@@UAEPAXI@Z 00516130 f i sp_ghost.obj
 0001:00115130       ??_GSPPropListNode@@UAEPAXI@Z 00516130 f i sp_ghost.obj
 0001:00115160       ?VarSet@SPGhost@@UAE_NPAV1@PAG1PAVSPVarSystemNode@@@Z 00516160 f   sp_ghost.obj
 0001:00115660       ?GetActiveHeadline@SPGhost@@QAEPAVSPHeadline@@XZ 00516660 f   sp_ghost.obj
 0001:00115690       ?StartOnline@SPGhost@@QAEX_N@Z 00516690 f   sp_ghost.obj
 0001:001156d0       ?ResetOnline@SPGhost@@QAEXXZ 005166d0 f   sp_ghost.obj
 0001:001156f0       ?EndOnline@SPGhost@@QAEXXZ 005166f0 f   sp_ghost.obj
 0001:00115720       ?SetProgress@SPGhost@@QAEXPAGHH@Z 00516720 f   sp_ghost.obj
 0001:00115750       ?ClearProgress@SPGhost@@QAEXXZ 00516750 f   sp_ghost.obj
 0001:00115770       ?CacheSuspend@SPGhost@@QAEHXZ 00516770 f   sp_ghost.obj
 0001:001158a0       ?CacheRestore@SPGhost@@QAEHH@Z 005168a0 f   sp_ghost.obj
 0001:001159c0       ?ResetDataCache@SPGhost@@QAEXXZ 005169c0 f   sp_ghost.obj
 0001:001159d0       ?SetAlignAll@SPGhost@@AAEXXZ 005169d0 f   sp_ghost.obj
 0001:00115a10       ?SPGhost_GetDefaultCharset@@YAPBDAAVSPSettings@@PBD@Z 00516a10 f   sp_ghost.obj
 0001:00115a40       ?LoadModuleCharset@SPGhost@@QAEX_N@Z 00516a40 f   sp_ghost.obj
 0001:00115b30       ?GetActivateSetting@SPGhost@@SAIPBG@Z 00516b30 f   sp_ghost.obj
 0001:00115b90       ?GetActivateSetting@SPGhost@@SAPBGI@Z 00516b90 f   sp_ghost.obj
 0001:00115bc0       ?OnNotifyOnline@SPGhost@@QAEXXZ 00516bc0 f   sp_ghost.obj
 0001:00115df0       ?GetSelectModeAll@SPGhost@@QAEIXZ 00516df0 f   sp_ghost.obj
 0001:00115e30       ?SPCNotify@SPGhost@@UAE_NKPAPAXK@Z 00516e30 f   sp_ghost.obj
 0001:00115eb0       ?AddStatusLog@SPGhost@@QAEXPBG@Z 00516eb0 f   sp_ghost.obj
 0001:00116050       ??0SPScriptQueueData@@AAE@XZ 00517050 f   sp_ghost.obj
 0001:001161a0       ?Clear@SPScriptQueueData@@QAEXXZ 005171a0 f   sp_ghost.obj
 0001:00116420       ??1SPCommunicateData@@QAE@XZ 00517420 f i sp_ghost.obj
 0001:00116470       ??1SPScriptQueueData@@AAE@XZ 00517470 f   sp_ghost.obj
 0001:00116560       ??A?$JPtrArray@PAVSPGhost@@@@QAEAAPAVSPGhost@@K@Z 00517560 f i sp_ghost.obj
 0001:00116560       ??A?$JArray@J@@QAEAAJK@Z   00517560 f i sp_ghost.obj
 0001:00116570       ??0?$JArray@PAVSPProp@@@@QAE@ABV0@@Z 00517570 f i sp_ghost.obj
 0001:00116670       ??1?$SPCacheObj@VSPScriptQueueData@@VJDummyLockSection@@VJDummyLock@@@@QAE@XZ 00517670 f i sp_ghost.obj
 0001:00116740       ?Delete@?$SPCacheObj@VSPScriptQueueData@@VJDummyLockSection@@VJDummyLock@@@@QAEXPAVSPScriptQueueData@@@Z 00517740 f i sp_ghost.obj
 0001:00116860       ?DeleteArray@?$SPCacheObj@VSPScriptQueueData@@VJDummyLockSection@@VJDummyLock@@@@QAEXAAV?$JPtrArray@PAVSPScriptQueueData@@@@@Z 00517860 f i sp_ghost.obj
 0001:00116930       ??0?$JPtrArray@PAVSPScriptQueueData@@@@QAE@J@Z 00517930 f i sp_ghost.obj
 0001:00116990       ??1?$SPCacheObj@VSPGhostRaiseBlock@@VJDummyLockSection@@VJDummyLock@@@@QAE@XZ 00517990 f i sp_ghost.obj
 0001:00116a60       ?New@?$SPCacheObj@VSPGhostRaiseBlock@@VJDummyLockSection@@VJDummyLock@@@@QAEPAVSPGhostRaiseBlock@@XZ 00517a60 f i sp_ghost.obj
 0001:00116be0       ??0?$JPtrArray@PAVSPFolderListData@@@@QAE@J@Z 00517be0 f i sp_ghost.obj
 0001:00116c40       ??0?$SPCacheObj@VSPRecommendProp@@VJDummyLockSection@@VJDummyLock@@@@QAE@K@Z 00517c40 f i sp_ghost.obj
 0001:00116c90       ??1?$SPCacheObj@VSPRecommendProp@@VJDummyLockSection@@VJDummyLock@@@@QAE@XZ 00517c90 f i sp_ghost.obj
 0001:00116d60       ?New@?$SPCacheObj@VSPRecommendProp@@VJDummyLockSection@@VJDummyLock@@@@QAEPAVSPRecommendProp@@XZ 00517d60 f i sp_ghost.obj
 0001:00116ee0       ?DeleteArray@?$SPCacheObj@VSPRecommendProp@@VJDummyLockSection@@VJDummyLock@@@@QAEXAAV?$JPtrArray@PAVSPRecommendProp@@@@@Z 00517ee0 f i sp_ghost.obj
 0001:00117050       ??0SPGhostRaiseBlock@@QAE@XZ 00518050 f i sp_ghost.obj
 0001:00117110       ??1SPGhostRaiseBlock@@QAE@XZ 00518110 f i sp_ghost.obj
 0001:00117140       ??1SPRecommendProp@@QAE@XZ 00518140 f i sp_ghost.obj
 0001:001171b0       ?CalcHash@?$JHash@D@@AAEKPBD@Z 005181b0 f i sp_ghost.obj
 0001:00117220       ?Release@?$SPCacheObj@VSPScriptQueueData@@VJDummyLockSection@@VJDummyLock@@@@QAEXXZ 00518220 f i sp_ghost.obj
 0001:001172e0       ?Release@?$SPCacheObj@VSPGhostRaiseBlock@@VJDummyLockSection@@VJDummyLock@@@@QAEXXZ 005182e0 f i sp_ghost.obj
 0001:001173d0       ??0?$JPtrArray@PAVSPGhostRaiseBlock@@@@QAE@J@Z 005183d0 f i sp_ghost.obj
 0001:00117430       ?Get@?$SPSparsePtrArrayDef@PAVSPAnimeBase@@@@QAEPAVSPAnimeBase@@K@Z 00518430 f i sp_ghost.obj
 0001:00117470       ?Insert@?$JArray@PAX@@QAEXJPBQAXJ@Z 00518470 f i sp_ghost.obj
 0001:001175c0       ?ShiftLeft@?$JArray@PAX@@QAEXJJ@Z 005185c0 f i sp_ghost.obj
 0001:00117630       ?Search@?$JArray@PAX@@QBEJABQAXJ@Z 00518630 f i sp_ghost.obj
 0001:00117630       ?Search@?$JArray@J@@QBEJABJJ@Z 00518630 f i sp_ghost.obj
 0001:00117670       ?SetNumNoPurge@?$JArray@J@@QAEXK_N@Z 00518670 f i sp_ghost.obj
 0001:00117670       ?SetNumNoPurge@?$JArray@H@@QAEXK_N@Z 00518670 f i sp_ghost.obj
 0001:00117670       ?SetNumNoPurge@?$JArray@PAX@@QAEXK_N@Z 00518670 f i sp_ghost.obj
 0001:00117670       ?SetNumNoPurge@?$JArray@K@@QAEXK_N@Z 00518670 f i sp_ghost.obj
 0001:00117670       ?SetNumNoPurge@?$JArray@PAVSPProp@@@@QAEXK_N@Z 00518670 f i sp_ghost.obj
 0001:001176d0       ?_Sort@std@@YAXPAPAVSPShellProp@@0U?$JArray_PointerPred@PAVSPShellProp@@@@0@Z 005186d0 f i sp_ghost.obj
 0001:00117800       ??_ESPShellProp@@O3AEPAXI@Z 00518800 f i sp_ghost.obj
 0001:00117810       ??_ESPGhost@@O7AEPAXI@Z    00518810 f i sp_ghost.obj
 0001:00117820       ??_ESPGhost@@OEE@AEPAXI@Z  00518820 f i sp_ghost.obj
 0001:00117830       ??_ESPGhost@@OEI@AEPAXI@Z  00518830 f i sp_ghost.obj
 0001:00117840       ?GetSPGhostDlgHWndManager@@YAAAVSPGhostDlgHWndManager@@XZ 00518840 f   sp_ghost_dlg_hwnd.obj
 0001:001178d0       ??0SPGhostDlgHWndManager@@AAE@XZ 005188d0 f   sp_ghost_dlg_hwnd.obj
 0001:00117930       ??_GSPGhostDlgHWndManager@@UAEPAXI@Z 00518930 f i sp_ghost_dlg_hwnd.obj
 0001:00117930       ??_ESPGhostDlgHWndManager@@UAEPAXI@Z 00518930 f i sp_ghost_dlg_hwnd.obj
 0001:00117960       ??1SPGhostDlgHWndManager@@UAE@XZ 00518960 f   sp_ghost_dlg_hwnd.obj
 0001:00117a40       ?Add@SPGhostDlgHWndManager@@QAEKPAVSPGhost@@PBG@Z 00518a40 f   sp_ghost_dlg_hwnd.obj
 0001:00117c80       ?Release@SPGhostDlgHWndManager@@QAEXK@Z 00518c80 f   sp_ghost_dlg_hwnd.obj
 0001:00117d70       ?Delete@SPGhostDlgHWndManager@@AAEXPAX@Z 00518d70 f   sp_ghost_dlg_hwnd.obj
 0001:00117e20       ?Update@SPGhostDlgHWndManager@@AAEXPAX@Z 00518e20 f   sp_ghost_dlg_hwnd.obj
 0001:00117ed0       ?Close@SPGhostDlgHWndManager@@QAEXPAVSPGhost@@PBG@Z 00518ed0 f   sp_ghost_dlg_hwnd.obj
 0001:00118000       ?GetHookHandle@SPGhostDlgHWndManager@@QAEPAXK@Z 00519000 f   sp_ghost_dlg_hwnd.obj
 0001:001180a0       ?IsCancel@SPGhostDlgHWndManager@@QAE_NK@Z 005190a0 f   sp_ghost_dlg_hwnd.obj
 0001:00118140       ??0SPGhostLoader@@QAE@XZ   00519140 f   sp_ghostloader.obj
 0001:001181f0       ??_ESPGhostLoader@@UAEPAXI@Z 005191f0 f i sp_ghostloader.obj
 0001:001181f0       ??_GSPGhostLoader@@UAEPAXI@Z 005191f0 f i sp_ghostloader.obj
 0001:00118220       ??1SPGhostLoader@@UAE@XZ   00519220 f   sp_ghostloader.obj
 0001:00118330       ?Clear@SPGhostLoaderInfo@@QAEXXZ 00519330 f   sp_ghostloader.obj
 0001:00118470       ?ProcessCallTarget@SPGhostLoaderInfo@@QAEXXZ 00519470 f   sp_ghostloader.obj
 0001:001184b0       ??1SPGhostLoaderInfo@@AAE@XZ 005194b0 f   sp_ghostloader.obj
 0001:00118500       ?Loop@SPGhostLoader@@UAEHXZ 00519500 f   sp_ghostloader.obj
 0001:00118580       ?Exit@SPPop@@UAEHXZ        00519580 f   sp_ghostloader.obj
 0001:00118580       ?Exit@SPGhostLoader@@UAEHXZ 00519580 f   sp_ghostloader.obj
 0001:001185c0       ?ExitInstance@SPGhostLoader@@UAEXH@Z 005195c0 f   sp_ghostloader.obj
 0001:001185d0       ?LoadGhost@SPGhostLoader@@QAEHPAVSPGhostLoaderInfo@@@Z 005195d0 f   sp_ghostloader.obj
 0001:00118620       ?GhostLoadProc@SPGhostLoader@@AAEXPAVSPGhostLoaderInfo@@@Z 00519620 f   sp_ghostloader.obj
 0001:00118870       ?GhostLoadProcSub@SPGhostLoader@@AAE_NPAVSPGhostLoaderInfo@@@Z 00519870 f   sp_ghostloader.obj
 0001:00118b20       ?PlayMessenger@SPGhostLoader@@AAEXPAVSPGhostLoaderInfo@@PAVSPGhost@@H@Z 00519b20 f   sp_ghostloader.obj
 0001:00118c50       ?FinalCheck@SPGhostLoader@@QAEHXZ 00519c50 f   sp_ghostloader.obj
 0001:00118c80       ?FinalCheckExec@SPGhostLoader@@AAEXXZ 00519c80 f   sp_ghostloader.obj
 0001:00118d10       ??1?$SPCacheObj@VSPGhostLoaderInfo@@VJCriticalSection@@VJLock@@@@QAE@XZ 00519d10 f i sp_ghostloader.obj
 0001:00118e20       ?New@?$SPCacheObj@VSPGhostLoaderInfo@@VJCriticalSection@@VJLock@@@@QAEPAVSPGhostLoaderInfo@@XZ 00519e20 f i sp_ghostloader.obj
 0001:00118fc0       ??0SPGhostLoaderInfo@@AAE@XZ 00519fc0 f i sp_ghostloader.obj
 0001:001190a0       ?Reset@?$SPCacheObj@VSPGhostLoaderInfo@@VJCriticalSection@@VJLock@@@@QAEXXZ 0051a0a0 f i sp_ghostloader.obj
 0001:00119260       ?Delete@?$SPCacheObj@VSPGhostLoaderInfo@@VJCriticalSection@@VJLock@@@@QAEXPAVSPGhostLoaderInfo@@@Z 0051a260 f i sp_ghostloader.obj
 0001:001193a0       ?ParseParam@SPGhostMoveInfo@@QAEXPBG@Z 0051a3a0 f   sp_ghostmovemanager.obj
 0001:001196e0       ?Create@SPGhostMoveManagerInfo@@SAPAV1@PAVSPSerikoAnimation@@PAVSPGhostMoveInfo@@_N2@Z 0051a6e0 f   sp_ghostmovemanager.obj
 0001:00119810       ?CreateMe@SPGhostMoveManagerInfo@@QAE_NPAVSPSerikoAnimation@@PAVSPGhostMoveInfo@@_N2@Z 0051a810 f   sp_ghostmovemanager.obj
 0001:0011a350       ?Execute@SPGhostMoveManagerInfo@@QAEHPAVSPSerikoAnimation@@@Z 0051b350 f   sp_ghostmovemanager.obj
 0001:0011a440       ?SetWindowPosVirtualSticky@SPGhostMoveManagerInfo@@QAEXPAVSPSerikoAnimation@@JJ@Z 0051b440 f   sp_ghostmovemanager.obj
 0001:0011a4e0       ?Process@SPGhostMoveManager@@QAEJAAJ@Z 0051b4e0 f   sp_ghostmovemanager.obj
 0001:0011a6e0       ?CancelAll@SPGhostMoveManager@@QAEXXZ 0051b6e0 f   sp_ghostmovemanager.obj
 0001:0011a750       ??1SPGhostMoveManagerInfo@@QAE@XZ 0051b750 f i sp_ghostmovemanager.obj
 0001:0011a7c0       ?Execute@SPGhostMoveManager@@QAE_NPAVSPGhostMoveInfo@@_N1@Z 0051b7c0 f   sp_ghostmovemanager.obj
 0001:0011a9c0       ?CalcMinimumTime@SPGhostMoveManager@@AAEXXZ 0051b9c0 f   sp_ghostmovemanager.obj
 0001:0011a9f0       ??0SPHeadline@@QAE@XZ      0051b9f0 f   sp_headline.obj
 0001:0011ad50       ?GetLogEnable@SPModule@@UAE_NXZ 0051bd50 f i sp_headline.obj
 0001:0011ad60       ?Lock@SPModule@@UAE_NJ@Z   0051bd60 f i sp_headline.obj
 0001:0011ad80       ?Unlock@SPModule@@UAEXXZ   0051bd80 f i sp_headline.obj
 0001:0011ad90       ?Name@SPHeadline@@UAEPBGXZ 0051bd90 f i sp_headline.obj
 0001:0011ad90       ?GetModuleDesc@SPHeadline@@UAEPBGXZ 0051bd90 f i sp_headline.obj
 0001:0011ada0       ?GetLogFileName@SPHeadline@@UAEPBGXZ 0051bda0 f i sp_headline.obj
 0001:0011adb0       ?GetTypeString@SPHeadline@@UAEPBGXZ 0051bdb0 f i sp_headline.obj
 0001:0011adc0       ??_ESPHeadline@@MAEPAXI@Z  0051bdc0 f i sp_headline.obj
 0001:0011adc0       ??_GSPHeadline@@MAEPAXI@Z  0051bdc0 f i sp_headline.obj
 0001:0011adf0       ??1SPHeadline@@MAE@XZ      0051bdf0 f   sp_headline.obj
 0001:0011b090       ?VarGet@SPHeadline@@UAE_NPAVSPGhost@@PAGAAVJWString@@PAVSPVarSystemNode@@@Z 0051c090 f   sp_headline.obj
 0001:0011b110       ?VarSet@SPHeadline@@UAE_NPAVSPGhost@@PAG1PAVSPVarSystemNode@@@Z 0051c110 f   sp_headline.obj
 0001:0011b130       ?Load@SPHeadline@@QAEHPBG@Z 0051c130 f   sp_headline.obj
 0001:0011b3a0       ?Unload@SPHeadline@@QAEXXZ 0051c3a0 f   sp_headline.obj
 0001:0011b3d0       ?LoadScript@SPHeadline@@QAEHXZ 0051c3d0 f   sp_headline.obj
 0001:0011b730       ?ReadDescript@SPHeadline@@UAEHXZ 0051c730 f   sp_headline.obj
 0001:0011be60       ?Execute@SPHeadline@@QAE_NPAVSPGhost@@H@Z 0051ce60 f   sp_headline.obj
 0001:0011c050       ?SPCNotify@SPHeadline@@UAE_NKPAPAXK@Z 0051d050 f   sp_headline.obj
 0001:0011c090       ?CloseConnection@SPHeadline@@AAEXXZ 0051d090 f   sp_headline.obj
 0001:0011c0b0       ?ExecuteNext@SPHeadline@@QAE_NPAVSPGhost@@@Z 0051d0b0 f   sp_headline.obj
 0001:0011c0f0       ?ExecuteOld@SPHeadline@@QAE_NPAVSPGhost@@@Z 0051d0f0 f   sp_headline.obj
 0001:0011c130       ?SplitOldData@SPHeadline@@AAEHPAVSPStaticStringArrayW@@00PAG@Z 0051d130 f   sp_headline.obj
 0001:0011c1f0       ?GetHeadline@SPHeadline@@AAEHPAVSPStaticStringArrayW@@00PBG@Z 0051d1f0 f   sp_headline.obj
 0001:0011c6c0       ?GetVersionRequestImpl@SPHeadline@@EAEHXZ 0051d6c0 f   sp_headline.obj
 0001:0011c800       ?ThreadProc@SPHeadline@@QAEHXZ 0051d800 f   sp_headline.obj
 0001:0011c920       ?ThreadProcSub@SPHeadline@@AAEXAAVJWString@@@Z 0051d920 f   sp_headline.obj
 0001:0011cdb0       ?ReadURL@SPHeadline@@AAEHPBG0@Z 0051ddb0 f   sp_headline.obj
 0001:0011cf10       ?Failure@SPHeadline@@AAEXPAG0@Z 0051df10 f   sp_headline.obj
 0001:0011d000       ?NotUpdated@SPHeadline@@AAEXXZ 0051e000 f   sp_headline.obj
 0001:0011d170       ?CheckSpecificDLL@SPHeadline@@AAEXH@Z 0051e170 f   sp_headline.obj
 0001:0011d310       ?PlayHeadline@SPHeadline@@AAE_NH@Z 0051e310 f   sp_headline.obj
 0001:0011e020       ??_ESPHeadline@@O3AEPAXI@Z 0051f020 f i sp_headline.obj
 0001:0011e030       ??_ESPHeadline@@OCII@AEPAXI@Z 0051f030 f i sp_headline.obj
 0001:0011e040       ??_ESPHeadline@@OIHE@AEPAXI@Z 0051f040 f i sp_headline.obj
 0001:0011e050       ??0SPHeadlineRSS@@QAE@XZ   0051f050 f   sp_headlinerss.obj
 0001:0011e150       ??1SPHeadlineRSS@@QAE@XZ   0051f150 f   sp_headlinerss.obj
 0001:0011e200       ?Release@SPHeadlineRSS@@QAEXXZ 0051f200 f   sp_headlinerss.obj
 0001:0011e3e0       ?Parse@SPHeadlineRSS@@QAEHPBG_N@Z 0051f3e0 f   sp_headlinerss.obj
 0001:0011e530       ?ParseJSON@SPHeadlineRSS@@AAEHPBD_N@Z 0051f530 f   sp_headlinerss.obj
 0001:0011eb10       ?ParseXML@SPHeadlineRSS@@AAEHPBD_N@Z 0051fb10 f   sp_headlinerss.obj
 0001:0011f3f0       ??1SPHeadlineRSSElement@@QAE@XZ 005203f0 f i sp_headlinerss.obj
 0001:0011f470       ?Sort@SPHeadlineRSS@@AAEXXZ 00520470 f   sp_headlinerss.obj
 0001:0011f4a0       ?JoinChildText@SPHeadlineRSS@@AAEXPBVXMLElement@tinyxml2@@AAVJWString@@1@Z 005204a0 f   sp_headlinerss.obj
 0001:0011f5b0       ?GetSingleText@SPHeadlineRSS@@AAEHPBVXMLNode@tinyxml2@@PAPBDIAAVJWString@@@Z 005205b0 f   sp_headlinerss.obj
 0001:0011f7d0       ?WriteError@SPHeadlineRSS@@AAEXAAVXMLDocument@tinyxml2@@PAG@Z 005207d0 f   sp_headlinerss.obj
 0001:0011f900       ?GetFeedData@SPHeadlineRSS@@QAEXPAVSPStaticStringArrayW@@00@Z 00520900 f   sp_headlinerss.obj
 0001:0011fac0       ?GetFeedData@SPHeadlineRSS@@QAEXAAVSPStaticStringArrayW@@@Z 00520ac0 f   sp_headlinerss.obj
 0001:0011fe50       ?SelectUpdateGhost@SPHeadlineRSS@@QAEXAAV?$JArray@K@@0AAVSPStaticStringArrayA@@@Z 00520e50 f   sp_headlinerss.obj
 0001:0011fff0       ?GetNodes@SPHeadlineRSS@@CAPBVXMLNode@tinyxml2@@PBV23@PBDAAV?$JPtrArray@PBVXMLNode@tinyxml2@@@@PAPBVXMLAttribute@3@H@Z 00520ff0 f   sp_headlinerss.obj
 0001:00120240       ?GetSingleNode@SPHeadlineRSS@@CAPBVXMLNode@tinyxml2@@PBV23@PBDPAPBVXMLAttribute@3@@Z 00521240 f   sp_headlinerss.obj
 0001:001202c0       ?_Stable_sort@std@@YAXPAPAVSPHeadlineRSSElement@@0PAH0U?$JArray_PointerPred@PAVSPHeadlineRSSElement@@@@@Z 005212c0 f i sp_headlinerss.obj
 0001:00120490       ?_Stable_sort@std@@YAXPAPAVSPHeadlineRSSElement@@0HAAV?$_Temp_iterator@PAVSPHeadlineRSSElement@@@1@U?$JArray_PointerPred@PAVSPHeadlineRSSElement@@@@@Z 00521490 f i sp_headlinerss.obj
 0001:001207b0       ?_Buffered_merge_sort@std@@YAXPAPAVSPHeadlineRSSElement@@0HAAV?$_Temp_iterator@PAVSPHeadlineRSSElement@@@1@U?$JArray_PointerPred@PAVSPHeadlineRSSElement@@@@@Z 005217b0 f i sp_headlinerss.obj
 0001:00120a30       ?_Buffered_merge@std@@YAXPAPAVSPHeadlineRSSElement@@00HHAAV?$_Temp_iterator@PAVSPHeadlineRSSElement@@@1@U?$JArray_PointerPred@PAVSPHeadlineRSSElement@@@@@Z 00521a30 f i sp_headlinerss.obj
 0001:00120e00       ??0?$_Temp_iterator@PAVSPHeadlineRSSElement@@@std@@QAE@ABV01@@Z 00521e00 f i sp_headlinerss.obj
 0001:00120e00       ??0?$_Temp_iterator@PAVSPBindEntry@@@std@@QAE@ABV01@@Z 00521e00 f i sp_headlinerss.obj
 0001:00120e20       ?_Insertion_sort_1@std@@YAXPAPAVSPHeadlineRSSElement@@0U?$JArray_PointerPred@PAVSPHeadlineRSSElement@@@@0@Z 00521e20 f i sp_headlinerss.obj
 0001:00120ea0       ?_Chunked_merge@std@@YAXPAPAVSPHeadlineRSSElement@@0AAV?$_Temp_iterator@PAVSPHeadlineRSSElement@@@1@HHU?$JArray_PointerPred@PAVSPHeadlineRSSElement@@@@@Z 00521ea0 f i sp_headlinerss.obj
 0001:00120fb0       ?_Chunked_merge@std@@YAXPAPAVSPHeadlineRSSElement@@0AAPAPAV2@HHU?$JArray_PointerPred@PAVSPHeadlineRSSElement@@@@@Z 00521fb0 f i sp_headlinerss.obj
 0001:00121100       ?copy@std@@YA?AV?$_Temp_iterator@PAVSPBindEntry@@@1@PAPAVSPBindEntry@@0V21@@Z 00522100 f i sp_headlinerss.obj
 0001:00121100       ?copy@std@@YA?AV?$_Temp_iterator@PAVSPHeadlineRSSElement@@@1@PAPAVSPHeadlineRSSElement@@0V21@@Z 00522100 f i sp_headlinerss.obj
 0001:00121180       ?merge@std@@YAPAPAVSPHeadlineRSSElement@@PAPAV2@0000U?$JArray_PointerPred@PAVSPHeadlineRSSElement@@@@@Z 00522180 f i sp_headlinerss.obj
 0001:00121200       ?_Unguarded_insert@std@@YAXPAPAVSPHeadlineRSSElement@@PAV2@U?$JArray_PointerPred@PAVSPHeadlineRSSElement@@@@@Z 00522200 f i sp_headlinerss.obj
 0001:00121250       ?merge@std@@YA?AV?$_Temp_iterator@PAVSPHeadlineRSSElement@@@1@PAPAVSPHeadlineRSSElement@@000V21@U?$JArray_PointerPred@PAVSPHeadlineRSSElement@@@@@Z 00522250 f i sp_headlinerss.obj
 0001:00121360       ?copy@std@@YAPAPAVSPHeadlineRSSElement@@PAPAV2@00@Z 00522360 f i sp_headlinerss.obj
 0001:00121360       ?copy@std@@YAPAPAVSPBindEntry@@PAPAV2@00@Z 00522360 f i sp_headlinerss.obj
 0001:00121390       ?_Lower_bound@std@@YAPAPAVSPHeadlineRSSElement@@PAPAV2@0ABQAV2@U?$JArray_PointerPred@PAVSPHeadlineRSSElement@@@@PAH@Z 00522390 f i sp_headlinerss.obj
 0001:001213e0       ?rotate@std@@YAXPAPAVSPBindEntry@@00@Z 005223e0 f i sp_headlinerss.obj
 0001:001213e0       ?rotate@std@@YAXPAPAVSPHeadlineRSSElement@@00@Z 005223e0 f i sp_headlinerss.obj
 0001:00121490       ?GetSPHistory@@YAAAVSPHistory@@XZ 00522490 f   sp_history.obj
 0001:00121650       ??_ESPHistory@@UAEPAXI@Z   00522650 f i sp_history.obj
 0001:00121650       ??_GSPHistory@@UAEPAXI@Z   00522650 f i sp_history.obj
 0001:00121680       ??1SPHistory@@UAE@XZ       00522680 f i sp_history.obj
 0001:00121890       ??_F?$JPtrArray@PAVJWString@@@@QAEXXZ 00522890 f i sp_history.obj
 0001:001218a0       ?Save@SPHistory@@QAEXH@Z   005228a0 f   sp_history.obj
 0001:00121930       ?SaveOne@SPHistory@@AAEXH@Z 00522930 f   sp_history.obj
 0001:00121a20       ?Load@SPHistory@@QAEXXZ    00522a20 f   sp_history.obj
 0001:00121cc0       ?GetGhost@SPHistory@@QAEPAVSPGhostProp@@K@Z 00522cc0 f   sp_history.obj
 0001:00121d60       ?Get@SPHistory@@QAEPAVSPProp@@W4SPHistoryID@@K@Z 00522d60 f   sp_history.obj
 0001:00121e70       ?Add@SPHistory@@QAEXW4SPHistoryID@@PAVSPProp@@@Z 00522e70 f   sp_history.obj
 0001:00122160       ?ValidateCache@SPHistory@@AAEXW4SPHistoryID@@@Z 00523160 f   sp_history.obj
 0001:00122370       ?SetHistoryNum@SPHistory@@QAEXK@Z 00523370 f   sp_history.obj
 0001:001223a0       ?UpdateHistoryNum@SPHistory@@QAEXXZ 005233a0 f   sp_history.obj
 0001:001224e0       ?VarGet@SPHistory@@UAE_NPAVSPGhost@@PAGAAVJWString@@PAVSPVarSystemNode@@@Z 005234e0 f   sp_history.obj
 0001:00122880       ?DeleteAllObject@?$JPtrArray@PAVJWString@@@@QAEXXZ 00523880 f i sp_history.obj
 0001:001228f0       ??_GJWString@@QAEPAXI@Z    005238f0 f i sp_history.obj
 0001:00122920       ??1?$JHashData@D@@QAE@XZ   00523920 f i sp_history.obj
 0001:00122960       ??_ESPHistory@@W3AEPAXI@Z  00523960 f i sp_history.obj
 0001:00122970       ?SetSSLVerify@SPHttp@@SAXH@Z 00523970 f   sp_http.obj
 0001:00122990       ?SetProxyAuth@SPHttp@@AAEXPBD0@Z 00523990 f   sp_http.obj
 0001:00122a50       ?SetConnectionAuth@SPHttp@@QAEXPBD0@Z 00523a50 f   sp_http.obj
 0001:00122aa0       ?SetCookie@SPHttp@@QAEXPBD@Z 00523aa0 f   sp_http.obj
 0001:00122ad0       ?Connect@SPHttp@@QAEHPBD@Z 00523ad0 f   sp_http.obj
 0001:00122c30       ?ConnectInternal@SPHttp@@QAEHPBD@Z 00523c30 f   sp_http.obj
 0001:00122ee0       ?Reconnect@SPHttp@@AAEHXZ  00523ee0 f   sp_http.obj
 0001:00123360       ?ErrorTextStatic@SPHttp@@SAPBGH@Z 00524360 f   sp_http.obj
 0001:00123410       ?ErrorText@SPHttp@@QAEPBGH@Z 00524410 f   sp_http.obj
 0001:00123440       ?Close@SPHttp@@QAEXH@Z     00524440 f   sp_http.obj
 0001:00123540       ?Break@SPHttp@@QAEXXZ      00524540 f   sp_http.obj
 0001:00123590       ?CloseInternal@SPHttp@@QAEXH@Z 00524590 f   sp_http.obj
 0001:001235e0       ?IsSocketError@SPHttp@@AAEHXZ 005245e0 f   sp_http.obj
 0001:00123620       ?SetIfModifiedSince@SPHttp@@QAEXPBG@Z 00524620 f   sp_http.obj
 0001:001236a0       ?RetryConnect@SPHttp@@AAEHPBGPBD1W4SPHttp_Method@@K1@Z 005246a0 f   sp_http.obj
 0001:00123760       ?ReadSimple@SPHttp@@QAEHPBGPBD1W4SPHttp_Method@@K1@Z 00524760 f   sp_http.obj
 0001:001237f0       ?ReadSimple@SPHttp@@QAEHPBG0PBDW4SPHttp_Method@@K1@Z 005247f0 f   sp_http.obj
 0001:001239d0       ?Read@SPHttp@@QAEHPBGPBD1W4SPHttp_Method@@K1@Z 005249d0 f   sp_http.obj
 0001:00123a80       ?WriteLog@SPHttp@@AAEXH@Z  00524a80 f   sp_http.obj
 0001:00123e20       ?RealReadCreateStreamFilter@SPHttp@@AAEPAVSPStreamFilter@@AAVJString@@@Z 00524e20 f   sp_http.obj
 0001:00124180       ?RealRead@SPHttp@@AAEHPBGPBD1W4SPHttp_Method@@K1@Z 00525180 f   sp_http.obj
 0001:00126420       ?RealReadHeader@SPHttp@@AAE_NAAVJString@@@Z 00527420 f   sp_http.obj
 0001:001265b0       ?RealReadContent@SPHttp@@AAEHPAVSPStreamFilter@@PBGPAVJStream@@_NK@Z 005275b0 f   sp_http.obj
 0001:00126910       ?SetFlag@SPHttp@@AAEXIH@Z  00527910 f   sp_http.obj
 0001:00126950       ?CallNotifyProc@SPHttp@@AAEXXZ 00527950 f   sp_http.obj
 0001:001269b0       ?ExecAuth@SPHttp@@AAEHPBGPADK@Z 005279b0 f   sp_http.obj
 0001:00126b80       ?MakeConnectionAuth@SPHttp@@AAEHPAD0@Z 00527b80 f   sp_http.obj
 0001:00126cf0       ?Redirect@SPHttp@@AAEHPBGPADK@Z 00527cf0 f   sp_http.obj
 0001:00127060       ?LastExtFromContentType@SPHttp@@QBEPBDXZ 00528060 f   sp_http.obj
 0001:00127340       ?LastHost@SPHttp@@QBEXAAVJString@@H@Z 00528340 f   sp_http.obj
 0001:001274e0       ?LastFullUrl@SPHttp@@QBEXAAVJWString@@_N11@Z 005284e0 f   sp_http.obj
 0001:00127630       ?LastFullUrl@SPHttp@@QBEXAAVJString@@_N11@Z 00528630 f   sp_http.obj
 0001:001277d0       ?LastFullUrlFrom@SPHttp@@QAEXAAVJString@@PBD@Z 005287d0 f   sp_http.obj
 0001:001278f0       ?GetProtocolScheme@SPHttp@@SAPADW4SPHttp_Type@@@Z 005288f0 f   sp_http.obj
 0001:00127920       ?IsRetriableErrorCode@SPHttp@@SA_NH@Z 00528920 f   sp_http.obj
 0001:001279a0       ?GetDefaultPort@SPHttp@@QBEHXZ 005289a0 f   sp_http.obj
 0001:001279c0       ?FileProtocolHandler@SPHttp@@AAEHPBGPBD@Z 005289c0 f   sp_http.obj
 0001:00127c20       ?DataProtocolHandler@SPHttp@@AAEHPBGPBD@Z 00528c20 f   sp_http.obj
 0001:00127f20       ?SPGhostProgressProc@@YAJPAXKK@Z 00528f20 f   sp_httputil.obj
 0001:00127f40       ?SPLoadIconFromFile@@YAPAUHICON__@@PBGHII@Z 00528f40 f   sp_iconloader.obj
 0001:00128440       ??0SPInitOnceImpl@@QAE@XZ  00529440 f i sp_initonce.obj
 0001:001284b0       ??1SPInitOnceImpl@@QAE@XZ  005294b0 f i sp_initonce.obj
 0001:00128520       ?GetSPInitOnce@@YAAAVSPInitOnceImpl@@XZ 00529520 f   sp_initonce.obj
 0001:00128530       ??0SPInitOnce@@QAE@XZ      00529530 f   sp_initonce.obj
 0001:001286d0       ??_GSPInitOnce@@UAEPAXI@Z  005296d0 f i sp_initonce.obj
 0001:001286d0       ??_ESPInitOnce@@UAEPAXI@Z  005296d0 f i sp_initonce.obj
 0001:00128700       ??1SPInitOnce@@UAE@XZ      00529700 f   sp_initonce.obj
 0001:001287d0       ?DeleteAll@SPInitOnceImpl@@QAEXXZ 005297d0 f   sp_initonce.obj
 0001:001288a0       ?SPInstallProc@@YAXPAVSPGhost@@PBG_N2@Z 005298a0 f   sp_install.obj
 0001:00128910       ?SPInstallProc@@YAXPAVSPGhost@@PAVSPMultiFile@@_N2@Z 00529910 f   sp_install.obj
 0001:001289d0       ??0SPInstaller@@QAE@PAVSPGhost@@PAVSPMultiFile@@_N@Z 005299d0 f   sp_install.obj
 0001:00128ac0       ??_ESPInstaller@@UAEPAXI@Z 00529ac0 f i sp_install.obj
 0001:00128ac0       ??_GSPInstaller@@UAEPAXI@Z 00529ac0 f i sp_install.obj
 0001:00128af0       ??1SPInstaller@@UAE@XZ     00529af0 f   sp_install.obj
 0001:00128be0       ?SPCNotify@SPInstaller@@UAE_NKPAPAXK@Z 00529be0 f   sp_install.obj
 0001:00128c10       ?Install@SPInstaller@@QAE_N_N@Z 00529c10 f   sp_install.obj
 0001:00128c80       ?ThreadProc@SPInstaller@@QAE_NXZ 00529c80 f   sp_install.obj
 0001:001298a0       ?InstallProc@SPInstaller@@AAE_NPBG@Z 0052a8a0 f   sp_install.obj
 0001:00129db0       ?KeiCallback@SPInstaller@@AAEHII@Z 0052adb0 f   sp_install.obj
 0001:00129e20       ?InstallProcCore@SPInstaller@@AAE_NPBGAAVJWString@@111111@Z 0052ae20 f   sp_install.obj
 0001:0012c870       ?CheckOverwrite@SPInstaller@@AAE_NAAVJWString@@PBG_NH@Z 0052d870 f   sp_install.obj
 0001:0012cea0       ?CheckSupplementAsShell@SPInstaller@@AAE_NPBG@Z 0052dea0 f   sp_install.obj
 0001:0012d1f0       ?InstallFiles@SPInstaller@@AAEXPBG0_NPAG@Z 0052e1f0 f   sp_install.obj
 0001:0012d2e0       ?InstallFilesMask@SPInstaller@@AAEXPBG0_NPAV?$JPtrArray@PAG@@@Z 0052e2e0 f   sp_install.obj
 0001:0012da70       ?UpdateResources@SPInstaller@@AAEHXZ 0052ea70 f   sp_install.obj
 0001:0012daa0       ?GetObjectName@SPInstaller@@AAEHAAVJWString@@0@Z 0052eaa0 f   sp_install.obj
 0001:0012dd90       ?GetObjectNameArray@SPInstaller@@AAEHAAVJWString@@0@Z 0052ed90 f   sp_install.obj
 0001:0012deb0       ?GetSourceAndTarget@SPInstaller@@AAEHABVSPSettings@@PBDIABVJWString@@AAV3@3PBG3@Z 0052eeb0 f   sp_install.obj
 0001:0012ee70       ??4?$JArray@G@@QAEAAV0@ABV0@@Z 0052fe70 f i sp_install.obj
 0001:0012efe0       ?Complete@SPInstallEvent@@QAEHPAPAGHPAG@Z 0052ffe0 f   sp_installevent.obj
 0001:0012f3a0       ?Refuse@SPInstallEvent@@QAEHPAPAGH@Z 005303a0 f   sp_installevent.obj
 0001:0012f590       ?Failure@SPInstallEvent@@QAEHPAPAGH@Z 00530590 f   sp_installevent.obj
 0001:0012f660       ?Begin@SPInstallEvent@@QAEHPAPAGH@Z 00530660 f   sp_installevent.obj
 0001:0012f730       ??0SPIPMessenger@@QAE@XZ   00530730 f   sp_ipmsgr.obj
 0001:0012f8a0       ??1SPIPMessenger@@QAE@XZ   005308a0 f   sp_ipmsgr.obj
 0001:0012f990       ?Open@SPIPMessenger@@QAEHPAUHWND__@@@Z 00530990 f   sp_ipmsgr.obj
 0001:0012fa70       ?Close@SPIPMessenger@@QAEXXZ 00530a70 f   sp_ipmsgr.obj
 0001:0012faf0       ?ReleaseBroadcastAddr@SPIPMessenger@@AAEXXZ 00530af0 f   sp_ipmsgr.obj
 0001:0012fba0       ?Send@SPIPMessenger@@AAEHHVJSockAddr@@AAVSPIPMessengerMsgData@@_N@Z 00530ba0 f   sp_ipmsgr.obj
 0001:0012fc90       ?SendToHelperFunc@SPIPMessenger@@AAEHABVJSockAddr@@HPBDK@Z 00530c90 f   sp_ipmsgr.obj
 0001:0012fcf0       ?SendBroadcast@SPIPMessenger@@AAEHHAAVSPIPMessengerMsgData@@_N@Z 00530cf0 f   sp_ipmsgr.obj
 0001:0012fe70       ?MakeMsg@SPIPMessenger@@AAEHAAV?$JArray@D@@AAVSPIPMessengerMsgData@@_N@Z 00530e70 f   sp_ipmsgr.obj
 0001:00130220       ?ProcReceive@SPIPMessenger@@QAEHKK@Z 00531220 f   sp_ipmsgr.obj
 0001:001309d0       ?MessageRecv@SPIPMessenger@@QAEXPBDABVJSockAddr@@_N@Z 005319d0 f   sp_ipmsgr.obj
 0001:00130b70       ?MessageSend@SPIPMessenger@@QAEHPAVSPMessengerUser@@PBG@Z 00531b70 f   sp_ipmsgr.obj
 0001:00130c90       ?SendMyProperty@SPIPMessenger@@AAEHHABVJSockAddr@@KH@Z 00531c90 f   sp_ipmsgr.obj
 0001:00130ee0       ?ScriptToMsg@SPIPMessenger@@QAEHAAVJWString@@PBG@Z 00531ee0 f   sp_ipmsgr.obj
 0001:001310a0       ?SavePref@SPIPMessenger@@QAEXXZ 005320a0 f   sp_ipmsgr.obj
 0001:00131190       ?LoadPref@SPIPMessenger@@QAEXXZ 00532190 f   sp_ipmsgr.obj
 0001:001314d0       ?InitBroadcastAddr@SPIPMessenger@@QAEXXZ 005324d0 f   sp_ipmsgr.obj
 0001:00131690       ?AddBroadcastAddr@SPIPMessenger@@QAEXPAD@Z 00532690 f   sp_ipmsgr.obj
 0001:00131840       ?DelBroadcastAddr@SPIPMessenger@@QAEXJ@Z 00532840 f   sp_ipmsgr.obj
 0001:00131a00       ?Realloc@?$JArray@VJSockAddr@@@@QAE_NK@Z 00532a00 f i sp_ipmsgr.obj
 0001:00131b00       ?SPKeiCallbackFilterFunc@@YAHPBGHPAX@Z 00532b00 f   sp_kei.obj
 0001:00131b20       ?SPKeiCallbackPasswordFunc@@YAHPADIHPAX@Z 00532b20 f   sp_kei.obj
 0001:00131b40       ??0SPKeiArchiver@@QAE@XZ   00532b40 f   sp_kei.obj
 0001:00131b70       ?Extract@SPKeiArchiver@@QAEHPBG00H@Z 00532b70 f   sp_kei.obj
 0001:00131be0       ?JZIPCheckArchiveHeader@SPKeiArchiver@@AAEPBGPBD@Z 00532be0 f   sp_kei.obj
 0001:00131c70       ?JZIPIsSelfUnpack@SPKeiArchiver@@AAEPBGPBGPAK@Z 00532c70 f   sp_kei.obj
 0001:00131eb0       ?JZIPExtract@SPKeiArchiver@@AAEHPBG00H@Z 00532eb0 f   sp_kei.obj
 0001:00131fc0       ?JZIPExtractReal@SPKeiArchiver@@AAEHPBG00HI@Z 00532fc0 f   sp_kei.obj
 0001:001323f0       ?Unpack@SPKeiArchiver@@AAEHPBG00H@Z 005333f0 f   sp_kei.obj
 0001:00132610       ?ZipUnpack@SPKeiArchiver@@AAEHPBG00HK@Z 00533610 f   sp_kei.obj
 0001:00132a00       ?ZipUnpackReal@SPKeiArchiver@@AAEHAAVCUnzipper@@PBG11HKPAPBDAAH@Z 00533a00 f   sp_kei.obj
 0001:00132b40       ?LhaUnpackCallback@SPKeiArchiver@@AAEHPAX@Z 00533b40 f   sp_kei.obj
 0001:00132bc0       ?LhaCheckCallback@SPKeiArchiver@@AAEHPAX@Z 00533bc0 f   sp_kei.obj
 0001:00132c00       ?LhaUnpack@SPKeiArchiver@@AAEHPBG00H@Z 00533c00 f   sp_kei.obj
 0001:00132de0       ?LhaPeekNarInstall@SPKeiArchiver@@AAEHPBGAAV?$JArray@D@@1@Z 00533de0 f   sp_kei.obj
 0001:00133020       ?CabExtractCallback@SPKeiArchiver@@AAEIPAXIII@Z 00534020 f   sp_kei.obj
 0001:001333b0       ?CabInfoCallback@SPKeiArchiver@@AAEIPAXIII@Z 005343b0 f   sp_kei.obj
 0001:001333f0       ?CabCheckCallback@SPKeiArchiver@@AAEIPAXIII@Z 005343f0 f   sp_kei.obj
 0001:00133700       ?CabUnpack@SPKeiArchiver@@AAEHPBG00H@Z 00534700 f   sp_kei.obj
 0001:001338a0       ?CabPeekNarInstall@SPKeiArchiver@@AAEHPBGAAV?$JArray@D@@1@Z 005348a0 f   sp_kei.obj
 0001:00133d20       ??0SPKeiCabExtractInfo@@QAE@PAVSPKeiArchiver@@@Z 00534d20 f i sp_kei.obj
 0001:00133d60       ??1SPKeiCabPeekInfo@@QAE@XZ 00534d60 f i sp_kei.obj
 0001:00133df0       ?ExeUnpack@SPKeiArchiver@@AAEHPBG00H@Z 00534df0 f   sp_kei.obj
 0001:00134190       ?CanExtract@SPKeiArchiver@@QAEHPBG@Z 00535190 f   sp_kei.obj
 0001:001341c0       ?CanExtractExtension@SPKeiArchiver@@QAEHPBG@Z 005351c0 f   sp_kei.obj
 0001:00134210       ?CanExtractBuffer@SPKeiArchiver@@QAEHPBD@Z 00535210 f   sp_kei.obj
 0001:00134230       ?CanExtractExtensionList@SPKeiArchiver@@QAEPBGXZ 00535230 f   sp_kei.obj
 0001:00134240       ?Compress@SPKeiArchiver@@QAEHPBG00H@Z 00535240 f   sp_kei.obj
 0001:001342b0       ?JZIPCompress@SPKeiArchiver@@AAEHPBG00H@Z 005352b0 f   sp_kei.obj
 0001:00134350       ?JZIPCompressReal@SPKeiArchiver@@AAEHPBG00H@Z 00535350 f   sp_kei.obj
 0001:001344e0       ?GetArchiveExtension@SPKeiArchiver@@AAEXPBGAAVJWString@@@Z 005354e0 f   sp_kei.obj
 0001:00134730       ?PeekNarInstall@SPKeiArchiver@@QAEHPBGAAV?$JArray@D@@1@Z 00535730 f   sp_kei.obj
 0001:00134c80       ?IsNar@SPKeiArchiver@@QAEHPAG@Z 00535c80 f   sp_kei.obj
 0001:00134dd0       ?ErrorDump@SPKeiArchiver@@AAEXPBGPBD@Z 00535dd0 f   sp_kei.obj
 0001:00134ed0       ?SetCallback@SPKeiArchiver@@QAEXP6AHIIPAX@Z0@Z 00535ed0 f   sp_kei.obj
 0001:00134ef0       ?SetCallbackFilter@SPKeiArchiver@@QAEXP6AHPBGHPAX@Z1@Z 00535ef0 f   sp_kei.obj
 0001:00134f20       ?SetCallbackPassword@SPKeiArchiver@@QAEXP6AHPADIHPAX@Z1@Z 00535f20 f   sp_kei.obj
 0001:00134f50       ?CallbackProgress@SPKeiArchiver@@AAEHHH@Z 00535f50 f   sp_kei.obj
 0001:00134fb0       ?CallbackFilter@SPKeiArchiver@@AAEHPBGH@Z 00535fb0 f   sp_kei.obj
 0001:00134fe0       ?CallbackPassword@SPKeiArchiver@@AAEHPADIH@Z 00535fe0 f   sp_kei.obj
 0001:00135020       ??0SPLogData@@QAE@PAVSPLogManagerCore@@PBG1I1@Z 00536020 f   sp_logdata.obj
 0001:00135150       ?GetTypeText@SPLogData@@UAEXAAVJWString@@@Z 00536150 f i sp_logdata.obj
 0001:00135270       ??_ESPLogData@@UAEPAXI@Z   00536270 f i sp_logdata.obj
 0001:00135270       ??_GSPLogData@@UAEPAXI@Z   00536270 f i sp_logdata.obj
 0001:001352a0       ??1SPLogData@@UAE@XZ       005362a0 f i sp_logdata.obj
 0001:00135310       ?NewSet@SPLogData@@AAEXPBG0I0@Z 00536310 f   sp_logdata.obj
 0001:001354a0       ?UpdateText@SPLogData@@AAEXPBG_N@Z 005364a0 f   sp_logdata.obj
 0001:00135630       ?Release@SPLogData@@QAEXXZ 00536630 f   sp_logdata.obj
 0001:00135780       ?GetRealText@SPLogData@@QAEXAAVJWString@@@Z 00536780 f   sp_logdata.obj
 0001:00135840       ?SetTime@SPLogData@@QAEXXZ 00536840 f   sp_logdata.obj
 0001:00135850       ?GetTime@SPLogData@@QAEXAAU_SYSTEMTIME@@@Z 00536850 f   sp_logdata.obj
 0001:00135880       ?VarGet@SPLogData@@UAE_NPAVSPGhost@@PAGAAVJWString@@PAVSPVarSystemNode@@@Z 00536880 f   sp_logdata.obj
 0001:00135960       ?GetTypeText@SPScriptLogData@@UAEXAAVJWString@@@Z 00536960 f   sp_logdata.obj
 0001:00135bc0       ?GetIconID@SPScriptLogData@@UAEHXZ 00536bc0 f   sp_logdata.obj
 0001:00135be0       ?GetTypeText@SPNetworkLogData@@UAEXAAVJWString@@@Z 00536be0 f   sp_logdata.obj
 0001:00135be0       ?GetTypeText@SPUpdateLogData@@UAEXAAVJWString@@@Z 00536be0 f   sp_logdata.obj
 0001:00135be0       ?GetTypeText@SPErrorLogData@@UAEXAAVJWString@@@Z 00536be0 f   sp_logdata.obj
 0001:00135c10       ?GetIconID@SPErrorLogData@@UAEHXZ 00536c10 f   sp_logdata.obj
 0001:00135c20       ?GetIconIDShared@SPErrorLogData@@SAHI@Z 00536c20 f   sp_logdata.obj
 0001:00135c80       ?LevelTextToNum@SPErrorLogData@@SAHPBD@Z 00536c80 f   sp_logdata.obj
 0001:00135d50       ?LevelNumToText@SPErrorLogData@@SAPBDI@Z 00536d50 f   sp_logdata.obj
 0001:00135db0       ?GetTypeText@SPStatusLogData@@UAEXAAVJWString@@@Z 00536db0 f   sp_logdata.obj
 0001:00135dd0       ?GetIconID@SPUpdateLogData@@UAEHXZ 00536dd0 f   sp_logdata.obj
 0001:00135df0       ?GetIconID@SPNetworkLogData@@UAEHXZ 00536df0 f   sp_logdata.obj
 0001:00135e10       ?Release@SPLogManagerCore@@QAEXXZ 00536e10 f   sp_logmanager.obj
 0001:00135eb0       ?SetNum@SPLogManagerCore@@QAEXI@Z 00536eb0 f   sp_logmanager.obj
 0001:00135ef0       ?Add@SPLogManagerCore@@QAEKPBG0I0@Z 00536ef0 f   sp_logmanager.obj
 0001:00136330       ?UpdateText@SPLogManagerCore@@QAE_NKPBG@Z 00537330 f   sp_logmanager.obj
 0001:00136410       ?Get@SPLogManagerCore@@QAEPAVSPLogData@@I@Z 00537410 f   sp_logmanager.obj
 0001:00136430       ?GetFromID@SPLogManagerCore@@QAEPAVSPLogData@@K@Z 00537430 f   sp_logmanager.obj
 0001:001364d0       ?VarGet@SPLogManagerCore@@MAE_NPAVSPGhost@@PAGAAVJWString@@PAVSPVarSystemNode@@@Z 005374d0 f   sp_logmanager.obj
 0001:001367d0       ?IsNotifyLevel@SPLogManagerCore@@QAE_NK@Z 005377d0 f   sp_logmanager.obj
 0001:00136810       ?New@SPLogManagerScript@@EAEPAVSPLogData@@PBG0I0@Z 00537810 f   sp_logmanager.obj
 0001:00136880       ??_GSPScriptLogData@@UAEPAXI@Z 00537880 f i sp_logmanager.obj
 0001:00136880       ??_ESPScriptLogData@@UAEPAXI@Z 00537880 f i sp_logmanager.obj
 0001:001368b0       ??1SPScriptLogData@@UAE@XZ 005378b0 f i sp_logmanager.obj
 0001:00136920       ?New@SPLogManagerError@@EAEPAVSPLogData@@PBG0I0@Z 00537920 f   sp_logmanager.obj
 0001:00136990       ??_ESPErrorLogData@@UAEPAXI@Z 00537990 f i sp_logmanager.obj
 0001:00136990       ??_GSPErrorLogData@@UAEPAXI@Z 00537990 f i sp_logmanager.obj
 0001:001369c0       ??1SPErrorLogData@@UAE@XZ  005379c0 f i sp_logmanager.obj
 0001:00136a30       ?New@SPLogManagerNetwork@@EAEPAVSPLogData@@PBG0I0@Z 00537a30 f   sp_logmanager.obj
 0001:00136aa0       ??_GSPNetworkLogData@@UAEPAXI@Z 00537aa0 f i sp_logmanager.obj
 0001:00136aa0       ??_ESPNetworkLogData@@UAEPAXI@Z 00537aa0 f i sp_logmanager.obj
 0001:00136ad0       ??1SPNetworkLogData@@UAE@XZ 00537ad0 f i sp_logmanager.obj
 0001:00136b40       ?New@SPLogManagerUpdate@@EAEPAVSPLogData@@PBG0I0@Z 00537b40 f   sp_logmanager.obj
 0001:00136bb0       ??_ESPUpdateLogData@@UAEPAXI@Z 00537bb0 f i sp_logmanager.obj
 0001:00136bb0       ??_GSPUpdateLogData@@UAEPAXI@Z 00537bb0 f i sp_logmanager.obj
 0001:00136be0       ??1SPUpdateLogData@@UAE@XZ 00537be0 f i sp_logmanager.obj
 0001:00136c50       ?New@SPLogManagerStatus@@EAEPAVSPLogData@@PBG0I0@Z 00537c50 f   sp_logmanager.obj
 0001:00136cc0       ??_ESPStatusLogData@@UAEPAXI@Z 00537cc0 f i sp_logmanager.obj
 0001:00136cc0       ??_GSPStatusLogData@@UAEPAXI@Z 00537cc0 f i sp_logmanager.obj
 0001:00136cf0       ??1SPStatusLogData@@UAE@XZ 00537cf0 f i sp_logmanager.obj
 0001:00136d60       ??0SPMakoto@@QAE@PAVSPGhost@@@Z 00537d60 f   sp_makoto.obj
 0001:00136ec0       ?Name@SPMakoto@@UAEPBGXZ   00537ec0 f i sp_makoto.obj
 0001:00136ec0       ?GetModuleDesc@SPMakoto@@UAEPBGXZ 00537ec0 f i sp_makoto.obj
 0001:00136ed0       ?GetLogFileName@SPMakoto@@UAEPBGXZ 00537ed0 f i sp_makoto.obj
 0001:00136ee0       ?GetTypeString@SPMakoto@@UAEPBGXZ 00537ee0 f i sp_makoto.obj
 0001:00136ef0       ??_ESPMakoto@@UAEPAXI@Z    00537ef0 f i sp_makoto.obj
 0001:00136ef0       ??_GSPMakoto@@UAEPAXI@Z    00537ef0 f i sp_makoto.obj
 0001:00136f20       ??1SPMakoto@@UAE@XZ        00537f20 f i sp_makoto.obj
 0001:00136fa0       ?LoadProc@SPMakoto@@QAEHPBG@Z 00537fa0 f   sp_makoto.obj
 0001:00137710       ?Load@SPMakoto@@QAEHPBG@Z  00538710 f   sp_makoto.obj
 0001:00137a60       ?Unload@SPMakoto@@QAEXXZ   00538a60 f   sp_makoto.obj
 0001:00137ab0       ?Notify@SPMakoto@@QAE_NPBGPAPAGK@Z 00538ab0 f   sp_makoto.obj
 0001:00137b10       ?NotifyReal@SPMakoto@@AAE_NPBGPAPAGK@Z 00538b10 f   sp_makoto.obj
 0001:00137e10       ?Translate@SPMakoto@@QAEPBGPBG0H@Z 00538e10 f   sp_makoto.obj
 0001:00137e60       ?TranslateReal@SPMakoto@@AAEPBGPBG0H@Z 00538e60 f   sp_makoto.obj
 0001:00138400       ?GetVersionRequestImpl@SPMakoto@@UAEHXZ 00539400 f   sp_makoto.obj
 0001:001384f0       ??_ESPMakoto@@W3AEPAXI@Z   005394f0 f i sp_makoto.obj
 0001:00138500       ??_ESPMakoto@@WCII@AEPAXI@Z 00539500 f i sp_makoto.obj
 0001:00138550       ?Release@SPMenuItem@@QAEXXZ 00539550 f   sp_menu.obj
 0001:00138600       ?ClearValue@SPMenuItem@@QAEXXZ 00539600 f   sp_menu.obj
 0001:00138630       ?DeleteChildren@SPMenuItem@@QAEXK@Z 00539630 f   sp_menu.obj
 0001:001386f0       ?AddMenuItemW@SPMenuItem@@QAEPAV1@PBGKK@Z 005396f0 f   sp_menu.obj
 0001:00138950       ??0SPMenuItem@@QAE@XZ      00539950 f i sp_menu.obj
 0001:00138a20       ??1SPMenuItem@@QAE@XZ      00539a20 f i sp_menu.obj
 0001:00138a70       ?ModifyAsSubMenuParent@SPMenuItem@@QAEXPAX@Z 00539a70 f   sp_menu.obj
 0001:00138a90       ?SetHandle@SPMenuItem@@QAEXPAX@Z 00539a90 f   sp_menu.obj
 0001:00138d70       ?GetMenuItemByPosition@SPMenuItem@@QAEPAV1@J@Z 00539d70 f   sp_menu.obj
 0001:00138da0       ?GetMenuItemByCommand@SPMenuItem@@QAEPAV1@K@Z 00539da0 f   sp_menu.obj
 0001:00138df0       ?ModifyMenuItemW@SPMenuItem@@QAEXPBGK@Z 00539df0 f   sp_menu.obj
 0001:00138e70       ?GetMenuHeight@SPMenuItem@@QAEJXZ 00539e70 f   sp_menu.obj
 0001:00138eb0       ?SetSelfHeight@SPMenuItem@@QAEXJ@Z 00539eb0 f   sp_menu.obj
 0001:00138ee0       ?GetMenuText@SPMenuItem@@QAEXAAVJWString@@@Z 00539ee0 f   sp_menu.obj
 0001:00138f10       ??0SPMenu@@QAE@XZ          00539f10 f   sp_menu.obj
 0001:00139210       ??1SPMenu@@QAE@XZ          0053a210 f   sp_menu.obj
 0001:001393f0       ?Release@SPMenu@@QAEXXZ    0053a3f0 f   sp_menu.obj
 0001:00139610       ?ReleaseSurfaces@SPMenu@@AAEXXZ 0053a610 f   sp_menu.obj
 0001:00139660       ?InitMenuProp@SPMenu@@QAEXXZ 0053a660 f   sp_menu.obj
 0001:00139760       ?SetMenuFlag@SPMenu@@SAXAAIPAD@Z 0053a760 f   sp_menu.obj
 0001:00139780       ?SetMenuFlag@SPMenu@@SAXAAIPAG@Z 0053a780 f   sp_menu.obj
 0001:001397a0       ?LoadFromDescript@SPMenu@@QAEHPAD0H@Z 0053a7a0 f   sp_menu.obj
 0001:00139d60       ?SetBarText@SPMenu@@QAEXPAG@Z 0053ad60 f   sp_menu.obj
 0001:00139dc0       ?SetBarWidth@SPMenu@@QAEXK@Z 0053adc0 f   sp_menu.obj
 0001:00139df0       ?LoadMenuDescript@SPMenu@@QAEHPBG@Z 0053adf0 f   sp_menu.obj
 0001:00139f40       ?SetPath@SPMenu@@QAEXPAPAGI@Z 0053af40 f   sp_menu.obj
 0001:0013a120       ?LoadSurface@SPMenu@@QAE_NXZ 0053b120 f   sp_menu.obj
 0001:0013a280       ?LoadSurfaceBackground@SPMenu@@QAE_NH@Z 0053b280 f   sp_menu.obj
 0001:0013a2a0       ?LoadSurfaceForeground@SPMenu@@QAE_NH@Z 0053b2a0 f   sp_menu.obj
 0001:0013a2c0       ?LoadSurfaceSidebar@SPMenu@@QAE_NH@Z 0053b2c0 f   sp_menu.obj
 0001:0013a2e0       ?LoadMultipleMenuImage@SPMenu@@AAE_NHAAVJWString@@AAV?$JPtrArray@PAVJSurface@@@@@Z 0053b2e0 f   sp_menu.obj
 0001:0013a6d0       ?SetValues@SPMenu@@AAEXIAAVSPColor@@IAAV?$JPtrArray@PAVJSurface@@@@AAPAVJSurface@@AAK3@Z 0053b6d0 f   sp_menu.obj
 0001:0013a870       ?ShowPopup@SPMenu@@QAEXPAX0PBVJPoint@@@Z 0053b870 f   sp_menu.obj
 0001:0013a930       ?GetMenuTextHeight@SPMenu@@QAEKXZ 0053b930 f   sp_menu.obj
 0001:0013a950       ?GetMaxMenuItemCount@SPMenu@@QAEKXZ 0053b950 f   sp_menu.obj
 0001:0013a990       ?CalcMenuTextHeightAndCreateFont@SPMenu@@QAEXXZ 0053b990 f   sp_menu.obj
 0001:0013ab80       ?PreparePopup@SPMenu@@QAEXPAX0@Z 0053bb80 f   sp_menu.obj
 0001:0013aef0       ?MeasureItem@SPMenu@@QAEHHPAUtagMEASUREITEMSTRUCT@@@Z 0053bef0 f   sp_menu.obj
 0001:0013b0c0       ?DrawItem@SPMenu@@QAEHHPAUtagDRAWITEMSTRUCT@@@Z 0053c0c0 f   sp_menu.obj
 0001:0013b980       ?LoadSurfaceDataFromName@SPMenu@@AAEPAVJSurface@@PBG@Z 0053c980 f   sp_menu.obj
 0001:0013bcd0       ?NewItem@SPMenu@@SAPAVSPMenuItem@@XZ 0053ccd0 f   sp_menu.obj
 0001:0013bce0       ?DeleteItem@SPMenu@@SAXPAVSPMenuItem@@@Z 0053cce0 f   sp_menu.obj
 0001:0013bd00       ??0?$SPCacheObj@VSPMenuItem@@VJDummyLockSection@@VJDummyLock@@@@QAE@K@Z 0053cd00 f i sp_menu.obj
 0001:0013bd50       ??1?$SPCacheObj@VSPMenuItem@@VJDummyLockSection@@VJDummyLock@@@@QAE@XZ 0053cd50 f i sp_menu.obj
 0001:0013be20       ?New@?$SPCacheObj@VSPMenuItem@@VJDummyLockSection@@VJDummyLock@@@@QAEPAVSPMenuItem@@XZ 0053ce20 f i sp_menu.obj
 0001:0013bfa0       ?Delete@?$SPCacheObj@VSPMenuItem@@VJDummyLockSection@@VJDummyLock@@@@QAEXPAVSPMenuItem@@@Z 0053cfa0 f i sp_menu.obj
 0001:0013c0c0       ?DeleteArray@?$SPCacheObj@VSPMenuItem@@VJDummyLockSection@@VJDummyLock@@@@QAEXAAV?$JPtrArray@PAVSPMenuItem@@@@@Z 0053d0c0 f i sp_menu.obj
 0001:0013c1f0       ?GetSPMenuHack@@YAAAVSPMenuHack@@XZ 0053d1f0 f   sp_menuhack.obj
 0001:0013c280       ??0SPMenuHack@@AAE@XZ      0053d280 f   sp_menuhack.obj
 0001:0013c330       ??_GSPMenuHack@@UAEPAXI@Z  0053d330 f i sp_menuhack.obj
 0001:0013c330       ??_ESPMenuHack@@UAEPAXI@Z  0053d330 f i sp_menuhack.obj
 0001:0013c360       ??1SPMenuHack@@UAE@XZ      0053d360 f   sp_menuhack.obj
 0001:0013c410       ?EnterMenuLoop@SPMenuHack@@QAEXPAX@Z 0053d410 f   sp_menuhack.obj
 0001:0013c4d0       ?ExitMenuLoop@SPMenuHack@@QAEXXZ 0053d4d0 f   sp_menuhack.obj
 0001:0013c5a0       ?GetMenuDataIndex@SPMenuHack@@QAEJPAUHWND__@@@Z 0053d5a0 f   sp_menuhack.obj
 0001:0013c5d0       ?AddMenuData@SPMenuHack@@QAEPAUtagSPMenuHackData@@PAUHWND__@@@Z 0053d5d0 f   sp_menuhack.obj
 0001:0013c7c0       ?RestoreMenu@SPMenuHack@@QAEXPAUtagSPMenuHackData@@@Z 0053d7c0 f   sp_menuhack.obj
 0001:0013c830       ?DeleteMenuData@SPMenuHack@@QAEXPAUtagSPMenuHackData@@@Z 0053d830 f   sp_menuhack.obj
 0001:0013c8f0       ?CallWndProc@SPMenuHack@@CGJHIJ@Z 0053d8f0 f   sp_menuhack.obj
 0001:0013c9f0       ?ScrollMenu@SPMenuHack@@AAEX_NI@Z 0053d9f0 f   sp_menuhack.obj
 0001:0013ca80       ?WindowProc@SPMenuHack@@CGJPAUHWND__@@IIJ@Z 0053da80 f   sp_menuhack.obj
 0001:0013cab0       ?WindowProcReal@SPMenuHack@@AAEJPAUHWND__@@IIJ@Z 0053dab0 f   sp_menuhack.obj
 0001:0013d1d0       ?WindowProcParent@SPMenuHack@@CGJPAUHWND__@@IIJ@Z 0053e1d0 f   sp_menuhack.obj
 0001:0013d200       ?WindowProcParentReal@SPMenuHack@@AAEJPAUHWND__@@IIJ@Z 0053e200 f   sp_menuhack.obj
 0001:0013d3a0       ?Realloc@?$JArray@UtagSPMenuHackData@@@@QAE_NK@Z 0053e3a0 f i sp_menuhack.obj
 0001:0013d490       ?SetNum@?$JArray@D@@QAEXK@Z 0053e490 f i sp_menuhack.obj
 0001:0013d490       ?SetNum@?$JArray@E@@QAEXK@Z 0053e490 f i sp_menuhack.obj
 0001:0013d4e0       ?Create@SPMenuTemplate@@QAEXAAV?$JArray@G@@@Z 0053e4e0 f   sp_menutemplate.obj
 0001:0013d6b0       ?Read@SPMenuTemplate@@QAEXPBXK@Z 0053e6b0 f   sp_menutemplate.obj
 0001:0013d6d0       ?ReadMenu@SPMenuTemplate@@QAEXI@Z 0053e6d0 f   sp_menutemplate.obj
 0001:0013d700       ?ReadTmpl@SPMenuTemplate@@AAEXPBGK@Z 0053e700 f   sp_menutemplate.obj
 0001:0013d910       ?Clear@SPMenuTemplate@@QAEXXZ 0053e910 f   sp_menutemplate.obj
 0001:0013d9e0       ??1SPMenuTemplateItem@@AAE@XZ 0053e9e0 f i sp_menutemplate.obj
 0001:0013d9e0       ??1SPTimingEntry@@QAE@XZ   0053e9e0 f i sp_menutemplate.obj
 0001:0013d9f0       ?FindID@SPMenuTemplate@@QBEJK@Z 0053e9f0 f   sp_menutemplate.obj
 0001:0013da20       ?GetFromID@SPMenuTemplate@@QBEPBVSPMenuTemplateItem@@K@Z 0053ea20 f   sp_menutemplate.obj
 0001:0013da50       ?GetIDText@SPMenuTemplate@@QBEPBGK@Z 0053ea50 f   sp_menutemplate.obj
 0001:0013da70       ?GetFromPosLevel1@SPMenuTemplate@@QBEPBVSPMenuTemplateItem@@K@Z 0053ea70 f   sp_menutemplate.obj
 0001:0013dab0       ?WriteToArray@SPMenuTemplate@@AAEXAAV?$JArray@G@@@Z 0053eab0 f   sp_menutemplate.obj
 0001:0013dbf0       ?Clear@SPMenuTemplateItem@@QAEXXZ 0053ebf0 f   sp_menutemplate.obj
 0001:0013dd30       ?ReadTmpl@SPMenuTemplateItem@@AAEPBGPBGK@Z 0053ed30 f   sp_menutemplate.obj
 0001:0013dfc0       ?WriteToArray@SPMenuTemplateItem@@AAEXAAV?$JArray@G@@@Z 0053efc0 f   sp_menutemplate.obj
 0001:0013e1d0       ?GetPlainString@SPMenuTemplateItem@@QBEXAAVJWString@@@Z 0053f1d0 f   sp_menutemplate.obj
 0001:0013e250       ?SPM_Dummy_load@@YAHPAXJ@Z 0053f250 f   sp_module.obj
 0001:0013e270       ?SPM_Dummy_request@@YAPAXPAXPAJ@Z 0053f270 f   sp_module.obj
 0001:0013e290       ??0SPModule@@QAE@XZ        0053f290 f   sp_module.obj
 0001:0013e620       ??0SPParamManager@@QAE@XZ  0053f620 f i sp_module.obj
 0001:0013e760       ??1SPParamManager@@QAE@XZ  0053f760 f i sp_module.obj
 0001:0013e8a0       ??1JMutex@@UAE@XZ          0053f8a0 f i sp_module.obj
 0001:0013e8f0       ??_EJMutex@@UAEPAXI@Z      0053f8f0 f i sp_module.obj
 0001:0013e8f0       ??_GJMutex@@UAEPAXI@Z      0053f8f0 f i sp_module.obj
 0001:0013e920       ??_ESPModule@@UAEPAXI@Z    0053f920 f i sp_module.obj
 0001:0013e920       ??_GSPModule@@UAEPAXI@Z    0053f920 f i sp_module.obj
 0001:0013e950       ??1SPModule@@UAE@XZ        0053f950 f   sp_module.obj
 0001:0013ebd0       ?Release@SPModule@@UAEXXZ  0053fbd0 f   sp_module.obj
 0001:0013ebd0       ?Unload@SPScheduleSensor@@QAEXXZ 0053fbd0 f   sp_module.obj
 0001:0013ebe0       ?SPLoadLibrary@SPModule@@SAPAUHINSTANCE__@@PBG@Z 0053fbe0 f   sp_module.obj
 0001:0013ec30       ?LoadLib@SPModule@@QAE_NPBG@Z 0053fc30 f   sp_module.obj
 0001:0013f1d0       ?UnloadLib@SPModule@@QAE_NXZ 005401d0 f   sp_module.obj
 0001:0013f340       ?CheckReentrant@SPModule@@AAE_NPBG@Z 00540340 f   sp_module.obj
 0001:0013f490       ?ExecLoadSEHReal@SPModule@@AAEHP6AHPAXJ@Z0J@Z 00540490 f   sp_module.obj
 0001:0013f5d0       ?ExecLoadSEH@SPModule@@QAEHP6AHPAXJ@Z0J@Z 005405d0 f   sp_module.obj
 0001:0013f790       ?ExecUnloadSEHReal@SPModule@@AAEHP6AHXZ@Z 00540790 f   sp_module.obj
 0001:0013f8c0       ?ExecUnloadSEH@SPModule@@QAEHP6AHXZ@Z 005408c0 f   sp_module.obj
 0001:0013fa30       ?ExecRequestSEHReal@SPModule@@AAEPAXP6APAXPAXPAJ@Z01@Z 00540a30 f   sp_module.obj
 0001:0013fb60       ?ExecRequestSEH@SPModule@@QAEPAXP6APAXPAXPAJ@Z01@Z 00540b60 f   sp_module.obj
 0001:0013fd80       ?ExecGetSEH@SPModule@@QAEPAGP6APAXPAJ@Z@Z 00540d80 f   sp_module.obj
 0001:0013fee0       ?CallRequestAndLog@SPModule@@QAEPAXAAVJString@@AAJ@Z 00540ee0 f   sp_module.obj
 0001:00140090       ?SetLogEnable@SPModule@@UAEX_N0@Z 00541090 f   sp_module.obj
 0001:001400d0       ?WriteLog@SPModule@@QAEXPADPAXHK@Z 005410d0 f   sp_module.obj
 0001:001404b0       ?CallGetVersionAndLoad2@SPModule@@IAE?AVSPModuleGetVersionResult@@XZ 005414b0 f   sp_module.obj
 0001:001406f0       ?GetGenericProcAddress@SPModule@@IAEXXZ 005416f0 f   sp_module.obj
 0001:00140790       ?SetPath@SPModule@@UAEXPBG@Z 00541790 f   sp_module.obj
 0001:00140880       ?ToString@SPModule@@QAEPAGPAXJ@Z 00541880 f   sp_module.obj
 0001:00140960       ?ToHandleASub@SPModule@@IAEPAXPBDAAJ@Z 00541960 f   sp_module.obj
 0001:001409a0       ?ToHandleW@SPModule@@QAEPAXPBGAAJ@Z 005419a0 f   sp_module.obj
 0001:00140a80       ?ToHandleA@SPModule@@QAEPAXPBDAAJ@Z 00541a80 f   sp_module.obj
 0001:00140ac0       ?ToHandleA@SPModule@@QAEPAXABVJString@@AAJ@Z 00541ac0 f   sp_module.obj
 0001:00140ae0       ?GetLoadPath@SPModule@@QAEPAXAAJ@Z 00541ae0 f   sp_module.obj
 0001:00140bd0       ?GMFree@SPModule@@SAXPAX@Z 00541bd0 f   sp_module.obj
 0001:00140c60       ?GMSize@SPModule@@SAJPAXJ@Z 00541c60 f   sp_module.obj
 0001:00140cf0       ?GetProcAddressModule@SPModule@@QAEPAXPAD@Z 00541cf0 f   sp_module.obj
 0001:00140d30       ?GetVersionRequest@SPModule@@IAEXXZ 00541d30 f   sp_module.obj
 0001:00140ed0       ?ParseCharset@SPModule@@QAEXXZ 00541ed0 f   sp_module.obj
 0001:00140f90       ?SetCharset@SPModule@@QAEXPBD@Z 00541f90 f   sp_module.obj
 0001:001410d0       ?SetDefaultCharset@SPModule@@QAEXPBD@Z 005420d0 f   sp_module.obj
 0001:00141110       ?GetCharsetSafe@SPModule@@QAEPBDXZ 00542110 f   sp_module.obj
 0001:00141130       ?GetCharsetSafeW@SPModule@@QAEPBGXZ 00542130 f   sp_module.obj
 0001:00141150       ?GetResponseCharsetSafe@SPModule@@QAEPBDXZ 00542150 f   sp_module.obj
 0001:00141170       ?SetForceEncoding@SPModule@@QAEXPBD@Z 00542170 f   sp_module.obj
 0001:00141200       ?MakeLastReference@SPModule@@IAEPAGAAV?$JPtrArray@PAVJWString@@@@@Z 00542200 f   sp_module.obj
 0001:00141320       ?MakeLastReference@SPModule@@IAEPAGPAPAGK0K@Z 00542320 f   sp_module.obj
 0001:001414c0       ?SendRecvPipeSSPEXT@SPModule@@AAE_NPBD0AAVJString@@@Z 005424c0 f   sp_module.obj
 0001:00141820       ?SendRecvPipeSHIOLINK@SPModule@@AAE_NPBD0AAVJString@@@Z 00542820 f   sp_module.obj
 0001:00141c10       ?SendRecvPipe@SPModule@@IAE_NPBD0AAVJString@@@Z 00542c10 f   sp_module.obj
 0001:00141c50       ??_ESPModule@@W3AEPAXI@Z   00542c50 f i sp_module.obj
 0001:00141c60       ??_ESPModule@@WCII@AEPAXI@Z 00542c60 f i sp_module.obj
 0001:00141c70       ?SendMsg@SPMsgSenderSSTP@@UAEHPBGH@Z 00542c70 f   sp_msgsender.obj
 0001:00141e40       ?Loop@SPMsgSenderSSTP@@UAEHXZ 00542e40 f   sp_msgsender.obj
 0001:00141ec0       ?SendMsg@SPMsgSenderIPMessenger@@UAEHPBGH@Z 00542ec0 f   sp_msgsender.obj
 0001:00142020       ?Loop@SPMsgSenderIPMessenger@@UAEHXZ 00543020 f   sp_msgsender.obj
 0001:00142090       ??0SPMessengerUser@@QAE@XZ 00543090 f   sp_msguser.obj
 0001:001421f0       ?Clear@SPMessengerUser@@QAEXXZ 005431f0 f   sp_msguser.obj
 0001:00142430       ??1SPMessengerUser@@QAE@XZ 00543430 f   sp_msguser.obj
 0001:00142550       ?GetAddress@SPMessengerUser@@QAEPADXZ 00543550 f   sp_msguser.obj
 0001:00142590       ?GetAddressNum@SPMessengerUser@@QAEABVJSockAddr@@XZ 00543590 f   sp_msguser.obj
 0001:001425c0       ?SetAddress@SPMessengerUser@@QAEXPBD@Z 005435c0 f   sp_msguser.obj
 0001:001425e0       ?ClearAddress@SPMessengerUser@@QAEXXZ 005435e0 f   sp_msguser.obj
 0001:001425f0       ?IsSSTPAware@SPMessengerUser@@QAE_NXZ 005435f0 f   sp_msguser.obj
 0001:00142600       ??8SPMessengerUser@@QAEHAAV0@@Z 00543600 f   sp_msguser.obj
 0001:00142730       ?AddLog@SPMessengerUser@@QAEXPBG0II_N@Z 00543730 f   sp_msguser.obj
 0001:00142900       ??_ESPMessengerLogData@@UAEPAXI@Z 00543900 f i sp_msguser.obj
 0001:00142900       ??_GSPMessengerLogData@@UAEPAXI@Z 00543900 f i sp_msguser.obj
 0001:00142930       ??1SPMessengerLogData@@UAE@XZ 00543930 f i sp_msguser.obj
 0001:001429a0       ?DeleteLog@SPMessengerUser@@QAEXXZ 005439a0 f   sp_msguser.obj
 0001:00142a10       ?GetTypeText@SPMessengerLogData@@UAEXAAVJString@@@Z 00543a10 f   sp_msguser.obj
 0001:00142a40       ?GetIconID@SPMessengerLogData@@UAEHXZ 00543a40 f   sp_msguser.obj
 0001:00142a50       ?GetSPMessengerUserManager@@YAAAVSPMessengerUserManager@@XZ 00543a50 f   sp_msguser.obj
 0001:00142ae0       ??0SPMessengerUserManager@@AAE@XZ 00543ae0 f   sp_msguser.obj
 0001:00142b90       ??_GSPMessengerUserManager@@UAEPAXI@Z 00543b90 f i sp_msguser.obj
 0001:00142b90       ??_ESPMessengerUserManager@@UAEPAXI@Z 00543b90 f i sp_msguser.obj
 0001:00142bc0       ??1SPMessengerUserManager@@UAE@XZ 00543bc0 f   sp_msguser.obj
 0001:00142d60       ?ConstructUser@SPMessengerUserManager@@QAEPAVSPMessengerUser@@ABVJSockAddr@@HH@Z 00543d60 f   sp_msguser.obj
 0001:00142f00       ?DestructUser@SPMessengerUserManager@@QAEXPAVSPMessengerUser@@@Z 00543f00 f   sp_msguser.obj
 0001:00143010       ?GetUserByIPAddress@SPMessengerUserManager@@QAEPAVSPMessengerUser@@ABVJSockAddr@@@Z 00544010 f   sp_msguser.obj
 0001:00143040       ?GetRegUserByIPAddress@SPMessengerUserManager@@QAEPAVSPMessengerUser@@ABVJSockAddr@@@Z 00544040 f   sp_msguser.obj
 0001:00143090       ?GetTempUserByIPAddress@SPMessengerUserManager@@QAEPAVSPMessengerUser@@ABVJSockAddr@@@Z 00544090 f   sp_msguser.obj
 0001:001430e0       ?GetTempUser@SPMessengerUserManager@@QAEPAVSPMessengerUser@@PAV2@@Z 005440e0 f   sp_msguser.obj
 0001:00143120       ?AddUser@SPMessengerUserManager@@QAEHPAVSPMessengerUser@@@Z 00544120 f   sp_msguser.obj
 0001:00143230       ?AddTempUser@SPMessengerUserManager@@QAEHPAVSPMessengerUser@@@Z 00544230 f   sp_msguser.obj
 0001:00143350       ?DelUser@SPMessengerUserManager@@QAEHPAVSPMessengerUser@@@Z 00544350 f   sp_msguser.obj
 0001:00143400       ?DelTempUser@SPMessengerUserManager@@QAEHPAVSPMessengerUser@@@Z 00544400 f   sp_msguser.obj
 0001:001434b0       ?DelIPMessengerUsers@SPMessengerUserManager@@QAEHXZ 005444b0 f   sp_msguser.obj
 0001:00143580       ?LoadUsers@SPMessengerUserManager@@QAEHPBG@Z 00544580 f   sp_msguser.obj
 0001:00143940       ?SaveUsers@SPMessengerUserManager@@QAEHPBG@Z 00544940 f   sp_msguser.obj
 0001:00143d30       ?PathW@SPMultiFileEntry@@QAEPBGXZ 00544d30 f   sp_multifile.obj
 0001:00143d40       ?Release@SPMultiFile@@QAEXXZ 00544d40 f   sp_multifile.obj
 0001:00143db0       ?Add@SPMultiFile@@QAEXPBG@Z 00544db0 f   sp_multifile.obj
 0001:00143f60       ?Delete@SPMultiFile@@QAEXK@Z 00544f60 f   sp_multifile.obj
 0001:00144000       ?AddFromHDROP@SPMultiFile@@QAE_NPAX@Z 00545000 f   sp_multifile.obj
 0001:00144310       ?SetLen@JString@@QAEXK@Z   00545310 f i sp_multifile.obj
 0001:00144370       ?SetLen@JWString@@QAEXK@Z  00545370 f i sp_multifile.obj
 0001:001443d0       ??_GSPMultiFileEntry@@QAEPAXI@Z 005453d0 f i sp_multifile.obj
 0001:00144400       ?Get@SPMultiFile@@QAEPAVSPMultiFileEntry@@K@Z 00545400 f   sp_multifile.obj
 0001:00144420       ?GetExtension@SPMultiFile@@QAEPBGK@Z 00545420 f   sp_multifile.obj
 0001:00144470       ?FindExtension@SPMultiFile@@QAEPAV1@PBG@Z 00545470 f   sp_multifile.obj
 0001:00144760       ?GetSPNetStatus@@YAAAVSPNetStatus@@XZ 00545760 f   sp_netstatus.obj
 0001:001447f0       ??0SPNetStatus@@AAE@XZ     005457f0 f   sp_netstatus.obj
 0001:00144870       ??_GSPNetStatus@@UAEPAXI@Z 00545870 f i sp_netstatus.obj
 0001:00144870       ??_ESPNetStatus@@UAEPAXI@Z 00545870 f i sp_netstatus.obj
 0001:001448a0       ??1SPNetStatus@@UAE@XZ     005458a0 f i sp_netstatus.obj
 0001:00144910       ?IPChangeCallback4@SPNetStatus@@QAEXXZ 00545910 f   sp_netstatus.obj
 0001:00144920       ?IPChangeCallback6@SPNetStatus@@QAEXXZ 00545920 f   sp_netstatus.obj
 0001:00144930       ?EnqueueIPChangeCallback4@SPNetStatus@@QAE_NXZ 00545930 f   sp_netstatus.obj
 0001:001449a0       ?EnqueueIPChangeCallback6@SPNetStatus@@QAE_NXZ 005459a0 f   sp_netstatus.obj
 0001:00144a10       ?Init@SPNetStatus@@QAEXPAUHWND__@@@Z 00545a10 f   sp_netstatus.obj
 0001:00144c50       ?ConnectivityChanged@SPNetStatusEvent@@UAGJW4NLM_CONNECTIVITY@@@Z 00545c50 f i sp_netstatus.obj
 0001:00144c70       ??_GSPNetStatusEvent@@UAEPAXI@Z 00545c70 f i sp_netstatus.obj
 0001:00144c70       ??_E?$SPComObjectBase@UINetworkListManagerEvents@@@@UAEPAXI@Z 00545c70 f i sp_netstatus.obj
 0001:00144c70       ??_G?$SPComObjectBase@UINetworkListManagerEvents@@@@UAEPAXI@Z 00545c70 f i sp_netstatus.obj
 0001:00144c70       ??_ESPNetStatusEvent@@UAEPAXI@Z 00545c70 f i sp_netstatus.obj
 0001:00144ca0       ?Release@SPNetStatus@@QAEXXZ 00545ca0 f   sp_netstatus.obj
 0001:00144d40       ?IsOnline@SPNetStatus@@QAEHXZ 00545d40 f   sp_netstatus.obj
 0001:00144d50       ?PollingSec@SPNetStatus@@QAEXXZ 00545d50 f   sp_netstatus.obj
 0001:00144db0       ?Update@SPNetStatus@@QAEXXZ 00545db0 f   sp_netstatus.obj
 0001:001454c0       ?GetTypeText@SPNetStatus@@QAEPAGXZ 005464c0 f   sp_netstatus.obj
 0001:001454d0       ?QueryInterface@?$SPComObjectBase@UINetworkListManagerEvents@@@@UAGJABU_GUID@@PAPAX@Z 005464d0 f i sp_netstatus.obj
 0001:00145590       ?Release@?$SPComObjectBase@UINetworkListManagerEvents@@@@UAGKXZ 00546590 f i sp_netstatus.obj
 0001:001455d0       ??1?$SPComObjectBase@UINetworkListManagerEvents@@@@UAE@XZ 005465d0 f i sp_netstatus.obj
 0001:001455d0       ??1SPNetStatusEvent@@UAE@XZ 005465d0 f i sp_netstatus.obj
 0001:001455f0       ??0SPNews@@QAE@AAVSPSettings@@@Z 005465f0 f   sp_news.obj
 0001:001456b0       ?Release@SPNews@@QAEXXZ    005466b0 f   sp_news.obj
 0001:001456c0       ?GetScript@SPNews@@QAEPAGXZ 005466c0 f   sp_news.obj
 0001:00145710       ?Load@SPNews@@QAEHPBG@Z    00546710 f   sp_news.obj
 0001:001458d0       ??0SPNotifyIcon@@QAE@XZ    005468d0 f   sp_notifyicon.obj
 0001:001459d0       ??1SPNotifyIcon@@QAE@XZ    005469d0 f   sp_notifyicon.obj
 0001:00145a40       ?SetIcon@SPNotifyIcon@@QAEXPAUHICON__@@_N@Z 00546a40 f   sp_notifyicon.obj
 0001:00145ae0       ?SetIcon@SPNotifyIcon@@QAEXAAV?$JPtrArray@PAUHICON__@@@@_N@Z 00546ae0 f   sp_notifyicon.obj
 0001:00145ba0       ?ClearIcon@SPNotifyIcon@@QAEXXZ 00546ba0 f   sp_notifyicon.obj
 0001:00145c30       ?IsIconExist@SPNotifyIcon@@QAE_NXZ 00546c30 f   sp_notifyicon.obj
 0001:00145c40       ?SetLargeIcon@SPNotifyIcon@@QAEXPAUHICON__@@_N@Z 00546c40 f   sp_notifyicon.obj
 0001:00145c80       ?GetLargeIcon@SPNotifyIcon@@QAEPAUHICON__@@XZ 00546c80 f   sp_notifyicon.obj
 0001:00145ca0       ?ClearLargeIcon@SPNotifyIcon@@QAEXXZ 00546ca0 f   sp_notifyicon.obj
 0001:00145ce0       ?Init@SPNotifyIcon@@QAEHPAXI@Z 00546ce0 f   sp_notifyicon.obj
 0001:00145dd0       ?SetText@SPNotifyIcon@@QAEXPBG@Z 00546dd0 f   sp_notifyicon.obj
 0001:00145eb0       ?SetTrayBalloon@SPNotifyIcon@@QAEXPBG00H@Z 00546eb0 f   sp_notifyicon.obj
 0001:00145ee0       ?SetTrayBalloonAdd@SPNotifyIcon@@QAEHPBG00H@Z 00546ee0 f   sp_notifyicon.obj
 0001:00145f60       ?SetTrayBalloonInternal@SPNotifyIcon@@AAEXAATSPNotifyIconUnion@@PBG11H@Z 00546f60 f   sp_notifyicon.obj
 0001:001460f0       ?GetTrayBalloonText@SPNotifyIcon@@QAEXAAVJWString@@@Z 005470f0 f   sp_notifyicon.obj
 0001:00146130       ?GetTrayBalloonTitle@SPNotifyIcon@@QAEXAAVJWString@@@Z 00547130 f   sp_notifyicon.obj
 0001:00146170       ?TimerExec@SPNotifyIcon@@QAEXXZ 00547170 f   sp_notifyicon.obj
 0001:001461a0       ?SetRunCount@SPNotifyIcon@@QAEXH@Z 005471a0 f   sp_notifyicon.obj
 0001:001461c0       ?TimerExecAnime@SPNotifyIcon@@QAEXXZ 005471c0 f   sp_notifyicon.obj
 0001:00146280       ?NotifyInternal@SPNotifyIcon@@AAEHAATSPNotifyIconUnion@@H@Z 00547280 f   sp_notifyicon.obj
 0001:00146340       ?Notify@SPNotifyIcon@@QAEHH@Z 00547340 f   sp_notifyicon.obj
 0001:00146360       ?AddInternal@SPNotifyIcon@@AAEHAATSPNotifyIconUnion@@H@Z 00547360 f   sp_notifyicon.obj
 0001:001463b0       ?Add@SPNotifyIcon@@QAEHH@Z 005473b0 f   sp_notifyicon.obj
 0001:001463d0       ?Delete@SPNotifyIcon@@QAEHXZ 005473d0 f   sp_notifyicon.obj
 0001:00146400       ?UpdateIcon@SPNotifyIcon@@QAEH_N@Z 00547400 f   sp_notifyicon.obj
 0001:00146430       ?IsValid@SPOtherGhostProp@@QAEHXZ 00547430 f   sp_other.obj
 0001:00146450       ?Clear@SPOtherGhostProp@@QAEXXZ 00547450 f   sp_other.obj
 0001:00146620       ?IsMatch@SPOtherGhostProp@@QAEHPBG0@Z 00547620 f   sp_other.obj
 0001:00146670       ?AddData@SPOtherGhostProp@@QAEXPAD0H@Z 00547670 f   sp_other.obj
 0001:001469b0       ?MakeShioriEntry@SPOtherGhostProp@@QAEPAGXZ 005479b0 f   sp_other.obj
 0001:001469f0       ?MakeEntry@SPOtherGhostProp@@QAEXAAVJString@@H@Z 005479f0 f   sp_other.obj
 0001:00146e40       ??1SPOtherGhost@@QAE@XZ    00547e40 f   sp_other.obj
 0001:00146ff0       ?Release@SPOtherGhost@@QAEXXZ 00547ff0 f   sp_other.obj
 0001:00147000       ?GetPropByMD5@SPOtherGhost@@QAEPAVSPOtherGhostProp@@PBD@Z 00548000 f   sp_other.obj
 0001:00147140       ?GetPropByName@SPOtherGhost@@QAEPAVSPOtherGhostProp@@PBG0@Z 00548140 f   sp_other.obj
 0001:00147190       ?GetPropByGhostIndex@SPOtherGhost@@QAEPAVSPOtherGhostProp@@H@Z 00548190 f   sp_other.obj
 0001:00147320       ?EliminateInvalidEntry@SPOtherGhost@@QAEXXZ 00548320 f   sp_other.obj
 0001:001474f0       ?Add@SPOtherGhost@@QAEPAVSPOtherGhostProp@@PAD@Z 005484f0 f   sp_other.obj
 0001:00147620       ?WriteFMOEntry@SPOtherGhost@@QAEIAAVJString@@H@Z 00548620 f   sp_other.obj
 0001:001476c0       ?GetHWndList@SPOtherGhost@@QAEXAAV?$JArray@PAX@@@Z 005486c0 f   sp_other.obj
 0001:00147810       ?AddSHIORIEntry@SPOtherGhost@@QAEIAAVJWString@@IH@Z 00548810 f   sp_other.obj
 0001:00147990       ?Set@?$JHash@D@@QAEXPBDPAX@Z 00548990 f i sp_other.obj
 0001:00147ba0       ??1?$SPCacheObj@VSPOtherGhostProp@@VJDummyLockSection@@VJDummyLock@@@@QAE@XZ 00548ba0 f i sp_other.obj
 0001:00147c70       ??1SPOtherGhostProp@@QAE@XZ 00548c70 f i sp_other.obj
 0001:00147d60       ?New@?$SPCacheObj@VSPOtherGhostProp@@VJDummyLockSection@@VJDummyLock@@@@QAEPAVSPOtherGhostProp@@XZ 00548d60 f i sp_other.obj
 0001:00147ef0       ??0SPOtherGhostProp@@QAE@XZ 00548ef0 f i sp_other.obj
 0001:00148040       ?Delete@?$SPCacheObj@VSPOtherGhostProp@@VJDummyLockSection@@VJDummyLock@@@@QAEXPAVSPOtherGhostProp@@@Z 00549040 f i sp_other.obj
 0001:00148160       ?DeleteArray@?$SPCacheObj@VSPOtherGhostProp@@VJDummyLockSection@@VJDummyLock@@@@QAEXAAV?$JPtrArray@PAVSPOtherGhostProp@@@@@Z 00549160 f i sp_other.obj
 0001:00148230       ??_ESPOtherGhostProp@@QAEPAXI@Z 00549230 f i sp_other.obj
 0001:00148290       ?Delete@?$JHashData@D@@QAEXPBDH@Z 00549290 f i sp_other.obj
 0001:00148350       ?IsEmpty@?$JHashData@D@@QAEHXZ 00549350 f i sp_other.obj
 0001:00148380       ??1SPOtherFINEServer@@QAE@XZ 00549380 f   sp_otherfine.obj
 0001:00148540       ??1SPOtherFINEServerProp@@AAE@XZ 00549540 f i sp_otherfine.obj
 0001:001486f0       ?Clear@SPOtherFINEServerProp@@QAEXXZ 005496f0 f i sp_otherfine.obj
 0001:001487f0       ?Release@SPOtherFINEServer@@QAEXXZ 005497f0 f   sp_otherfine.obj
 0001:001488a0       ?Add@SPOtherFINEServer@@QAEPAVSPOtherFINEServerProp@@PAD@Z 005498a0 f   sp_otherfine.obj
 0001:001489d0       ?WriteFMOEntry@SPOtherFINEServer@@QAEIAAVJString@@@Z 005499d0 f   sp_otherfine.obj
 0001:00148a70       ?EliminateInvalidEntry@SPOtherFINEServer@@QAEXXZ 00549a70 f   sp_otherfine.obj
 0001:00148c90       ?AddData@SPOtherFINEServerProp@@QAEXPAD0@Z 00549c90 f   sp_otherfine.obj
 0001:00148de0       ?MakeEntry@SPOtherFINEServerProp@@QAEXAAVJString@@@Z 00549de0 f   sp_otherfine.obj
 0001:00148f80       ??1?$SPCacheObj@VSPOtherFINEServerProp@@VJDummyLockSection@@VJDummyLock@@@@QAE@XZ 00549f80 f i sp_otherfine.obj
 0001:00149050       ?Release@?$SPCacheObj@VSPOtherFINEServerProp@@VJDummyLockSection@@VJDummyLock@@@@QAEXXZ 0054a050 f i sp_otherfine.obj
 0001:00149140       ?New@?$SPCacheObj@VSPOtherFINEServerProp@@VJDummyLockSection@@VJDummyLock@@@@QAEPAVSPOtherFINEServerProp@@XZ 0054a140 f i sp_otherfine.obj
 0001:001492d0       ??0SPOtherFINEServerProp@@AAE@XZ 0054a2d0 f i sp_otherfine.obj
 0001:00149400       ?Delete@?$SPCacheObj@VSPOtherFINEServerProp@@VJDummyLockSection@@VJDummyLock@@@@QAEXPAVSPOtherFINEServerProp@@@Z 0054a400 f i sp_otherfine.obj
 0001:00149550       ?DeleteArray@?$SPCacheObj@VSPOtherFINEServerProp@@VJDummyLockSection@@VJDummyLock@@@@QAEXAAV?$JPtrArray@PAVSPOtherFINEServerProp@@@@@Z 0054a550 f i sp_otherfine.obj
 0001:001496a0       ?SPParamGetStatusMsg@@YAPBDH@Z 0054a6a0 f   sp_param.obj
 0001:00149bb0       ?Release@SPParamManager@@QAEXXZ 0054abb0 f   sp_param.obj
 0001:00149be0       ?SetReqResGMEM@SPParamManager@@AAE_N_NPAXK@Z 0054abe0 f   sp_param.obj
 0001:00149db0       ?SetResponseGMEM@SPParamManager@@QAE_NPAXK@Z 0054adb0 f   sp_param.obj
 0001:00149dd0       ?SetRequestGMEM@SPParamManager@@QAE_NPAXK@Z 0054add0 f   sp_param.obj
 0001:00149df0       ?SetRequestText@SPParamManager@@QAE_NPBD@Z 0054adf0 f   sp_param.obj
 0001:00149e70       ?SetCharset@SPParamManager@@QAEXPBD@Z 0054ae70 f   sp_param.obj
 0001:00149eb0       ?SetForceEncoding@SPParamManager@@QAEXPBD@Z 0054aeb0 f   sp_param.obj
 0001:00149ef0       ?GetResponseText@SPParamManager@@QAEXAAVJString@@@Z 0054aef0 f   sp_param.obj
 0001:0014a160       ?GetResponseGMEM@SPParamManager@@QAEPAXPAJ@Z 0054b160 f   sp_param.obj
 0001:0014a220       ?ParseValue@SPParamManager@@AAE_NPAD_N@Z 0054b220 f   sp_param.obj
 0001:0014a5c0       ?Find@SPParamManager@@QAEJPBD_N@Z 0054b5c0 f   sp_param.obj
 0001:0014a640       ?GetValue@SPParamManager@@QAEPAGPBD_N@Z 0054b640 f   sp_param.obj
 0001:0014a680       ?GetValueA@SPParamManager@@QAEPADPBDH_N@Z 0054b680 f   sp_param.obj
 0001:0014a730       ?GetValueAll@SPParamManager@@QAE_NPBDAAV?$JPtrArray@PAG@@@Z 0054b730 f   sp_param.obj
 0001:0014a890       ?GetValuePrefixAll@SPParamManager@@QAE_NPBDAAV?$JPtrArray@PAD@@AAV?$JPtrArray@PAG@@@Z 0054b890 f   sp_param.obj
 0001:0014aa40       ?GetValueReference@SPParamManager@@QAE_NPBDAAV?$JPtrArray@PAG@@@Z 0054ba40 f   sp_param.obj
 0001:0014aba0       ?AddValue@SPParamManager@@QAE_NPBDPBG@Z 0054bba0 f   sp_param.obj
 0001:0014abf0       ?AddValueA@SPParamManager@@QAE_NPBD0H@Z 0054bbf0 f   sp_param.obj
 0001:0014ad10       ?AddValueMultiple@SPParamManager@@QAEXPBDPBG@Z 0054bd10 f   sp_param.obj
 0001:0014ad50       ??0SPParseJSON@@QAE@XZ     0054bd50 f   sp_parsejson.obj
 0001:0014ae90       ??1SPParseJSON@@QAE@XZ     0054be90 f   sp_parsejson.obj
 0001:0014af00       ?Release@SPParseJSON@@QAEXXZ 0054bf00 f   sp_parsejson.obj
 0001:0014af20       ?GetOutBuffer@SPParseJSON@@AAEAAVJWString@@XZ 0054bf20 f   sp_parsejson.obj
 0001:0014af50       ?ParseFile@SPParseJSON@@QAE_NPBG@Z 0054bf50 f   sp_parsejson.obj
 0001:0014b070       ?ParseString@SPParseJSON@@QAE_NPBD@Z 0054c070 f   sp_parsejson.obj
 0001:0014b0a0       ?SerializeToString@SPParseJSON@@QAEPBD_N@Z 0054c0a0 f   sp_parsejson.obj
 0001:0014b1c0       ?CreateNewArray@SPParseJSON@@QAEPAUjson_array_t@@XZ 0054c1c0 f   sp_parsejson.obj
 0001:0014b1e0       ?ObjectGetString@SPParseJSON@@QAEPBGPBUjson_object_t@@PBG@Z 0054c1e0 f   sp_parsejson.obj
 0001:0014b250       ?ObjectGetArray@SPParseJSON@@QAEPAUjson_array_t@@PBUjson_object_t@@PBG@Z 0054c250 f   sp_parsejson.obj
 0001:0014b2a0       ?ObjectSetString@SPParseJSON@@QAE_NPAUjson_object_t@@PBG1@Z 0054c2a0 f   sp_parsejson.obj
 0001:0014b390       ?ArrayGetString@SPParseJSON@@QAEPBGPBUjson_array_t@@I@Z 0054c390 f   sp_parsejson.obj
 0001:0014b3e0       ?ArrayGetObject@SPParseJSON@@QAEPAUjson_object_t@@PBUjson_array_t@@I@Z 0054c3e0 f   sp_parsejson.obj
 0001:0014b400       ?ArrayGetArray@SPParseJSON@@QAEPAUjson_array_t@@PBU2@I@Z 0054c400 f   sp_parsejson.obj
 0001:0014b420       ?ArrayGetNumber@SPParseJSON@@QAENPBUjson_array_t@@I@Z 0054c420 f   sp_parsejson.obj
 0001:0014b440       ?ArrayGetCount@SPParseJSON@@QAEIPBUjson_array_t@@@Z 0054c440 f   sp_parsejson.obj
 0001:0014b460       ?ArrayAppendObject@SPParseJSON@@QAEPAUjson_object_t@@PAUjson_array_t@@@Z 0054c460 f   sp_parsejson.obj
 0001:0014b4b0       ?ValueGetObject@SPParseJSON@@QAEPAUjson_object_t@@PBUjson_value_t@@@Z 0054c4b0 f   sp_parsejson.obj
 0001:0014b4e0       ?ValueGetArray@SPParseJSON@@QAEPAUjson_array_t@@PBUjson_value_t@@@Z 0054c4e0 f   sp_parsejson.obj
 0001:0014b510       ?GetSPPdh@@YAAAVSPPdh@@XZ  0054c510 f   sp_pdh.obj
 0001:0014b5a0       ??0SPPdh@@AAE@XZ           0054c5a0 f   sp_pdh.obj
 0001:0014b6c0       ??_GSPPdh@@UAEPAXI@Z       0054c6c0 f i sp_pdh.obj
 0001:0014b6c0       ??_ESPPdh@@UAEPAXI@Z       0054c6c0 f i sp_pdh.obj
 0001:0014b6f0       ??1SPPdh@@UAE@XZ           0054c6f0 f   sp_pdh.obj
 0001:0014b770       ?L_AddCounter@SPPdh@@QAEPAXPAXPBDK@Z 0054c770 f   sp_pdh.obj
 0001:0014b7c0       ?L_GetCounterValueDouble@SPPdh@@QAENPAXK@Z 0054c7c0 f   sp_pdh.obj
 0001:0014b820       ??0SPPiro@@QAE@PAVSPGhost@@@Z 0054c820 f   sp_piro.obj
 0001:0014b8b0       ?GetModuleDesc@SPPiro@@UAEPBGXZ 0054c8b0 f i sp_piro.obj
 0001:0014b8b0       ?Name@SPPiro@@UAEPBGXZ     0054c8b0 f i sp_piro.obj
 0001:0014b8c0       ?GetLogFileName@SPPiro@@UAEPBGXZ 0054c8c0 f i sp_piro.obj
 0001:0014b8d0       ?GetTypeString@SPPiro@@UAEPBGXZ 0054c8d0 f i sp_piro.obj
 0001:0014b8e0       ??_GSPPiro@@UAEPAXI@Z      0054c8e0 f i sp_piro.obj
 0001:0014b8e0       ??_ESPPiro@@UAEPAXI@Z      0054c8e0 f i sp_piro.obj
 0001:0014b910       ??1SPPiro@@UAE@XZ          0054c910 f i sp_piro.obj
 0001:0014b930       ?Load@SPPiro@@QAEHPBG@Z    0054c930 f   sp_piro.obj
 0001:0014bc70       ?Unload@SPPiro@@QAEXXZ     0054cc70 f   sp_piro.obj
 0001:0014bcd0       ?GetScript@SPPiro@@QAEPAGPBG@Z 0054ccd0 f   sp_piro.obj
 0001:0014bd50       ?Override@SPPiro@@QAEHPBDJ@Z 0054cd50 f   sp_piro.obj
